ARM GAS  C:\Users\ldebo\AppData\Local\Temp\ccpehfH9.s 			page 1


   1              		.arch armv8-a
   2              		.eabi_attribute 28, 1
   3              		.eabi_attribute 20, 1
   4              		.eabi_attribute 21, 1
   5              		.eabi_attribute 23, 3
   6              		.eabi_attribute 24, 1
   7              		.eabi_attribute 25, 1
   8              		.eabi_attribute 26, 1
   9              		.eabi_attribute 30, 2
  10              		.eabi_attribute 34, 0
  11              		.eabi_attribute 18, 4
  12              		.file	"main.c"
  13              		.text
  14              		.align	2
  15              		.global	somerand
  16              		.syntax unified
  17              		.arm
  18              		.fpu neon-vfpv4
  19              		.type	somerand, %function
  20              	somerand:
  21              		@ args = 0, pretend = 0, frame = 0
  22              		@ frame_needed = 0, uses_anonymous_args = 0
  23              		@ link register save eliminated.
  24 0000 003000E3 		movw	r3, #:lower16:.LANCHOR0
  25 0004 003040E3 		movt	r3, #:upper16:.LANCHOR0
  26 0008 000000E3 		movw	r0, #:lower16:.LC0
  27 000c 000040E3 		movt	r0, #:upper16:.LC0
  28 0010 00C093E5 		ldr	ip, [r3]
  29 0014 042093E5 		ldr	r2, [r3, #4]
  30 0018 01C08CE2 		add	ip, ip, #1
  31 001c 0C10A0E1 		mov	r1, ip
  32 0020 00C083E5 		str	ip, [r3]
  33 0024 FEFFFFEA 		b	printf
  34              		.size	somerand, .-somerand
  35              		.align	2
  36              		.global	marco
  37              		.syntax unified
  38              		.arm
  39              		.fpu neon-vfpv4
  40              		.type	marco, %function
  41              	marco:
  42              		@ args = 0, pretend = 0, frame = 0
  43              		@ frame_needed = 0, uses_anonymous_args = 0
  44              		@ link register save eliminated.
  45 0028 000000E3 		movw	r0, #:lower16:.LC1
  46 002c 000040E3 		movt	r0, #:upper16:.LC1
  47 0030 FEFFFFEA 		b	printf
  48              		.size	marco, .-marco
  49              		.align	2
  50              		.global	polo
  51              		.syntax unified
  52              		.arm
  53              		.fpu neon-vfpv4
  54              		.type	polo, %function
  55              	polo:
  56              		@ args = 0, pretend = 0, frame = 0
  57              		@ frame_needed = 0, uses_anonymous_args = 0
ARM GAS  C:\Users\ldebo\AppData\Local\Temp\ccpehfH9.s 			page 2


  58              		@ link register save eliminated.
  59 0034 000000E3 		movw	r0, #:lower16:.LC2
  60 0038 000040E3 		movt	r0, #:upper16:.LC2
  61 003c FEFFFFEA 		b	printf
  62              		.size	polo, .-polo
  63              		.align	2
  64              		.global	caught
  65              		.syntax unified
  66              		.arm
  67              		.fpu neon-vfpv4
  68              		.type	caught, %function
  69              	caught:
  70              		@ args = 0, pretend = 0, frame = 0
  71              		@ frame_needed = 0, uses_anonymous_args = 0
  72              		@ link register save eliminated.
  73 0040 000000E3 		movw	r0, #:lower16:.LC3
  74 0044 000040E3 		movt	r0, #:upper16:.LC3
  75 0048 FEFFFFEA 		b	printf
  76              		.size	caught, .-caught
  77              		.align	2
  78              		.global	c_irq_handler
  79              		.syntax unified
  80              		.arm
  81              		.fpu neon-vfpv4
  82              		.type	c_irq_handler, %function
  83              	c_irq_handler:
  84              		@ args = 0, pretend = 0, frame = 0
  85              		@ frame_needed = 0, uses_anonymous_args = 0
  86 004c 10402DE9 		push	{r4, lr}
  87 0050 004000E3 		movw	r4, #:lower16:.LANCHOR0
  88 0054 004040E3 		movt	r4, #:upper16:.LANCHOR0
  89 0058 0830D4E5 		ldrb	r3, [r4, #8]	@ zero_extendqisi2
  90 005c 000053E3 		cmp	r3, #0
  91 0060 0130A003 		moveq	r3, #1
  92 0064 0000A013 		movne	r0, #0
  93 0068 0300A001 		moveq	r0, r3
  94 006c 0830C405 		strbeq	r3, [r4, #8]
  95 0070 0800C415 		strbne	r0, [r4, #8]
  96 0074 FEFFFFEB 		bl	set_Activity_LED
  97 0078 0830D4E5 		ldrb	r3, [r4, #8]	@ zero_extendqisi2
  98 007c 000053E3 		cmp	r3, #0
  99 0080 1080BD08 		popeq	{r4, pc}
 100 0084 FEFFFFEB 		bl	rand
 101 0088 562505E3 		movw	r2, #21846
 102 008c 552545E3 		movt	r2, 21845
 103 0090 001000E3 		movw	r1, #:lower16:somerand
 104 0094 001040E3 		movt	r1, #:upper16:somerand
 105 0098 9022C3E0 		smull	r2, r3, r0, r2
 106 009c C03F43E0 		sub	r3, r3, r0, asr #31
 107 00a0 833083E0 		add	r3, r3, r3, lsl #1
 108 00a4 030040E0 		sub	r0, r0, r3
 109 00a8 010080E2 		add	r0, r0, #1
 110 00ac 040084E5 		str	r0, [r4, #4]
 111 00b0 7000EFE6 		uxtb	r0, r0
 112 00b4 1040BDE8 		pop	{r4, lr}
 113 00b8 FEFFFFEA 		b	CoreExecute
 114              		.size	c_irq_handler, .-c_irq_handler
ARM GAS  C:\Users\ldebo\AppData\Local\Temp\ccpehfH9.s 			page 3


 115              		.align	2
 116              		.global	kernel_main
 117              		.syntax unified
 118              		.arm
 119              		.fpu neon-vfpv4
 120              		.type	kernel_main, %function
 121              	kernel_main:
 122              		@ Volatile: function does not return.
 123              		@ args = 0, pretend = 0, frame = 8
 124              		@ frame_needed = 0, uses_anonymous_args = 0
 125 00bc 04E02DE5 		str	lr, [sp, #-4]!
 126 00c0 000000E3 		movw	r0, #:lower16:Embedded_Console_WriteChar
 127 00c4 000040E3 		movt	r0, #:upper16:Embedded_Console_WriteChar
 128 00c8 0CD04DE2 		sub	sp, sp, #12
 129 00cc FEFFFFEB 		bl	Init_EmbStdio
 130 00d0 0020A0E3 		mov	r2, #0
 131 00d4 0210A0E1 		mov	r1, r2
 132 00d8 0200A0E1 		mov	r0, r2
 133 00dc 003000E3 		movw	r3, #:lower16:printf
 134 00e0 003040E3 		movt	r3, #:upper16:printf
 135 00e4 FEFFFFEB 		bl	PiConsole_Init
 136 00e8 000000E3 		movw	r0, #:lower16:printf
 137 00ec 000040E3 		movt	r0, #:upper16:printf
 138 00f0 FEFFFFEB 		bl	displaySmartStart
 139 00f4 000000E3 		movw	r0, #:lower16:printf
 140 00f8 000040E3 		movt	r0, #:upper16:printf
 141 00fc FEFFFFEB 		bl	ARM_setmaxspeed
 142 0100 000000E3 		movw	r0, #:lower16:.LC4
 143 0104 000040E3 		movt	r0, #:upper16:.LC4
 144 0108 4A280DE3 		movw	r2, #55370
 145 010c 122D44E3 		movt	r2, 19730
 146 0110 FB3102E3 		movw	r3, #8699
 147 0114 093044E3 		movt	r3, 16393
 148 0118 FEFFFFEB 		bl	printf
 149 011c 400204E3 		movw	r0, #16960
 150 0120 0F0040E3 		movt	r0, 15
 151 0124 0010A0E3 		mov	r1, #0
 152 0128 FEFFFFEB 		bl	timer_wait
 153 012c 0030A0E3 		mov	r3, #0
 154 0130 04308DE5 		str	r3, [sp, #4]
 155 0134 9F3608E3 		movw	r3, #34463
 156 0138 013040E3 		movt	r3, 1
 157 013c 04209DE5 		ldr	r2, [sp, #4]
 158 0140 030052E1 		cmp	r2, r3
 159 0144 050000CA 		bgt	.L15
 160              	.L24:
 161 0148 04209DE5 		ldr	r2, [sp, #4]
 162 014c 012082E2 		add	r2, r2, #1
 163 0150 04208DE5 		str	r2, [sp, #4]
 164 0154 04209DE5 		ldr	r2, [sp, #4]
 165 0158 030052E1 		cmp	r2, r3
 166 015c F9FFFFDA 		ble	.L24
 167              	.L15:
 168 0160 001000E3 		movw	r1, #:lower16:marco
 169 0164 001040E3 		movt	r1, #:upper16:marco
 170 0168 0100A0E3 		mov	r0, #1
 171 016c FEFFFFEB 		bl	CoreExecute
ARM GAS  C:\Users\ldebo\AppData\Local\Temp\ccpehfH9.s 			page 4


 172 0170 0030A0E3 		mov	r3, #0
 173 0174 04308DE5 		str	r3, [sp, #4]
 174 0178 9F3608E3 		movw	r3, #34463
 175 017c 013040E3 		movt	r3, 1
 176 0180 04209DE5 		ldr	r2, [sp, #4]
 177 0184 030052E1 		cmp	r2, r3
 178 0188 050000CA 		bgt	.L14
 179              	.L23:
 180 018c 04209DE5 		ldr	r2, [sp, #4]
 181 0190 012082E2 		add	r2, r2, #1
 182 0194 04208DE5 		str	r2, [sp, #4]
 183 0198 04209DE5 		ldr	r2, [sp, #4]
 184 019c 030052E1 		cmp	r2, r3
 185 01a0 F9FFFFDA 		ble	.L23
 186              	.L14:
 187 01a4 001000E3 		movw	r1, #:lower16:polo
 188 01a8 001040E3 		movt	r1, #:upper16:polo
 189 01ac 0200A0E3 		mov	r0, #2
 190 01b0 FEFFFFEB 		bl	CoreExecute
 191 01b4 0030A0E3 		mov	r3, #0
 192 01b8 04308DE5 		str	r3, [sp, #4]
 193 01bc 9F3608E3 		movw	r3, #34463
 194 01c0 013040E3 		movt	r3, 1
 195 01c4 04209DE5 		ldr	r2, [sp, #4]
 196 01c8 030052E1 		cmp	r2, r3
 197 01cc 050000CA 		bgt	.L17
 198              	.L22:
 199 01d0 04209DE5 		ldr	r2, [sp, #4]
 200 01d4 012082E2 		add	r2, r2, #1
 201 01d8 04208DE5 		str	r2, [sp, #4]
 202 01dc 04209DE5 		ldr	r2, [sp, #4]
 203 01e0 030052E1 		cmp	r2, r3
 204 01e4 F9FFFFDA 		ble	.L22
 205              	.L17:
 206 01e8 001000E3 		movw	r1, #:lower16:caught
 207 01ec 001040E3 		movt	r1, #:upper16:caught
 208 01f0 0300A0E3 		mov	r0, #3
 209 01f4 FEFFFFEB 		bl	CoreExecute
 210 01f8 0030A0E3 		mov	r3, #0
 211 01fc 04308DE5 		str	r3, [sp, #4]
 212 0200 9F3608E3 		movw	r3, #34463
 213 0204 013040E3 		movt	r3, 1
 214 0208 04209DE5 		ldr	r2, [sp, #4]
 215 020c 030052E1 		cmp	r2, r3
 216 0210 050000CA 		bgt	.L19
 217              	.L21:
 218 0214 04209DE5 		ldr	r2, [sp, #4]
 219 0218 012082E2 		add	r2, r2, #1
 220 021c 04208DE5 		str	r2, [sp, #4]
 221 0220 04209DE5 		ldr	r2, [sp, #4]
 222 0224 030052E1 		cmp	r2, r3
 223 0228 F9FFFFDA 		ble	.L21
 224              	.L19:
 225 022c 001000E3 		movw	r1, #:lower16:c_irq_handler
 226 0230 001040E3 		movt	r1, #:upper16:c_irq_handler
 227 0234 20010AE3 		movw	r0, #41248
 228 0238 070040E3 		movt	r0, 7
ARM GAS  C:\Users\ldebo\AppData\Local\Temp\ccpehfH9.s 			page 5


 229 023c FEFFFFEB 		bl	TimerIrqSetup
 230 0240 FEFFFFEB 		bl	EnableInterrupts
 231              	.L20:
 232 0244 FEFFFFEA 		b	.L20
 233              		.size	kernel_main, .-kernel_main
 234              		.comm	test,4,4
 235              		.bss
 236              		.align	2
 237              		.set	.LANCHOR0,. + 0
 238              		.type	idx, %object
 239              		.size	idx, 4
 240              	idx:
 241 0000 00000000 		.space	4
 242              		.type	core, %object
 243              		.size	core, 4
 244              	core:
 245 0004 00000000 		.space	4
 246              		.type	lit, %object
 247              		.size	lit, 1
 248              	lit:
 249 0008 00       		.space	1
 250              		.section	.rodata.str1.4,"aMS",%progbits,1
 251              		.align	2
 252              	.LC0:
 253 0000 69647820 		.ascii	"idx = %d call by core:%d\012\000"
 253      3D202564 
 253      2063616C 
 253      6C206279 
 253      20636F72 
 254 001a 0000     		.space	2
 255              	.LC1:
 256 001c 436F7265 		.ascii	"Core 1 says marco\012\000"
 256      20312073 
 256      61797320 
 256      6D617263 
 256      6F0A00
 257 002f 00       		.space	1
 258              	.LC2:
 259 0030 436F7265 		.ascii	"Core 2 says polo\012\000"
 259      20322073 
 259      61797320 
 259      706F6C6F 
 259      0A00
 260 0042 0000     		.space	2
 261              	.LC3:
 262 0044 436F7265 		.ascii	"Core 3 says caught\012\000"
 262      20332073 
 262      61797320 
 262      63617567 
 262      68740A00 
 263              	.LC4:
 264 0058 25660A00 		.ascii	"%f\012\000"
 265              		.ident	"GCC: (GNU Tools for ARM Embedded Processors 6-2017-q2-update) 6.3.1 20170620 (release) [AR
ARM GAS  C:\Users\ldebo\AppData\Local\Temp\ccpehfH9.s 			page 6


DEFINED SYMBOLS
                            *ABS*:00000000 main.c
C:\Users\ldebo\AppData\Local\Temp\ccpehfH9.s:14     .text:00000000 $a
C:\Users\ldebo\AppData\Local\Temp\ccpehfH9.s:20     .text:00000000 somerand
C:\Users\ldebo\AppData\Local\Temp\ccpehfH9.s:237    .bss:00000000 .LANCHOR0
C:\Users\ldebo\AppData\Local\Temp\ccpehfH9.s:252    .rodata.str1.4:00000000 .LC0
C:\Users\ldebo\AppData\Local\Temp\ccpehfH9.s:41     .text:00000028 marco
C:\Users\ldebo\AppData\Local\Temp\ccpehfH9.s:255    .rodata.str1.4:0000001c .LC1
C:\Users\ldebo\AppData\Local\Temp\ccpehfH9.s:55     .text:00000034 polo
C:\Users\ldebo\AppData\Local\Temp\ccpehfH9.s:258    .rodata.str1.4:00000030 .LC2
C:\Users\ldebo\AppData\Local\Temp\ccpehfH9.s:69     .text:00000040 caught
C:\Users\ldebo\AppData\Local\Temp\ccpehfH9.s:261    .rodata.str1.4:00000044 .LC3
C:\Users\ldebo\AppData\Local\Temp\ccpehfH9.s:83     .text:0000004c c_irq_handler
C:\Users\ldebo\AppData\Local\Temp\ccpehfH9.s:121    .text:000000bc kernel_main
C:\Users\ldebo\AppData\Local\Temp\ccpehfH9.s:263    .rodata.str1.4:00000058 .LC4
                            *COM*:00000004 test
C:\Users\ldebo\AppData\Local\Temp\ccpehfH9.s:236    .bss:00000000 $d
C:\Users\ldebo\AppData\Local\Temp\ccpehfH9.s:240    .bss:00000000 idx
C:\Users\ldebo\AppData\Local\Temp\ccpehfH9.s:244    .bss:00000004 core
C:\Users\ldebo\AppData\Local\Temp\ccpehfH9.s:248    .bss:00000008 lit
C:\Users\ldebo\AppData\Local\Temp\ccpehfH9.s:251    .rodata.str1.4:00000000 $d

UNDEFINED SYMBOLS
printf
set_Activity_LED
rand
CoreExecute
Embedded_Console_WriteChar
Init_EmbStdio
PiConsole_Init
displaySmartStart
ARM_setmaxspeed
timer_wait
TimerIrqSetup
EnableInterrupts
ARM GAS  C:\Users\ldebo\AppData\Local\Temp\ccpehfH9.s 			page 1


   1              	# 1 "SmartStart32.S"
   1              	﻿;@"+++++++++++++++++++++++++++++++++++++++++++++++++++++++++++++++++++++++++"
   0              	
   0              	
   2              	;@"																			"			
   3              	;@"      Filename: smartstart32.s											"
   4              	;@"      Copyright(c): Leon de Boer(LdB) 2017								"
   5              	;@"      Version: 2.03														"
   6              	;@"																			"		
   7              	;@"**************[ THIS CODE IS FREEWARE UNDER CC Attribution]**************"
   8              	;@"																            "
   9              	;@"     This sourcecode is released for the purpose to promote programming  "
  10              	;@"  on the Raspberry Pi. You may redistribute it and/or modify with the    "
  11              	;@"  following disclaimer and condition.                                    "
  12              	;@"																            "
  13              	;@"      The SOURCE CODE is distributed "AS IS" WITHOUT WARRANTIES AS TO    "
  14              	;@"   PERFORMANCE OF MERCHANTABILITY WHETHER EXPRESSED OR IMPLIED.          "
  15              	;@"   Redistributions of source code must retain the copyright notices to   "
  16              	;@"   maintain the author credit (attribution) .							"
  17              	;@"																			"
  18              	;@"*************************************************************************"
  19              	;@"                                                                         "
  20              	;@"       This code expands on my earlier SmartStart bootstub assembler for "
  21              	;@" the Pi 1/2/3. It simplifies some of the autodetect code but importantly "
  22              	;@" directly supports multicore operation in C/C++. To do that it provides  "
  23              	;@" stack space to each core and provides a modified bootloader spinlock    "
  24              	;@" that protects against registers R0-R3 trashed. As any C/C++ compiler    "
  25              	;@" code will trash those registers, to use C/C++ in multicore programming  "
  26              	;@" this protection must be done.											"
  27              	;@"      The downside is this bootstub must be a little more complex in     "
  28              	;@" that it must start and setup multiple cores. The code is much more      "
  29              	;@" connected to the linker file which provides memory space to each core.  "
  30              	;@"       There is however matching paired AARCH64 stub and linker files    "
  31              	;@" so code written for this setup can be ported to AARCH64 with ease.		"
  32              	;@"																            "
  33              	;@"+++++++++++++++++++++++[ REVISIONS ]+++++++++++++++++++++++++++++++++++++"
  34              	;@"  1.01 Initial release .. Pi autodetection main aim                      "
  35              	;@"  1.02 Many functions moved out C to aide 32/64 bit compatability        "
  36              	;@"  2.01 Futher reductions to bare minmum assembeler code                  "
  37              	;@"  2.02 Multicore functionality added                                     "
  38              	;@"  2.03 Timer Irq support added  											"
  39              	;@"+++++++++++++++++++++++++++++++++++++++++++++++++++++++++++++++++++++++++"
  40              	
  41              	;@"========================================================================="
  42              	;@"				 	 ARM CPU ID CONSTANT DEFINITIONS					    "
  43              	;@"========================================================================="
  44              	.equ ARM6_CPU_ID, 0x410FB767					;@ CPU id a BCM2835 reports
  45              	.equ ARM7_CPU_ID, 0x410FC073					;@ CPU id a BCM2836 reports
  46              	.equ ARM8_CPU_ID, 0x410FD034					;@ CPU id a BCM2837 reports
  47              	
  48              	;@"========================================================================="
  49              	;@"				 	 ARM CPU MODE CONSTANT DEFINITIONS					    "
  50              	;@"========================================================================="
  51              	.equ CPU_FIQMODE, 0x11							;@ CPU in FIQ mode
  52              	.equ CPU_IRQMODE, 0x12							;@ CPU in IRQ mode
  53              	.equ CPU_SVCMODE, 0x13							;@ CPU in SVC mode
  54              	.equ CPU_HYPMODE, 0x1A							;@ CPU in HYP mode
ARM GAS  C:\Users\ldebo\AppData\Local\Temp\ccpehfH9.s 			page 2


  55              	
  56              	;@"========================================================================="
  57              	;@"				 ARM CPU IRQ/FIQ BIT CONSTANT DEFINITIONS				    "
  58              	;@"========================================================================="
  59              	.equ I_Bit,  (1 << 7)							;@ Irq flag bit in cpsr (CPUMODE register)
  60              	.equ F_Bit,  (1 << 6)							;@ Fiq flag bit in cpsr (CPUMODE register)
  61              	
  62              	;@"========================================================================="
  63              	;@"				 	 ARM CPU MODE CONSTANT DEFINITIONS					    "
  64              	;@"========================================================================="
  65              	.equ CPU_FIQMODE_VALUE, (CPU_FIQMODE | I_Bit | F_Bit)	;@ CPU in FIQ mode with irq, fiq off
  66              	.equ CPU_IRQMODE_VALUE, (CPU_IRQMODE | I_Bit | F_Bit)	;@ CPU in IRQ mode with irq, fiq off
  67              	.equ CPU_SVCMODE_VALUE, (CPU_SVCMODE | I_Bit | F_Bit)	;@ CPU in SVC mode with irq, fiq off
  68              	
  69              	;@"*************************************************************************"
  70              	;@"          INTERNAL DATA FOR SMARTSTART NOT EXPOSED TO INTERFACE			"
  71              	;@"*************************************************************************"
  72              	.section ".data.smartstart", "aw"
  73              	.balign 4
  74              	
  75 0000 00000000 	RPi_BusAlias	: .4byte 0;				// Address offset between VC4 physical address and ARM address needed f
  76              	
  77              	
  78              	
  79              	.globl RPi_CPUCurrentMode;				// Make sure RPi_CPUCurrentMode label is global
  80 0004 00000000 	RPi_CPUCurrentMode : .4byte 0;			//  CPU current Mode is 4 byte variable
  81              	
  82              	.globl RPi_Heap; @ Make sure RPi_Heap label is global
  83 0008 00000000 	RPi_Heap : .4byte 0; @ RPi_Heap is 4 byte variable
  84              	
  85              	.section ".text.startup", "ax", %progbits
  86              	.balign	4
  87              	.globl _start
  88              	.syntax unified
  89              	.arm
  90              	_start:
  91              	;@"================================================================"
  92              	;@ Grab cpu mode and start address and hold in a high register.
  93              	;@"================================================================"
  94 0000 0FC0A0E1 		mov r12, pc;							;@ Hold boot address in high register R12
  95 0004 00B00FE1 		mrs r11, CPSR							;@ Read current CPU mode
  96 0008 1FB00BE2 		and r11, r11, #0x1F						;@ Clear all but CPU mode bits in register r11
  97              	;@"================================================================"
  98              	;@ If the cpu is in HYP_MODE(EL2) we will bring it SVC_MODE (EL1).
  99              	;@"================================================================"
 100              	multicore_start:
 101 000c 00000FE1 	    mrs r0,cpsr								;@ Fetch the cpsr register which includes CPU mode bits 
 102 0010 1F1000E2 	 	and r1, r0, #0x1F						;@ Mask off the CPU mode bits to register r1                            
 103 0014 1A0051E3 	 	cmp r1, #CPU_HYPMODE					;@ Check we are in HYP_MODE											
 104 0018 0500001A 		bne .NotInHypMode						;@ Branch if not equal meaning was not in HYP_MODE  
 105 001c 1F00C0E3 		bic r0,r0,#0x1F							;@ Clear the CPU mode bits in register r0							
 106 0020 D30080E3 		orr r0, r0, #CPU_SVCMODE_VALUE			;@ SVC_MODE bits onto register with Irq/Fiq disabled	
 107 0024 00F06FE1 	    msr spsr_cxsf,r0						;@ Hold value in spsr_cxsf
 108 0028 04E08FE2 	    add lr,pc,#4							;@ Calculate address of .NotInHypMode label
 109              		/* I borrowed this trick from Ultibo because ARM6 code running on an ARM7/8 needs this opcode  */
 110              		/* The ARM6 compiler does not know these instructions so it is a way to get needed opcode here */
 111              	    /* So our ARM6 code can drop an arm7 or arm8 out of HYP mode and run on an ARM7/8.             
ARM GAS  C:\Users\ldebo\AppData\Local\Temp\ccpehfH9.s 			page 3


 112              	 	/* Native ARM7/8 compilers already understand the OPCODE but do not mind it this way either	   */
 113 002c 0EF32EE1 		.long 0xE12EF30E						;@ "msr ELR_hyp, lr" Set the address to ELR_hyp
 114 0030 6E0060E1 		.long 0xE160006E						;@ "eret" Elevated return which will exit at .NotInHypMode in SVC_MODE
 115              	.NotInHypMode:
 116              	;@"================================================================"
 117              	;@  Setup stack pointers for each core and each CPU operation mode
 118              	;@"================================================================"
 119 0034 4C229FE5 	    ldr r2, = __SVC_stack_core0				;@ Address of svc_stack_core0 stack pointer value
 120 0038 4C329FE5 	    ldr r3, = __FIQ_stack_core0				;@ Address of fiq_stack_core0 stack pointer value
 121 003c 4C429FE5 	    ldr r4, = __IRQ_stack_core0				;@ Address of irq_stack_core0 stack pointer value
 122 0040 100F10EE 		mrc p15, 0, r0, c0, c0, 0				;@ Read CPU ID Register
 123 0044 48129FE5 		ldr r1, =#ARM6_CPU_ID					;@ Fetch ARM6_CPU_ID
 124 0048 000051E1 		cmp r1, r0								;@ Check for match
 125 004c 0F00000A 		beq set_svc_stack						;@ ARM6 only has 1 core so goto set svc_stack
 126 0050 B05F10EE 		mrc p15, 0, r5, c0, c0, 5				;@ Read core id on ARM7 & ARM8
 127 0054 035015E2 		ands r5, r5, #0x3						;@ Make cpu id bitmask
 128 0058 0C00000A 		beq set_svc_stack						;@ This is core 0 so set got set svc_stack
 129 005c 34229FE5 	    ldr r2, = __SVC_stack_core1				;@ Address of svc_stack_core1 stack pointer value
 130 0060 34329FE5 	    ldr r3, = __FIQ_stack_core1				;@ Address of fiq_stack_core1 stack pointer value
 131 0064 34429FE5 	    ldr r4, = __IRQ_stack_core1				;@ Address of irq_stack_core1 stack pointer value
 132 0068 010055E3 		cmp r5, #1								;@ Check cpu id for core 1
 133 006c 0700000A 		beq set_svc_stack						;@ This is core 1 so set svc_stack
 134 0070 2C229FE5 	    ldr r2, = __SVC_stack_core2				;@ Address of svc_stack_core2 stack pointer value
 135 0074 2C329FE5 	    ldr r3, = __FIQ_stack_core2				;@ Address of fiq_stack_core2 stack pointer value
 136 0078 2C429FE5 	    ldr r4, = __IRQ_stack_core2				;@ Address of irq_stack_core2 stack pointer value
 137 007c 020055E3 		cmp r5, #2								;@ Check cpu id for core 2
 138 0080 0200000A 		beq set_svc_stack						;@ This is core 2 so set svc_stack
 139 0084 24229FE5 	    ldr r2, = __SVC_stack_core3				;@ Address of svc_stack_core3 stack pointer value
 140 0088 24329FE5 	    ldr r3, = __FIQ_stack_core3				;@ Address of fiq_stack_core3 stack pointer value
 141 008c 24429FE5 	    ldr r4, = __IRQ_stack_core3				;@ Address of irq_stack_core3 stack pointer value
 142              	set_svc_stack:
 143 0090 02D0A0E1 		mov sp, r2								;@ Set the stack pointer for SVC_MODE 
 144 0094 00000FE1 	    mrs r0,cpsr								;@ Fetch the cpsr register which includes CPU mode bits 
 145 0098 1F00C0E3 		bic r0,r0,#0x1F							;@ Clear the CPU mode bits in register r0							
 146 009c D10080E3 		orr r0, r0, #CPU_FIQMODE_VALUE			;@ FIQ_MODE bits onto register with Irq/Fiq disabled
 147 00a0 00F021E1 	    msr CPSR_c, r0							;@ Switch to FIQ_MODE
 148 00a4 03D0A0E1 		mov sp, r3								;@ Set the stack pointer for FIQ_MODE 
 149 00a8 1F00C0E3 		bic r0,r0,#0x1F							;@ Clear the CPU mode bits in register r0	
 150 00ac D20080E3 		orr r0, r0, #CPU_IRQMODE_VALUE			;@ IRQ_MODE bits onto register with Irq/Fiq disabled	
 151 00b0 00F021E1 	    msr CPSR_c, r0							;@ Switch to IRQ_MODE
 152 00b4 04D0A0E1 		mov sp, r4								;@ Set the stack pointer for IRQ_MODE 
 153 00b8 1F00C0E3 		bic r0,r0,#0x1F							;@ Clear the CPU mode bits in register r0							
 154 00bc D30080E3 		orr r0, r0, #CPU_SVCMODE_VALUE			;@ SVC_MODE bits onto register with Irq/Fiq disabled	
 155 00c0 00F021E1 	    msr CPSR_c, r0							;@ Switch to SVC_MODE again all stacks ready to go
 156              	@"================================================================"
 157              	;@ PI NSACR regsister setup for access to floating point unit
 158              	;@ Cortex A-7 => Section 4.3.34. Non-Secure Access Control Register
 159              	;@ Cortex A-53 => Section 4.5.32. Non-Secure Access Control Register
 160              	;@"================================================================"
 161 00c4 510F11EE 		mrc p15, 0, r0, c1, c1, 2				;@ Read NSACR into R0
 162 00c8 030B50E3 		cmp r0, #0x00000C00						;@ Access turned on or in AARCH32 mode and can not touch register or EL3 
 163 00cc 0100000A 		beq .free_to_enable_fpu1
 164 00d0 030B80E3 		orr r0, r0, #0x3<<10					;@ Set access to both secure and non secure modes
 165 00d4 510F01EE 		mcr p15, 0, r0, c1, c1, 2				;@ Write NSACR
 166              	;@"================================================================"
 167              	;@ Bring fpu online
 168              	;@"================================================================"
ARM GAS  C:\Users\ldebo\AppData\Local\Temp\ccpehfH9.s 			page 4


 169              	.free_to_enable_fpu1:
 170 00d8 500F11EE 		mrc p15, 0, r0, c1, c0, #2				;@ R0 = Access Control Register
 171 00dc 0F0680E3 		orr r0, #(0x300000 + 0xC00000)			;@ Enable Single & Double Precision
 172 00e0 500F01EE 		mcr p15,0,r0,c1,c0, #2					;@ Access Control Register = R0
 173 00e4 0101A0E3 		mov r0, #0x40000000						;@ R0 = Enable VFP
 174 00e8 100AE8EE 		vmsr fpexc, r0							;@ FPEXC = R0
 175              	;@"================================================================"
 176              	;@ Enable L1 cache
 177              	;@"================================================================"
 178              	.equ SCTLR_ENABLE_DATA_CACHE,			0x4
 179              	.equ SCTLR_ENABLE_BRANCH_PREDICTION,	0x800
 180              	.equ SCTLR_ENABLE_INSTRUCTION_CACHE,	0x1000
 181 00ec 100F11EE 	    mrc p15,0,r0,c1,c0,0					;@ R0 = System Control Register
 182              	
 183              	    /* Enable caches and branch prediction */
 184 00f0 020B80E3 	    orr r0, #SCTLR_ENABLE_BRANCH_PREDICTION
 185 00f4 040080E3 	    orr r0, #SCTLR_ENABLE_DATA_CACHE
 186 00f8 010A80E3 	    orr r0, #SCTLR_ENABLE_INSTRUCTION_CACHE
 187              	
 188 00fc 100F01EE 	    mcr p15,0,r0,c1,c0,0					;@ System Control Register = R0
 189              	;@"================================================================"
 190              	;@ Check if BC2835 and if so branch over multi-core park routine
 191              	;@"================================================================"
 192 0100 100F10EE 		mrc p15,0,r0,c0,c0,0					;@ Read CPU ID Register
 193 0104 88119FE5 		ldr r1, =#ARM6_CPU_ID					;@ fetch ARM6_CPU_ID
 194 0108 000051E1 		cmp r1, r0								;@ Check for match
 195 010c 0700000A 		beq .cpu0_exit_multicore_park			;@ Branch as Arm6 has only 1 CPU 
 196              	;@"================================================================"
 197              	;@ Now park Core 1,2,3 into secondary spinloop on BCM2836, BCM2837
 198              	;@ If bootloader is used this will not happen but booting with the
 199              	;@ "OldKernel=1" from 0x0000 this can happen. Core 0 continues on.
 200              	;@"================================================================"
 201 0110 B00F10EE 		mrc p15, 0, r0, c0, c0, 5				;@ Read core id on ARM7 & ARM8
 202 0114 030010E2 		ands r0, r0, #0x3					    ;@ Make core 2 bit bitmask in R0
 203 0118 0400000A 		beq  .cpu0_exit_multicore_park			;@ Core 0 jumps out
 204 011c 98119FE5 		ldr r1, =RPi_CoresReady					;@ Address of CoreReady count
 205 0120 000091E5 		ldr r0, [r1]							;@ Load current core count 
 206 0124 010080E2 		add r0, r0, #1							;@ Add one as core about to go ready
 207 0128 000081E5 		str r0, [r1]							;@ Update CoreReady count
 208 012c 810000EA 		b    SecondarySpin						;@ Jump to setup secondary spin
 209              	.cpu0_exit_multicore_park:
 210              	;@"================================================================"
 211              	;@ Now store initial CPU boot mode and address we might need later.
 212              	;@"================================================================"
 213 0130 88119FE5 		ldr r1, =RPi_BootAddr					;@ Address to hold Boot address
 214 0134 08C04CE2 		sub r12, #8								;@ Subtract op-code offset
 215 0138 00C081E5 		str r12, [r1]							;@ Save the boot address we started at
 216 013c 80119FE5 		ldr r1, =RPi_CPUBootMode				;@ Memory address to save this CPU boot mode
 217 0140 00B081E5 		str r11, [r1]							;@ Save the boot mode we started in
 218              	;@"================================================================"
 219              	;@  Initial CPU core ready so set CoreReady count to 1.
 220              	;@"================================================================"
 221 0144 0100A0E3 		mov r0, #1								;@ Core0 is will be ready
 222 0148 6C119FE5 		ldr r1, =RPi_CoresReady					;@ Memory address to save Cores ready
 223 014c 000081E5 		str r0, [r1]							;@ Set RPi_CoresReady to 1
 224              	;@"================================================================"
 225              	;@ Fetch and hold CPU changed mode. If we changed modes this value
ARM GAS  C:\Users\ldebo\AppData\Local\Temp\ccpehfH9.s 			page 5


 226              	;@ will now reflect a change from the original held RPi_CPUBootMode.
 227              	;@"================================================================"
 228 0150 00200FE1 		mrs r2, CPSR
 229 0154 1F2002E2 		and r2, r2, #0x1F						;@ Clear all but CPU mode bits in register r2
 230 0158 68119FE5 		ldr r1, =RPi_CPUCurrentMode
 231 015c 002081E5 		str r2, [r1]							;@ Hold the changed CPU mode
 232              	;@"================================================================"
 233              	;@ Read the Arm Main CPUID register => sets RPi_CpuId
 234              	;@"================================================================"
 235 0160 64119FE5 		ldr r1, =RPi_CpuId						;@ Address to hold CPU id
 236 0164 100F10EE 		mrc p15, 0, r0, c0, c0, 0				;@ Read Main ID Register
 237 0168 000081E5 		str r0, [r1]							;@ Save CPU Id for interface 
 238              	;@"================================================================"
 239              	;@ Store the compiler mode in RPi_CompileMode
 240              	;@"================================================================"
 241 016c 000020E0 		eor r0, r0, r0;							;@ Zero register
 242              	.if (__ARM_ARCH == 6)						// Compiling for ARM6
 243              		mov r0, #0x06							;@ Compiled for ARM6 CPU
 244              	.endif
 245              	.if (__ARM_ARCH == 7)						// Compiling for ARM7
 246              		mov r0, #0x07							;@ Compiled for ARM7 CPU
 247              	.endif
 248              	.if (__ARM_ARCH == 8)						// Compiling for ARM8
 249 0170 0800A0E3 		mov r0, #0x08							;@ Compiled for ARM8 CPU
 250              	.endif
 251 0174 800080E3 		orr r0, r0, #(4 << 5)					;@ Code is setup to support 4 cores			
 252 0178 50119FE5 		ldr r1, =RPi_CompileMode
 253 017c 000081E5 		str r0, [r1]							;@ Store the compiler mode  
 254              	;;@"================================================================"
 255              	;@ Try Auto-Detect Raspberry PI IO base address at 1st position
 256              	;@"================================================================"
 257 0180 4C219FE5 		ldr r2, =#0x61757830
 258 0184 4C119FE5 		ldr r1, =#0x20215010
 259 0188 000091E5 		ldr r0, [r1]							;@ Fetch value at 0x20215010 being uart0
 260 018c 000052E1 		cmp r2, r0;								;@ Check if we have the value the uart0 will be at reset
 261 0190 0600001A 		bne .not_at_address_1
 262              	;@"================================================================"
 263              	;@  Raspberry PI IO base address was detected as 0x20000000
 264              	;@  RPi_IO_Base_Addr => 0x20000000
 265              	;@"================================================================"
 266 0194 40119FE5 		ldr r1, =RPi_BusAlias
 267 0198 0101A0E3 		mov	r0, #0x40000000
 268 019c 000081E5 		str	r0, [r1]							;@ Hold bus alias
 269 01a0 38119FE5 		ldr r1, =RPi_IO_Base_Addr
 270 01a4 0202A0E3 		mov	r0, #0x20000000
 271 01a8 000081E5 		str	r0, [r1]							;@ Hold the detected address
 272 01ac 0A0000EA 		b .autodetect_done;
 273              	;@"================================================================"
 274              	;@ Try Auto-Detect Raspberry PI IO base address at 2nd position
 275              	;@"================================================================"
 276              	.not_at_address_1:
 277 01b0 2C119FE5 		ldr r1, =#0x3f215010
 278 01b4 000091E5 		ldr r0, [r1]							;@ Fetch value at 0x3f215010
 279 01b8 000052E1 		cmp r2, r0								;@ Check if we have the value the uart0 will be at reset
 280 01bc 0000000A 		beq .At2ndAddress
 281              	;@"================================================================"
 282              	;@ ** Auto-Detected failed, not safe to do anything but deadloop **
ARM GAS  C:\Users\ldebo\AppData\Local\Temp\ccpehfH9.s 			page 6


 283              	;@ Would love to be display an error state but no ability on Pi
 284              	;@"================================================================"
 285              	.pi_detect_fail:
 286 01c0 FEFFFFEA 	    b .pi_detect_fail
 287              	;@"================================================================"
 288              	;@  Raspberry PI IO base address was detected as 0x3f000000
 289              	;@  RPi_IO_Base_Addr => 0x3f000000
 290              	;@"================================================================"
 291              	.At2ndAddress:
 292 01c4 10119FE5 		ldr r1, =RPi_BusAlias
 293 01c8 0301A0E3 		mov	r0, #0xC0000000
 294 01cc 000081E5 		str	r0, [r1]							;@ Hold bus alias
 295              	;@ Pi2 address 0x3f000000
 296 01d0 08119FE5 		ldr r1, =RPi_IO_Base_Addr
 297 01d4 3F04A0E3 		mov	r0, #0x3f000000						;@ Hold the detected address
 298 01d8 000081E5 		str	r0, [r1]
 299              	.autodetect_done:
 300              	;@"================================================================"
 301              	;@  We are getting close to handing over to C so we need to copy the 
 302              	;@  ISR table to position 0x0000 so interrupts can be used if wanted 
 303              	;@"================================================================"
 304 01dc 04019FE5 		ldr r0, = _isr_Table					;@ Address of isr_Table
 305 01e0 0010A0E3 		mov     r1, #0x0000						;@ Destination 0x0000
 306 01e4 FC03B0E8 	    ldmia   r0!,{r2, r3, r4, r5, r6, r7, r8, r9}
 307 01e8 FC03A1E8 	    stmia   r1!,{r2, r3, r4, r5, r6, r7, r8, r9}
 308 01ec FC03B0E8 	    ldmia   r0!,{r2, r3, r4, r5, r6, r7, r8, r9}
 309 01f0 FC03A1E8 	    stmia   r1!,{r2, r3, r4, r5, r6, r7, r8, r9}
 310              	;@"================================================================"
 311              	;@ Now Clear the .BSS segment as the C compiler expects us to do
 312              	;@"================================================================"
 313 01f4 F0009FE5 		ldr   r0, =__bss_start__
 314 01f8 F0109FE5 		ldr   r1, =__bss_end__	
 315 01fc 0020A0E3 		mov   r2, #0
 316              	.clear_bss:
 317 0200 010050E1 	    cmp   r0, r1
 318 0204 020000AA 	    bge   .clear_bss_exit
 319 0208 002080E5 	    str   r2, [r0]
 320 020c 040080E2 		add   r0, r0, #4
 321 0210 FAFFFFEA 	    b .clear_bss
 322              	.clear_bss_exit:
 323              	;@"================================================================"
 324              	;@ Bring Core 1,2,3 to secondary spin if not an ARM6 and bootloaded
 325              	;@"================================================================"
 326 0214 100F10EE 		mrc p15,0,r0,c0,c0,0					;@ Read Main ID Register
 327 0218 74109FE5 		ldr r1, =#ARM6_CPU_ID					;@ fetch ARM6_CPU_ID
 328 021c 000051E1 		cmp r1, r0								;@ Check for match
 329 0220 1600000A 		beq .NoMultiCoreSetup					;@ ARM6 jumps as no multicore
 330 0224 94109FE5 		ldr r1, =RPi_BootAddr					;@ Address to hold Boot address
 331 0228 000091E5 		ldr r0, [r1]							;@ Fetch bootAddress
 332 022c 0219A0E3 		ldr r1, =#0x8000						;@ Check against 0x8000
 333 0230 000051E1 		cmp r1, r0								;@ Check for match	
 334 0234 1100001A 		bne .NoMultiCoreSetup					;@ Not bootladed so jump multicore setup
 335 0238 0111A0E3 	 	mov	r1, #1073741824						;@ 0x40000000
 336 023c B0209FE5 	    ldr r2, =multicore_start				;@ Address of CoreSetup call
 337 0240 9C2081E5 		str	r2, [r1, #156]						;@ Write ExtraCoreSetup to 0x4000009C which signals core1 to jump
 338 0244 70309FE5 	 	ldr r3, =RPi_CoresReady					;@ Address of CoreReady count
 339              	.WaitCore1ACK:
ARM GAS  C:\Users\ldebo\AppData\Local\Temp\ccpehfH9.s 			page 7


 340 0248 001093E5 		ldr	r1, [r3]							;@ Read CoreReady
 341 024c 020051E3 		cmp	r1, #2								;@ Wait for setting of second core ready
 342 0250 FCFFFF0A 		beq	.WaitCore1ACK						;@ Core1 not ready so read again
 343 0254 0111A0E3 	 	mov	r1, #1073741824						;@ 0x40000000
 344 0258 94209FE5 	    ldr r2, =multicore_start				;@ Address of CoreSetup call
 345 025c AC2081E5 		str	r2, [r1, #172]						;@ Write ExtraCoreSetup to 0x400000AC which signals core2 to jump
 346              	.WaitCore2ACK:
 347 0260 001093E5 		ldr	r1, [r3]							;@ Read CoreReady count
 348 0264 030051E3 		cmp	r1, #3								;@ Wair for setting of third core ready
 349 0268 FCFFFF0A 		beq	.WaitCore2ACK						;@ Core2 not ready so read again
 350 026c 0111A0E3 	 	mov	r1, #1073741824						;@ 0x40000000
 351 0270 BC2081E5 		str	r2, [r1, #188]						;@ Write ExtraCoreSetup to 0x400000BC which signals core3 to jump
 352              	.WaitCore3ACK:
 353 0274 001093E5 		ldr	r1, [r3]							;@ Read CoreReady count
 354 0278 040051E3 		cmp	r1, #4								;@ check for ACK
 355 027c FCFFFF0A 		beq	.WaitCore3ACK						;@ Core2 not ready so read again
 356              	.NoMultiCoreSetup:
 357              	;@"================================================================"
 358              	;@ Finally that all done jump to the C compiler entry point
 359              	;@"================================================================"
 360 0280 FEFFFFEB 	   	 bl kernel_main
 361              	hang:
 362 0284 FEFFFFEA 		b hang
 363              	.balign	4
 364 0288 00000000 	.ltorg									;@ Tell assembler ltorg data for this code can go here
 364      00000000 
 364      00000000 
 364      67B70F41 
 364      00000000 
 365              	
 366              	_isr_Table:
 367 02f8 18F09FE5 	    ldr pc, _reset_h
 368 02fc 18F09FE5 	    ldr pc, _undefined_instruction_vector_h
 369 0300 18F09FE5 	    ldr pc, _software_interrupt_vector_h
 370 0304 18F09FE5 	    ldr pc, _prefetch_abort_vector_h
 371 0308 18F09FE5 	    ldr pc, _data_abort_vector_h
 372 030c 18F09FE5 	    ldr pc, _unused_handler_h
 373 0310 18F09FE5 	    ldr pc, _interrupt_vector_h
 374 0314 18F09FE5 	    ldr pc, _fast_interrupt_vector_h
 375              	
 376 0318 00000000 	_reset_h:                           .word   _start
 377 031c 84020000 	_undefined_instruction_vector_h:    .word   hang
 378 0320 84020000 	_software_interrupt_vector_h:       .word   hang
 379 0324 84020000 	_prefetch_abort_vector_h:           .word   hang
 380 0328 84020000 	_data_abort_vector_h:               .word   hang
 381 032c 84020000 	_unused_handler_h:                  .word   hang
 382 0330 14000000 	_interrupt_vector_h:                .word   _irq_handler_stub
 383 0334 84020000 	_fast_interrupt_vector_h:           .word   hang	
 384              	
 385              	;@"+++++++++++++++++++++++++++++++++++++++++++++++++++++++++++++++++++++++++"
 386              	;@    Modified bootloader Spin loop but tolerant on registers R0-R3 for C   
 387              	;@"+++++++++++++++++++++++++++++++++++++++++++++++++++++++++++++++++++++++++"
 388              	.balign	4
 389              	SecondarySpin:
 390 0338 B00F10EE 		mrc     p15, 0, r0, c0, c0, 5
 391 033c 030010E2 		ands r0, r0, #0x3					    // Make core 2 bit bitmask in R0
 392              		
ARM GAS  C:\Users\ldebo\AppData\Local\Temp\ccpehfH9.s 			page 8


 393              	             // Code for supposedly hardware mailbox
 394              	             //ldr r5, =mbox		
 395              		//ldr r5, [r5]		@ mbox
 396              		//add	r5, #(0x400000CC-0x4000008C)	@ mbox
 397              	
 398 0340 0030A0E3 		mov	r3, #0			@ magic
 399              	
 400 0344 3C509FE5 	              ldr r5, =Core0Spin
 401              	
 402              	SecondarySpinLoop:
 403 0348 02F020E3 	             wfe
 404              	
 405              	             // Code for supposedly hardware mailbox
 406              		//ldr	r4, [r5, r0, lsl #4]
 407              	
 408 034c 004195E7 	             ldr	r4, [r5, r0, lsl #2]               
 409              	
 410 0350 030054E1 		cmp	r4, r3
 411 0354 FBFFFF0A 		beq	SecondarySpinLoop
 412              	@ clear mailbox
 413              	             // Code for supposedly hardware mailbox
 414              		//str	r4, [r5, r0, lsl #4]
 415              	
 416 0358 003185E7 		str	r3, [r5, r0, lsl #2] 
 417              	
 418 035c 0000A0E3 		mov	r0, #0
 419 0360 24109FE5 	             ldr r1, =machid		
 420 0364 001091E5 		ldr r1, [r1]		@ BCM2708 machine id
 421 0368 20209FE5 		ldr r2, = atags		
 422 036c 002092E5 		ldr r2, [r2]		@ ATAGS
 423 0370 1CE09FE5 		ldr lr, =SecondarySpin
 424 0374 14FF2FE1 		bx	r4
 425 0378 EEFFFFEA 		b SecondarySpin
 426 037c 8C000040 	mbox: 	.4byte 0x4000008C
 427 0380 420C0000 	machid:	.4byte 3138
 428 0384 00010000 	atags:  .4byte 0x100
 429              	.balign	4
 430 0388 18000000 	.ltorg										;@ Tell assembler ltorg data for this code can go here
 430      80030000 
 430      84030000 
 430      38030000 
 431              	
 432              	.globl EnableInterrupts
 433              	EnableInterrupts:
 434 0398 800008F1 		cpsie i									;@ Enable IRQ
 435 039c 1EFF2FE1 		bx  lr									;@ Return
 436              	
 437              	.globl DisableInterrupts
 438              	DisableInterrupts:
 439 03a0 80000CF1 	    cpsid i									;@ Disable IRQ
 440 03a4 1EFF2FE1 		bx  lr									;@ Return
 441              	
 442              	
 443              	.globl CoreExecute
 444              	CoreExecute:
 445 03a8 FF0010E2 		ands r0, r0, #255
 446 03ac 0800000A 		beq CoreExecuteFail
ARM GAS  C:\Users\ldebo\AppData\Local\Temp\ccpehfH9.s 			page 9


 447 03b0 24309FE5 		ldr r3, =RPi_CoresReady
 448 03b4 002093E5 		ldr r2, [r3]							// Fetch cores ready count
 449 03b8 020050E1 		cmp r0, r2
 450 03bc 0400002A 		bcs	CoreExecuteFail
 451              	
 452              	             // Supposedly hardware mailbox
 453              		//ldr r3, =#0x4000008C					// Load address of spins
 454              		//str r1, [r3, r0, lsl #4]				            // Save caller address
 455              	
 456              	             // Just somewhere in plain normal memory
 457 03c0 18309FE5 	             ldr r3, =Core0Spin
 458 03c4 001183E7 	             str r1, [r3, r0, lsl #2]
 459              	
 460 03c8 04F020E3 		sev
 461 03cc 0100A0E3 		mov r0, #1
 462 03d0 1EFF2FE1 		bx  lr
 463              	CoreExecuteFail:
 464 03d4 0000A0E3 		mov r0, #0
 465 03d8 1EFF2FE1 		bx  lr
 466              	.balign	4
 467 03dc 00000000 	.ltorg										// Tell assembler ltorg data for this code can go here
 467      18000000 
 468              	
 469              	;@"+++++++++++++++++++++++++++++++++++++++++++++++++++++++++++++++++++++++++"
 470              	;@				IRQ HELPER ROUTINES PROVIDE BY RPi-SmartStart API		    
 471              	;@"+++++++++++++++++++++++++++++++++++++++++++++++++++++++++++++++++++++++++"
 472              	/* "PROVIDE C FUNCTION: TimerIrqHandler setTimerIrqAddress ( TimerIrqHandler* ARMaddress);" */
 473              	.section .text.setTimerIrqAddress, "ax", %progbits
 474              	.balign	4
 475              	.globl setTimerIrqAddress;
 476              	.type setTimerIrqAddress, %function
 477              	setTimerIrqAddress:
 478 0000 80000CF1 	    	cpsid i								// Disable irq interrupts as we are clearly changing call
 479 0004 0C109FE5 		ldr r1, =RPi_TimerIrqAddr						// Load address of function to call on interrupt 
 480 0008 002091E5 		ldr r2, [r1]							// Load current irq call address
 481 000c 000081E5 		str r0, [r1]							// Store the new function pointer address we were given
 482 0010 0200A0E1 		mov r0, r2							// return the old call function
 483 0014 1EFF2FE1 		bx  lr								// Return
 484              	.balign	4
 485 0018 28000000 	.ltorg										// Tell assembler ltorg data for this code can go here
 486              	.size	setTimerIrqAddress, .-setTimerIrqAddress
 487              	
 488              	;@"+++++++++++++++++++++++++++++++++++++++++++++++++++++++++++++++++++++++++"
 489              	;@		VC4 GPU ADDRESS HELPER ROUTINES PROVIDE BY RPi-SmartStart API	   
 490              	;@"+++++++++++++++++++++++++++++++++++++++++++++++++++++++++++++++++++++++++"
 491              	
 492              	/* "PROVIDE C FUNCTION: uint32_t ARMaddrToGPUaddr (void* ARMaddress);" */
 493              	.section .text.ARMaddrToGPUaddr, "ax", %progbits
 494              	.balign	4
 495              	.globl ARMaddrToGPUaddr;		
 496              	.type ARMaddrToGPUaddr, %function
 497              	.syntax unified
 498              	.arm
 499              	;@"================================================================"
 500              	;@ ARMaddrToGPUaddr -- Composite Pi1, Pi2 & Pi3 code
 501              	;@ C Function: uint32_t ARMaddrToGPUaddr (void* ARMaddress);
 502              	;@ Entry: R0 will have ARMAddress value
ARM GAS  C:\Users\ldebo\AppData\Local\Temp\ccpehfH9.s 			page 10


 503              	;@"================================================================"
 504              	ARMaddrToGPUaddr:
 505 0000 08109FE5 		ldr r1, =RPi_BusAlias
 506 0004 001091E5 	    ldr r1,[r1]								;@ Fetch bus alias	
 507 0008 010080E1 		orr r0, r0, r1							;@ Create bus address
 508 000c 1EFF2FE1 		bx   lr									;@ Return
 509              	.balign	4
 510 0010 00000000 	.ltorg										;@ Tell assembler ltorg data for this code can go here
 511              	.size	ARMaddrToGPUaddr, .-ARMaddrToGPUaddr
 512              	
 513              	
 514              	/* "PROVIDE C FUNCTION: uint32_t GPUaddrToARMaddr (uint32_t BUSaddress);" */
 515              	.section .text.GPUaddrToARMaddr, "ax", %progbits
 516              	.balign	4
 517              	.globl GPUaddrToARMaddr;		
 518              	.type GPUaddrToARMaddr, %function
 519              	.syntax unified
 520              	.arm
 521              	;@"================================================================"
 522              	;@ GPUaddrToARMaddr -- Composite Pi1, Pi2 & Pi3 code
 523              	;@ C Function: uint32_t GPUaddrToARMaddr (uint32_t BUSaddress);
 524              	;@ Entry: R0 will have GPUAddress value
 525              	;@"================================================================"
 526              	GPUaddrToARMaddr:
 527 0000 08109FE5 		ldr r1, =RPi_BusAlias
 528 0004 001091E5 	    ldr r1,[r1]								;@ Fetch bus alias	
 529 0008 0100C0E1 		bic r0, r0, r1							;@ Create arm address
 530 000c 1EFF2FE1 		bx   lr									;@ Return
 531              	.balign	4
 532 0010 00000000 	.ltorg										;@ Tell assembler ltorg data for this code can go here
 533              	.size	GPUaddrToARMaddr, .-GPUaddrToARMaddr
 534              	
 535              	
 536              	/* Re-entrant interrupt handler stub */
 537              	/* http://infocenter.arm.com/help/index.jsp?topic=/com.arm.doc.faqs/ka13552.html */
 538              	_irq_handler_stub:
 539 0014 04E04EE2 	    sub lr, lr, #4							;@ Use SRS to save LR_irq and SPSP_irq
 540 0018 13056DF9 	    srsfd sp!, #0x13						;@ on to the SVC mode stack
 541              	
 542 001c 130002F1 	    cps #0x13								;@ Switch to SVC mode
 543 0020 0F102DE9 	    push {r0-r3, r12}						;@ Store AAPCS regs on to SVC stack
 544              	
 545 0024 0D10A0E1 	    mov r1, sp
 546 0028 041001E2 	    and r1, r1, #4							;@ Ensure 8-byte stack alignment…
 547 002c 01D04DE0 	    sub sp, sp, r1							;@ …adjust stack as necessary
 548 0030 02402DE9 	    push {r1, lr}							;@ Store adjustment and LR_svc
 549              	
 550              	
 551              		//  if (IRQ->IRQBasicPending.Timer_IRQ_pending) {				// Check irq on timer is triggered
 552              		//	  ARMTIMER->Clear = 1;										// Write any value to register to clear irq ... PAGE 198
 553              		//	  IRQ->IRQPending1 &= ~0x1;									// Clear timer pending irq bit 0
 554              		//  }
 555 0034 54309FE5 		ldr	r3, = RPi_IO_Base_Addr
 556 0038 003093E5 		ldr	r3, [r3]							// Fetch Pi IO base Address
 557 003c B22C83E2 		add	r2, r3, #45568						// Add 0xB200
 558 0040 001092E5 		ldr	r1, [r2]							// IRQ->IRQBasicPending
 559 0044 010011E3 		tst	r1, #1								// If timer IRQ pending not yet pending
ARM GAS  C:\Users\ldebo\AppData\Local\Temp\ccpehfH9.s 			page 11


 560 0048 0500000A 		beq	.NoTimerIrq							// Nothing to do
 561 004c 2D3B83E2 		add	r3, r3, #46080						// Add 0xB400
 562 0050 0110A0E3 		mov	r1, #1								// Load #1
 563 0054 0C1083E5 		str	r1, [r3, #12]						// Write to clear register
 564 0058 043092E5 		ldr	r3, [r2, #4]						// Fetch Irq pending
 565 005c 0130C3E3 		bic	r3, r3, #1							// Clear pending bit
 566 0060 043082E5 		str	r3, [r2, #4]						// Write value back
 567              	.NoTimerIrq:
 568              	
 569 0064 800008F1 	    cpsie i									;@ Enable IRQ
 570              	
 571 0068 24009FE5 	  	ldr r0, =RPi_TimerIrqAddr				// Address to TimerIrqAddr
 572 006c 000090E5 		ldr r0, [r0]							// Load TimerIrqAddr value
 573 0070 000050E3 		cmp r0, #0
 574 0074 0000000A 		beq no_irqset							// If zero no irq set 
 575 0078 30FF2FE1 		blx r0									// Call Irqhandler that has been set  
 576              	no_irqset:	
 577              	
 578 007c 80000CF1 	    cpsid i									;@ Disable IRQ
 579              	
 580 0080 0240BDE8 	    pop {r1, lr}							;@ Restore LR_svc
 581 0084 01D08DE0 	    add sp, sp, r1							;@ Un-adjust stack
 582              	
 583 0088 0F10BDE8 	    pop {r0-r3, r12}						;@ Restore AAPCS registers
 584 008c 000ABDF8 	    rfefd sp!								;@ Return from the SVC mode stack
 585              	
 586              	.section .text._sbrk, "ax", %progbits
 587              	.balign	4
 588              	.globl _sbrk;			
 589              	.type _sbrk, %function
 590              	.syntax unified
 591              	.arm
 592              	_sbrk:
 593 0000 1C209FE5 	        ldr     r2, =RPi_Heap
 594 0004 1C109FE5 	        ldr     r1, =_end
 595 0008 003092E5 	        ldr     r3, [r2]
 596 000c 000053E3 	        cmp     r3, #0
 597 0010 0130A001 	        moveq   r3, r1
 598 0014 000083E0 	        add     r0, r3, r0
 599 0018 000082E5 	        str     r0, [r2]
 600 001c 0300A0E1 	        mov     r0, r3
 601 0020 1EFF2FE1 	        bx      lr
 602              	.balign	4
 603 0024 00000000 	.ltorg										;@ Tell assembler ltorg data for this code can go here
 603      00000000 
 604              	.size	_sbrk, .-_sbrk
 605              	
 606              	;@"+++++++++++++++++++++++++++++++++++++++++++++++++++++++++++++++++++++++++"
 607              	;@     	          DATA FOR SMARTSTART32 EXPOSED TO INTERFACE 
 608              	;@"+++++++++++++++++++++++++++++++++++++++++++++++++++++++++++++++++++++++++"
 609              	.section ".data.smartstart32", "aw"
 610              	.balign 4
 611              	
 612              	.globl RPi_IO_Base_Addr;				// Make sure Pi_IO_Base_Addr label is global
 613 0000 00000000 	RPi_IO_Base_Addr : .4byte 0;			// Peripheral Base addr is 4 byte variable in 32bit mode
 614              	
 615              	.globl RPi_BootAddr;					// Make sure RPi_BootAddr label is global
ARM GAS  C:\Users\ldebo\AppData\Local\Temp\ccpehfH9.s 			page 12


 616 0004 00000000 	RPi_BootAddr : .4byte 0;				// CPU boot address is 4 byte variable in 32bit mode
 617              	
 618              	.globl RPi_CoresReady;					// Make sure RPi_CoresReady label is global
 619 0008 00000000 	RPi_CoresReady : .4byte 0;				// CPU cores ready for use is 4 byte variable in 32bit mode
 620              	
 621              	.globl RPi_CPUBootMode;					// Make sure RPi_CPUBootMode label is global
 622 000c 00000000 	RPi_CPUBootMode : .4byte 0;				// CPU Boot Mode is 4 byte variable in 32bit mode
 623              	
 624              	.globl RPi_CpuId;						// Make sure RPi_CpuId label is global
 625 0010 00000000 	RPi_CpuId : .4byte 0;					// CPU Id is 4 byte variable in 32bit mode
 626              	
 627              	.globl RPi_CompileMode;					// Make sure RPi_CompileMode label is global
 628 0014 00000000 	RPi_CompileMode : .4byte 0;				// Compile mode is 4 byte variable in 32bit mode
 629              	
 630 0018 00000000 	Core0Spin: .4byte 0;
 631 001c 00000000 	Core1Spin: .4byte 0;
 632 0020 00000000 	Core2Spin: .4byte 0;
 633 0024 00000000 	Core3Spin: .4byte 0;
 634              	
 635              	;@"+++++++++++++++++++++++++++++++++++++++++++++++++++++++++++++++++++++++++"
 636              	;@        	   DATA FOR SMARTSTART32  NOT EXPOSED TO INTERFACE 
 637              	;@"+++++++++++++++++++++++++++++++++++++++++++++++++++++++++++++++++++++++++"
 638 0028 00000000 	RPi_TimerIrqAddr : .4byte 0;			// Timer Irq Address
ARM GAS  C:\Users\ldebo\AppData\Local\Temp\ccpehfH9.s 			page 13


DEFINED SYMBOLS
      SmartStart32.S:44     *ABS*:410fb767 ARM6_CPU_ID
      SmartStart32.S:45     *ABS*:410fc073 ARM7_CPU_ID
      SmartStart32.S:46     *ABS*:410fd034 ARM8_CPU_ID
      SmartStart32.S:51     *ABS*:00000011 CPU_FIQMODE
      SmartStart32.S:52     *ABS*:00000012 CPU_IRQMODE
      SmartStart32.S:53     *ABS*:00000013 CPU_SVCMODE
      SmartStart32.S:54     *ABS*:0000001a CPU_HYPMODE
      SmartStart32.S:59     *ABS*:00000080 I_Bit
      SmartStart32.S:60     *ABS*:00000040 F_Bit
      SmartStart32.S:65     *ABS*:000000d1 CPU_FIQMODE_VALUE
      SmartStart32.S:66     *ABS*:000000d2 CPU_IRQMODE_VALUE
      SmartStart32.S:67     *ABS*:000000d3 CPU_SVCMODE_VALUE
      SmartStart32.S:73     .data.smartstart:00000000 $d
      SmartStart32.S:75     .data.smartstart:00000000 RPi_BusAlias
      SmartStart32.S:80     .data.smartstart:00000004 RPi_CPUCurrentMode
      SmartStart32.S:83     .data.smartstart:00000008 RPi_Heap
      SmartStart32.S:86     .text.startup:00000000 $a
      SmartStart32.S:90     .text.startup:00000000 _start
      SmartStart32.S:100    .text.startup:0000000c multicore_start
      SmartStart32.S:115    .text.startup:00000034 .NotInHypMode
      SmartStart32.S:113    .text.startup:0000002c $d
      SmartStart32.S:119    .text.startup:00000034 $a
      SmartStart32.S:142    .text.startup:00000090 set_svc_stack
      SmartStart32.S:169    .text.startup:000000d8 .free_to_enable_fpu1
      SmartStart32.S:178    *ABS*:00000004 SCTLR_ENABLE_DATA_CACHE
      SmartStart32.S:179    *ABS*:00000800 SCTLR_ENABLE_BRANCH_PREDICTION
      SmartStart32.S:180    *ABS*:00001000 SCTLR_ENABLE_INSTRUCTION_CACHE
      SmartStart32.S:209    .text.startup:00000130 .cpu0_exit_multicore_park
      SmartStart32.S:619    .data.smartstart32:00000008 RPi_CoresReady
      SmartStart32.S:389    .text.startup:00000338 SecondarySpin
      SmartStart32.S:616    .data.smartstart32:00000004 RPi_BootAddr
      SmartStart32.S:622    .data.smartstart32:0000000c RPi_CPUBootMode
      SmartStart32.S:625    .data.smartstart32:00000010 RPi_CpuId
      SmartStart32.S:628    .data.smartstart32:00000014 RPi_CompileMode
      SmartStart32.S:276    .text.startup:000001b0 .not_at_address_1
      SmartStart32.S:613    .data.smartstart32:00000000 RPi_IO_Base_Addr
      SmartStart32.S:299    .text.startup:000001dc .autodetect_done
      SmartStart32.S:291    .text.startup:000001c4 .At2ndAddress
      SmartStart32.S:285    .text.startup:000001c0 .pi_detect_fail
      SmartStart32.S:366    .text.startup:000002f8 _isr_Table
      SmartStart32.S:316    .text.startup:00000200 .clear_bss
      SmartStart32.S:322    .text.startup:00000214 .clear_bss_exit
      SmartStart32.S:356    .text.startup:00000280 .NoMultiCoreSetup
      SmartStart32.S:339    .text.startup:00000248 .WaitCore1ACK
      SmartStart32.S:346    .text.startup:00000260 .WaitCore2ACK
      SmartStart32.S:352    .text.startup:00000274 .WaitCore3ACK
      SmartStart32.S:361    .text.startup:00000284 hang
      SmartStart32.S:364    .text.startup:00000288 $d
      SmartStart32.S:376    .text.startup:00000318 _reset_h
      SmartStart32.S:367    .text.startup:000002f8 $a
      SmartStart32.S:377    .text.startup:0000031c _undefined_instruction_vector_h
      SmartStart32.S:378    .text.startup:00000320 _software_interrupt_vector_h
      SmartStart32.S:379    .text.startup:00000324 _prefetch_abort_vector_h
      SmartStart32.S:380    .text.startup:00000328 _data_abort_vector_h
      SmartStart32.S:381    .text.startup:0000032c _unused_handler_h
      SmartStart32.S:382    .text.startup:00000330 _interrupt_vector_h
ARM GAS  C:\Users\ldebo\AppData\Local\Temp\ccpehfH9.s 			page 14


      SmartStart32.S:383    .text.startup:00000334 _fast_interrupt_vector_h
      SmartStart32.S:376    .text.startup:00000318 $d
      SmartStart32.S:538    .text.GPUaddrToARMaddr:00000014 _irq_handler_stub
      SmartStart32.S:388    .text.startup:00000338 $a
      SmartStart32.S:630    .data.smartstart32:00000018 Core0Spin
      SmartStart32.S:402    .text.startup:00000348 SecondarySpinLoop
      SmartStart32.S:427    .text.startup:00000380 machid
      SmartStart32.S:428    .text.startup:00000384 atags
      SmartStart32.S:426    .text.startup:0000037c mbox
      SmartStart32.S:426    .text.startup:0000037c $d
      SmartStart32.S:430    .text.startup:00000388 $d
      SmartStart32.S:433    .text.startup:00000398 EnableInterrupts
      SmartStart32.S:434    .text.startup:00000398 $a
      SmartStart32.S:438    .text.startup:000003a0 DisableInterrupts
      SmartStart32.S:444    .text.startup:000003a8 CoreExecute
      SmartStart32.S:463    .text.startup:000003d4 CoreExecuteFail
      SmartStart32.S:467    .text.startup:000003dc $d
      SmartStart32.S:474    .text.setTimerIrqAddress:00000000 $a
      SmartStart32.S:477    .text.setTimerIrqAddress:00000000 setTimerIrqAddress
      SmartStart32.S:638    .data.smartstart32:00000028 RPi_TimerIrqAddr
      SmartStart32.S:485    .text.setTimerIrqAddress:00000018 $d
      SmartStart32.S:494    .text.ARMaddrToGPUaddr:00000000 $a
      SmartStart32.S:504    .text.ARMaddrToGPUaddr:00000000 ARMaddrToGPUaddr
      SmartStart32.S:510    .text.ARMaddrToGPUaddr:00000010 $d
      SmartStart32.S:516    .text.GPUaddrToARMaddr:00000000 $a
      SmartStart32.S:526    .text.GPUaddrToARMaddr:00000000 GPUaddrToARMaddr
      SmartStart32.S:532    .text.GPUaddrToARMaddr:00000010 $d
      SmartStart32.S:539    .text.GPUaddrToARMaddr:00000014 $a
      SmartStart32.S:567    .text.GPUaddrToARMaddr:00000064 .NoTimerIrq
      SmartStart32.S:576    .text.GPUaddrToARMaddr:0000007c no_irqset
      SmartStart32.S:587    .text._sbrk:00000000 $a
      SmartStart32.S:592    .text._sbrk:00000000 _sbrk
      SmartStart32.S:603    .text._sbrk:00000024 $d
      SmartStart32.S:610    .data.smartstart32:00000000 $d
      SmartStart32.S:631    .data.smartstart32:0000001c Core1Spin
      SmartStart32.S:632    .data.smartstart32:00000020 Core2Spin
      SmartStart32.S:633    .data.smartstart32:00000024 Core3Spin
      SmartStart32.S:638    .text.GPUaddrToARMaddr:00000090 $d

UNDEFINED SYMBOLS
__SVC_stack_core0
__FIQ_stack_core0
__IRQ_stack_core0
__SVC_stack_core1
__FIQ_stack_core1
__IRQ_stack_core1
__SVC_stack_core2
__FIQ_stack_core2
__IRQ_stack_core2
__SVC_stack_core3
__FIQ_stack_core3
__IRQ_stack_core3
__bss_start__
__bss_end__
kernel_main
_end
ARM GAS  C:\Users\ldebo\AppData\Local\Temp\ccpehfH9.s 			page 1


   1              		.arch armv8-a
   2              		.eabi_attribute 28, 1
   3              		.eabi_attribute 20, 1
   4              		.eabi_attribute 21, 1
   5              		.eabi_attribute 23, 3
   6              		.eabi_attribute 24, 1
   7              		.eabi_attribute 25, 1
   8              		.eabi_attribute 26, 1
   9              		.eabi_attribute 30, 2
  10              		.eabi_attribute 34, 0
  11              		.eabi_attribute 18, 4
  12              		.file	"rpi-SmartStart.c"
  13              		.text
  14              		.align	2
  15              		.syntax unified
  16              		.arm
  17              		.fpu neon-vfpv4
  18              		.type	ClearArea16, %function
  19              	ClearArea16:
  20              		@ args = 4, pretend = 0, frame = 0
  21              		@ frame_needed = 0, uses_anonymous_args = 0
  22 0000 F0472DE9 		push	{r4, r5, r6, r7, r8, r9, r10, lr}
  23 0004 048090E5 		ldr	r8, [r0, #4]
  24 0008 20909DE5 		ldr	r9, [sp, #32]
  25 000c 005090E5 		ldr	r5, [r0]
  26 0010 029059E0 		subs	r9, r9, r2
  27 0014 2AE0D0E5 		ldrb	lr, [r0, #42]	@ zero_extendqisi2
  28 0018 921822E0 		mla	r2, r2, r8, r1
  29 001c 29C0D0E5 		ldrb	ip, [r0, #41]	@ zero_extendqisi2
  30 0020 2840D0E5 		ldrb	r4, [r0, #40]	@ zero_extendqisi2
  31 0024 825085E0 		add	r5, r5, r2, lsl #1
  32 0028 F087BD08 		popeq	{r4, r5, r6, r7, r8, r9, r10, pc}
  33 002c 013053E0 		subs	r3, r3, r1
  34 0030 8880A0E1 		lsl	r8, r8, #1
  35 0034 F087BD08 		popeq	{r4, r5, r6, r7, r8, r9, r10, pc}
  36 0038 2C01A0E1 		lsr	r0, ip, #2
  37 003c AEE1A0E1 		lsr	lr, lr, #3
  38 0040 07C000E2 		and	ip, r0, #7
  39 0044 A441A0E1 		lsr	r4, r4, #3
  40 0048 8370A0E1 		lsl	r7, r3, #1
  41 004c A001A0E1 		lsr	r0, r0, #3
  42 0050 0060A0E3 		mov	r6, #0
  43 0054 8CC2A0E1 		lsl	ip, ip, #5
  44              	.L3:
  45 0058 0520A0E1 		mov	r2, r5
  46 005c 071085E0 		add	r1, r5, r7
  47              	.L4:
  48 0060 0130D2E5 		ldrb	r3, [r2, #1]	@ zero_extendqisi2
  49 0064 0CA084E1 		orr	r10, r4, ip
  50 0068 00A0C2E5 		strb	r10, [r2]
  51 006c 022082E2 		add	r2, r2, #2
  52 0070 0730C3E3 		bic	r3, r3, #7
  53 0074 003083E1 		orr	r3, r3, r0
  54 0078 9E31C7E7 		bfi	r3, lr, #3, #5
  55 007c 013042E5 		strb	r3, [r2, #-1]
  56 0080 020051E1 		cmp	r1, r2
  57 0084 F5FFFF1A 		bne	.L4
ARM GAS  C:\Users\ldebo\AppData\Local\Temp\ccpehfH9.s 			page 2


  58 0088 016086E2 		add	r6, r6, #1
  59 008c 085085E0 		add	r5, r5, r8
  60 0090 090056E1 		cmp	r6, r9
  61 0094 EFFFFF1A 		bne	.L3
  62 0098 F087BDE8 		pop	{r4, r5, r6, r7, r8, r9, r10, pc}
  63              		.size	ClearArea16, .-ClearArea16
  64              		.align	2
  65              		.syntax unified
  66              		.arm
  67              		.fpu neon-vfpv4
  68              		.type	VertLine16, %function
  69              	VertLine16:
  70              		@ args = 0, pretend = 0, frame = 0
  71              		@ frame_needed = 0, uses_anonymous_args = 0
  72 009c F0472DE9 		push	{r4, r5, r6, r7, r8, r9, r10, lr}
  73 00a0 000051E3 		cmp	r1, #0
  74 00a4 045090E5 		ldr	r5, [r0, #4]
  75 00a8 149090E5 		ldr	r9, [r0, #20]
  76 00ac 10E090E5 		ldr	lr, [r0, #16]
  77 00b0 8550A0E1 		lsl	r5, r5, #1
  78 00b4 00C090E5 		ldr	ip, [r0]
  79 00b8 2260D0E5 		ldrb	r6, [r0, #34]	@ zero_extendqisi2
  80 00bc 2140D0E5 		ldrb	r4, [r0, #33]	@ zero_extendqisi2
  81 00c0 990503E0 		mul	r3, r9, r5
  82 00c4 2070D0E5 		ldrb	r7, [r0, #32]	@ zero_extendqisi2
  83 00c8 8E3083E0 		add	r3, r3, lr, lsl #1
  84 00cc 0C3083E0 		add	r3, r3, ip
  85 00d0 1300000A 		beq	.L18
  86 00d4 2441A0E1 		lsr	r4, r4, #2
  87 00d8 010052E3 		cmp	r2, #1
  88 00dc 078004E2 		and	r8, r4, #7
  89 00e0 A661A0E1 		lsr	r6, r6, #3
  90 00e4 A771A0E1 		lsr	r7, r7, #3
  91 00e8 A441A0E1 		lsr	r4, r4, #3
  92 00ec 00E0A0E3 		mov	lr, #0
  93 00f0 8882A0E1 		lsl	r8, r8, #5
  94 00f4 0D00000A 		beq	.L19
  95              	.L17:
  96 00f8 01C0D3E5 		ldrb	ip, [r3, #1]	@ zero_extendqisi2
  97 00fc 01E08EE2 		add	lr, lr, #1
  98 0100 0E0051E1 		cmp	r1, lr
  99 0104 08A087E1 		orr	r10, r7, r8
 100 0108 07C0CCE3 		bic	ip, ip, #7
 101 010c 00A0C3E5 		strb	r10, [r3]
 102 0110 04C08CE1 		orr	ip, ip, r4
 103 0114 96C1C7E7 		bfi	ip, r6, #3, #5
 104 0118 01C0C3E5 		strb	ip, [r3, #1]
 105 011c 053043E0 		sub	r3, r3, r5
 106 0120 F4FFFF1A 		bne	.L17
 107              	.L18:
 108 0124 919221E0 		mla	r1, r1, r2, r9
 109 0128 141080E5 		str	r1, [r0, #20]
 110 012c F087BDE8 		pop	{r4, r5, r6, r7, r8, r9, r10, pc}
 111              	.L19:
 112 0130 01C0D3E5 		ldrb	ip, [r3, #1]	@ zero_extendqisi2
 113 0134 01E08EE2 		add	lr, lr, #1
 114 0138 0E0051E1 		cmp	r1, lr
ARM GAS  C:\Users\ldebo\AppData\Local\Temp\ccpehfH9.s 			page 3


 115 013c 08A087E1 		orr	r10, r7, r8
 116 0140 07C0CCE3 		bic	ip, ip, #7
 117 0144 00A0C3E5 		strb	r10, [r3]
 118 0148 04C08CE1 		orr	ip, ip, r4
 119 014c 96C1C7E7 		bfi	ip, r6, #3, #5
 120 0150 01C0C3E5 		strb	ip, [r3, #1]
 121 0154 053083E0 		add	r3, r3, r5
 122 0158 F4FFFF1A 		bne	.L19
 123 015c F0FFFFEA 		b	.L18
 124              		.size	VertLine16, .-VertLine16
 125              		.align	2
 126              		.syntax unified
 127              		.arm
 128              		.fpu neon-vfpv4
 129              		.type	HorzLine16, %function
 130              	HorzLine16:
 131              		@ args = 0, pretend = 0, frame = 0
 132              		@ frame_needed = 0, uses_anonymous_args = 0
 133 0160 04C090E5 		ldr	ip, [r0, #4]
 134 0164 000051E3 		cmp	r1, #0
 135 0168 F0472DE9 		push	{r4, r5, r6, r7, r8, r9, r10, lr}
 136 016c 109090E5 		ldr	r9, [r0, #16]
 137 0170 14E090E5 		ldr	lr, [r0, #20]
 138 0174 8CC0A0E1 		lsl	ip, ip, #1
 139 0178 2250D0E5 		ldrb	r5, [r0, #34]	@ zero_extendqisi2
 140 017c 8930A0E1 		lsl	r3, r9, #1
 141 0180 2140D0E5 		ldrb	r4, [r0, #33]	@ zero_extendqisi2
 142 0184 2060D0E5 		ldrb	r6, [r0, #32]	@ zero_extendqisi2
 143 0188 9E3C2CE0 		mla	ip, lr, ip, r3
 144 018c 003090E5 		ldr	r3, [r0]
 145 0190 03C08CE0 		add	ip, ip, r3
 146 0194 1200000A 		beq	.L27
 147 0198 2441A0E1 		lsr	r4, r4, #2
 148 019c A551A0E1 		lsr	r5, r5, #3
 149 01a0 077004E2 		and	r7, r4, #7
 150 01a4 A661A0E1 		lsr	r6, r6, #3
 151 01a8 A441A0E1 		lsr	r4, r4, #3
 152 01ac 8280A0E1 		lsl	r8, r2, #1
 153 01b0 00E0A0E3 		mov	lr, #0
 154 01b4 8772A0E1 		lsl	r7, r7, #5
 155              	.L26:
 156 01b8 0130DCE5 		ldrb	r3, [ip, #1]	@ zero_extendqisi2
 157 01bc 01E08EE2 		add	lr, lr, #1
 158 01c0 0E0051E1 		cmp	r1, lr
 159 01c4 07A086E1 		orr	r10, r6, r7
 160 01c8 0730C3E3 		bic	r3, r3, #7
 161 01cc 00A0CCE5 		strb	r10, [ip]
 162 01d0 043083E1 		orr	r3, r3, r4
 163 01d4 9531C7E7 		bfi	r3, r5, #3, #5
 164 01d8 0130CCE5 		strb	r3, [ip, #1]
 165 01dc 08C08CE0 		add	ip, ip, r8
 166 01e0 F4FFFF1A 		bne	.L26
 167              	.L27:
 168 01e4 919221E0 		mla	r1, r1, r2, r9
 169 01e8 101080E5 		str	r1, [r0, #16]
 170 01ec F087BDE8 		pop	{r4, r5, r6, r7, r8, r9, r10, pc}
 171              		.size	HorzLine16, .-HorzLine16
ARM GAS  C:\Users\ldebo\AppData\Local\Temp\ccpehfH9.s 			page 4


 172              		.align	2
 173              		.syntax unified
 174              		.arm
 175              		.fpu neon-vfpv4
 176              		.type	DiagLine16, %function
 177              	DiagLine16:
 178              		@ args = 4, pretend = 0, frame = 16
 179              		@ frame_needed = 0, uses_anonymous_args = 0
 180 01f0 F04F2DE9 		push	{r4, r5, r6, r7, r8, r9, r10, fp, lr}
 181 01f4 020051E1 		cmp	r1, r2
 182 01f8 04B090E5 		ldr	fp, [r0, #4]
 183 01fc 14D04DE2 		sub	sp, sp, #20
 184 0200 14C090E5 		ldr	ip, [r0, #20]
 185 0204 0120A031 		movcc	r2, r1
 186 0208 000051E3 		cmp	r1, #0
 187 020c 0CE0A0E1 		mov	lr, ip
 188 0210 2270D0E5 		ldrb	r7, [r0, #34]	@ zero_extendqisi2
 189 0214 04308DE5 		str	r3, [sp, #4]
 190 0218 103090E5 		ldr	r3, [r0, #16]
 191 021c 0CC08DE5 		str	ip, [sp, #12]
 192 0220 8BC0A0E1 		lsl	ip, fp, #1
 193 0224 08308DE5 		str	r3, [sp, #8]
 194 0228 8330A0E1 		lsl	r3, r3, #1
 195 022c 2160D0E5 		ldrb	r6, [r0, #33]	@ zero_extendqisi2
 196 0230 9E3C2CE0 		mla	ip, lr, ip, r3
 197 0234 003090E5 		ldr	r3, [r0]
 198 0238 2080D0E5 		ldrb	r8, [r0, #32]	@ zero_extendqisi2
 199 023c 03C08CE0 		add	ip, ip, r3
 200 0240 1B00000A 		beq	.L35
 201 0244 38309DE5 		ldr	r3, [sp, #56]
 202 0248 2661A0E1 		lsr	r6, r6, #2
 203 024c 079006E2 		and	r9, r6, #7
 204 0250 0050A0E3 		mov	r5, #0
 205 0254 A771A0E1 		lsr	r7, r7, #3
 206 0258 A881A0E1 		lsr	r8, r8, #3
 207 025c 8330A0E1 		lsl	r3, r3, #1
 208 0260 A661A0E1 		lsr	r6, r6, #3
 209 0264 8992A0E1 		lsl	r9, r9, #5
 210 0268 05E0A0E1 		mov	lr, r5
 211 026c 9B030BE0 		mul	fp, fp, r3
 212 0270 04309DE5 		ldr	r3, [sp, #4]
 213 0274 83A0A0E1 		lsl	r10, r3, #1
 214              	.L34:
 215 0278 0130DCE5 		ldrb	r3, [ip, #1]	@ zero_extendqisi2
 216 027c 02E08EE0 		add	lr, lr, r2
 217 0280 094088E1 		orr	r4, r8, r9
 218 0284 0E0051E1 		cmp	r1, lr
 219 0288 0730C3E3 		bic	r3, r3, #7
 220 028c 015085E2 		add	r5, r5, #1
 221 0290 063083E1 		orr	r3, r3, r6
 222 0294 0040CCE5 		strb	r4, [ip]
 223 0298 9731C7E7 		bfi	r3, r7, #3, #5
 224 029c 01E04E90 		subls	lr, lr, r1
 225 02a0 0130CCE5 		strb	r3, [ip, #1]
 226 02a4 0AC08CE0 		add	ip, ip, r10
 227 02a8 0BC08C90 		addls	ip, ip, fp
 228 02ac 050051E1 		cmp	r1, r5
ARM GAS  C:\Users\ldebo\AppData\Local\Temp\ccpehfH9.s 			page 5


 229 02b0 F0FFFF1A 		bne	.L34
 230              	.L35:
 231 02b4 08109DE9 		ldmib	sp, {r3, ip}
 232 02b8 91C321E0 		mla	r1, r1, r3, ip
 233 02bc 38309DE5 		ldr	r3, [sp, #56]
 234 02c0 0CC09DE5 		ldr	ip, [sp, #12]
 235 02c4 101080E5 		str	r1, [r0, #16]
 236 02c8 92C322E0 		mla	r2, r2, r3, ip
 237 02cc 142080E5 		str	r2, [r0, #20]
 238 02d0 14D08DE2 		add	sp, sp, #20
 239              		@ sp needed
 240 02d4 F08FBDE8 		pop	{r4, r5, r6, r7, r8, r9, r10, fp, pc}
 241              		.size	DiagLine16, .-DiagLine16
 242              		.align	2
 243              		.syntax unified
 244              		.arm
 245              		.fpu neon-vfpv4
 246              		.type	WriteChar16, %function
 247              	WriteChar16:
 248              		@ args = 0, pretend = 0, frame = 24
 249              		@ frame_needed = 0, uses_anonymous_args = 0
 250 02d8 F04F2DE9 		push	{r4, r5, r6, r7, r8, r9, r10, fp, lr}
 251 02dc 003000E3 		movw	r3, #:lower16:.LANCHOR0
 252 02e0 003040E3 		movt	r3, #:upper16:.LANCHOR0
 253 02e4 1CD04DE2 		sub	sp, sp, #28
 254 02e8 10C090E5 		ldr	ip, [r0, #16]
 255 02ec 012283E0 		add	r2, r3, r1, lsl #4
 256 02f0 04A090E5 		ldr	r10, [r0, #4]
 257 02f4 0230A0E1 		mov	r3, r2
 258 02f8 042042E2 		sub	r2, r2, #4
 259 02fc 145090E5 		ldr	r5, [r0, #20]
 260 0300 0C3083E2 		add	r3, r3, #12
 261 0304 08208DE5 		str	r2, [sp, #8]
 262 0308 0020A0E1 		mov	r2, r0
 263 030c 22B0D0E5 		ldrb	fp, [r0, #34]	@ zero_extendqisi2
 264 0310 8AA0A0E1 		lsl	r10, r10, #1
 265 0314 14008DE5 		str	r0, [sp, #20]
 266 0318 8C00A0E1 		lsl	r0, ip, #1
 267 031c 10C08DE5 		str	ip, [sp, #16]
 268 0320 02C0A0E1 		mov	ip, r2
 269 0324 2110D2E5 		ldrb	r1, [r2, #33]	@ zero_extendqisi2
 270 0328 950A25E0 		mla	r5, r5, r10, r0
 271 032c 2020D2E5 		ldrb	r2, [r2, #32]	@ zero_extendqisi2
 272 0330 ABB1A0E1 		lsr	fp, fp, #3
 273 0334 0C308DE5 		str	r3, [sp, #12]
 274 0338 2690DCE5 		ldrb	r9, [ip, #38]	@ zero_extendqisi2
 275 033c 2111A0E1 		lsr	r1, r1, #2
 276 0340 00309CE5 		ldr	r3, [ip]
 277 0344 A221A0E1 		lsr	r2, r2, #3
 278 0348 2580DCE5 		ldrb	r8, [ip, #37]	@ zero_extendqisi2
 279 034c 2470DCE5 		ldrb	r7, [ip, #36]	@ zero_extendqisi2
 280 0350 035085E0 		add	r5, r5, r3
 281 0354 08309DE5 		ldr	r3, [sp, #8]
 282 0358 A991A0E1 		lsr	r9, r9, #3
 283 035c 2881A0E1 		lsr	r8, r8, #2
 284 0360 00108DE5 		str	r1, [sp]
 285 0364 A771A0E1 		lsr	r7, r7, #3
ARM GAS  C:\Users\ldebo\AppData\Local\Temp\ccpehfH9.s 			page 6


 286 0368 04208DE5 		str	r2, [sp, #4]
 287              	.L43:
 288 036c 04E0B3E5 		ldr	lr, [r3, #4]!
 289 0370 0000A0E3 		mov	r0, #0
 290 0374 08308DE5 		str	r3, [sp, #8]
 291              	.L42:
 292 0378 00005EE3 		cmp	lr, #0
 293 037c 0810A0E1 		mov	r1, r8
 294 0380 0730A0E1 		mov	r3, r7
 295 0384 072000E2 		and	r2, r0, #7
 296 0388 0940A0E1 		mov	r4, r9
 297 038c 010080E2 		add	r0, r0, #1
 298 0390 0A009DB8 		ldmlt	sp, {r1, r3}
 299 0394 82C085E0 		add	ip, r5, r2, lsl #1
 300 0398 0B40A0B1 		movlt	r4, fp
 301 039c 070052E3 		cmp	r2, #7
 302 03a0 8EE0A0E1 		lsl	lr, lr, #1
 303 03a4 076001E2 		and	r6, r1, #7
 304 03a8 863283E1 		orr	r3, r3, r6, lsl #5
 305 03ac 8230C5E7 		strb	r3, [r5, r2, lsl #1]
 306 03b0 0A508500 		addeq	r5, r5, r10
 307 03b4 200050E3 		cmp	r0, #32
 308 03b8 0130DCE5 		ldrb	r3, [ip, #1]	@ zero_extendqisi2
 309 03bc 0730C3E3 		bic	r3, r3, #7
 310 03c0 A11183E1 		orr	r1, r3, r1, lsr #3
 311 03c4 9411C7E7 		bfi	r1, r4, #3, #5
 312 03c8 0110CCE5 		strb	r1, [ip, #1]
 313 03cc E9FFFF1A 		bne	.L42
 314 03d0 08309DE5 		ldr	r3, [sp, #8]
 315 03d4 0C209DE5 		ldr	r2, [sp, #12]
 316 03d8 020053E1 		cmp	r3, r2
 317 03dc E2FFFF1A 		bne	.L43
 318 03e0 14209DE5 		ldr	r2, [sp, #20]
 319 03e4 10309DE5 		ldr	r3, [sp, #16]
 320 03e8 083083E2 		add	r3, r3, #8
 321 03ec 103082E5 		str	r3, [r2, #16]
 322 03f0 1CD08DE2 		add	sp, sp, #28
 323              		@ sp needed
 324 03f4 F08FBDE8 		pop	{r4, r5, r6, r7, r8, r9, r10, fp, pc}
 325              		.size	WriteChar16, .-WriteChar16
 326              		.align	2
 327              		.syntax unified
 328              		.arm
 329              		.fpu neon-vfpv4
 330              		.type	TransparentWriteChar16, %function
 331              	TransparentWriteChar16:
 332              		@ args = 0, pretend = 0, frame = 8
 333              		@ frame_needed = 0, uses_anonymous_args = 0
 334 03f8 F04F2DE9 		push	{r4, r5, r6, r7, r8, r9, r10, fp, lr}
 335 03fc 003000E3 		movw	r3, #:lower16:.LANCHOR0
 336 0400 003040E3 		movt	r3, #:upper16:.LANCHOR0
 337 0404 046090E5 		ldr	r6, [r0, #4]
 338 0408 0CD04DE2 		sub	sp, sp, #12
 339 040c 102090E5 		ldr	r2, [r0, #16]
 340 0410 01A283E0 		add	r10, r3, r1, lsl #4
 341 0414 144090E5 		ldr	r4, [r0, #20]
 342 0418 0A30A0E1 		mov	r3, r10
ARM GAS  C:\Users\ldebo\AppData\Local\Temp\ccpehfH9.s 			page 7


 343 041c 2150D0E5 		ldrb	r5, [r0, #33]	@ zero_extendqisi2
 344 0420 8660A0E1 		lsl	r6, r6, #1
 345 0424 04208DE5 		str	r2, [sp, #4]
 346 0428 8220A0E1 		lsl	r2, r2, #1
 347 042c 2290D0E5 		ldrb	r9, [r0, #34]	@ zero_extendqisi2
 348 0430 0CB083E2 		add	fp, r3, #12
 349 0434 2551A0E1 		lsr	r5, r5, #2
 350 0438 2070D0E5 		ldrb	r7, [r0, #32]	@ zero_extendqisi2
 351 043c 078005E2 		and	r8, r5, #7
 352 0440 942624E0 		mla	r4, r4, r6, r2
 353 0444 003090E5 		ldr	r3, [r0]
 354 0448 04A04AE2 		sub	r10, r10, #4
 355 044c A551A0E1 		lsr	r5, r5, #3
 356 0450 A991A0E1 		lsr	r9, r9, #3
 357 0454 034084E0 		add	r4, r4, r3
 358 0458 8882A0E1 		lsl	r8, r8, #5
 359 045c A771A0E1 		lsr	r7, r7, #3
 360              	.L52:
 361 0460 0420BAE5 		ldr	r2, [r10, #4]!
 362 0464 0030A0E3 		mov	r3, #0
 363 0468 030000EA 		b	.L51
 364              	.L49:
 365 046c 070051E3 		cmp	r1, #7
 366 0470 06408400 		addeq	r4, r4, r6
 367 0474 200053E3 		cmp	r3, #32
 368 0478 1000000A 		beq	.L56
 369              	.L51:
 370 047c 000052E3 		cmp	r2, #0
 371 0480 071003E2 		and	r1, r3, #7
 372 0484 8220A0E1 		lsl	r2, r2, #1
 373 0488 013083E2 		add	r3, r3, #1
 374 048c F6FFFFAA 		bge	.L49
 375 0490 81E084E0 		add	lr, r4, r1, lsl #1
 376 0494 08C087E1 		orr	ip, r7, r8
 377 0498 81C0C4E7 		strb	ip, [r4, r1, lsl #1]
 378 049c 070051E3 		cmp	r1, #7
 379 04a0 06408400 		addeq	r4, r4, r6
 380 04a4 200053E3 		cmp	r3, #32
 381 04a8 01C0DEE5 		ldrb	ip, [lr, #1]	@ zero_extendqisi2
 382 04ac 07C0CCE3 		bic	ip, ip, #7
 383 04b0 05C08CE1 		orr	ip, ip, r5
 384 04b4 99C1C7E7 		bfi	ip, r9, #3, #5
 385 04b8 01C0CEE5 		strb	ip, [lr, #1]
 386 04bc EEFFFF1A 		bne	.L51
 387              	.L56:
 388 04c0 0B005AE1 		cmp	r10, fp
 389 04c4 E5FFFF1A 		bne	.L52
 390 04c8 04309DE5 		ldr	r3, [sp, #4]
 391 04cc 083083E2 		add	r3, r3, #8
 392 04d0 103080E5 		str	r3, [r0, #16]
 393 04d4 0CD08DE2 		add	sp, sp, #12
 394              		@ sp needed
 395 04d8 F08FBDE8 		pop	{r4, r5, r6, r7, r8, r9, r10, fp, pc}
 396              		.size	TransparentWriteChar16, .-TransparentWriteChar16
 397              		.align	2
 398              		.syntax unified
 399              		.arm
ARM GAS  C:\Users\ldebo\AppData\Local\Temp\ccpehfH9.s 			page 8


 400              		.fpu neon-vfpv4
 401              		.type	PutImage16, %function
 402              	PutImage16:
 403              		@ args = 4, pretend = 0, frame = 8
 404              		@ frame_needed = 0, uses_anonymous_args = 0
 405 04dc F04F2DE9 		push	{r4, r5, r6, r7, r8, r9, r10, fp, lr}
 406 04e0 009052E2 		subs	r9, r2, #0
 407 04e4 048090E5 		ldr	r8, [r0, #4]
 408 04e8 144090E5 		ldr	r4, [r0, #20]
 409 04ec 0CD04DE2 		sub	sp, sp, #12
 410 04f0 10C090E5 		ldr	ip, [r0, #16]
 411 04f4 8880A0E1 		lsl	r8, r8, #1
 412 04f8 002090E5 		ldr	r2, [r0]
 413 04fc 30B0DDE5 		ldrb	fp, [sp, #48]	@ zero_extendqisi2
 414 0500 940804E0 		mul	r4, r4, r8
 415 0504 8C4084E0 		add	r4, r4, ip, lsl #1
 416 0508 024084E0 		add	r4, r4, r2
 417 050c 1700000A 		beq	.L57
 418 0510 000051E3 		cmp	r1, #0
 419 0514 1500000A 		beq	.L57
 420 0518 0350A0E1 		mov	r5, r3
 421 051c 0160A0E1 		mov	r6, r1
 422 0520 8130A0E1 		lsl	r3, r1, #1
 423 0524 0070A0E3 		mov	r7, #0
 424 0528 04308DE5 		str	r3, [sp, #4]
 425              	.L63:
 426 052c 00A0A0E3 		mov	r10, #0
 427              	.L60:
 428 0530 8A00A0E1 		lsl	r0, r10, #1
 429 0534 0220A0E3 		mov	r2, #2
 430 0538 001085E0 		add	r1, r5, r0
 431 053c 01A08AE2 		add	r10, r10, #1
 432 0540 000084E0 		add	r0, r4, r0
 433 0544 FEFFFFEB 		bl	memcpy
 434 0548 0A0056E1 		cmp	r6, r10
 435 054c F7FFFF1A 		bne	.L60
 436 0550 00005BE3 		cmp	fp, #0
 437 0554 017087E2 		add	r7, r7, #1
 438 0558 0600000A 		beq	.L61
 439 055c 070059E1 		cmp	r9, r7
 440 0560 04309DE5 		ldr	r3, [sp, #4]
 441 0564 084044E0 		sub	r4, r4, r8
 442 0568 035085E0 		add	r5, r5, r3
 443 056c EEFFFF1A 		bne	.L63
 444              	.L57:
 445 0570 0CD08DE2 		add	sp, sp, #12
 446              		@ sp needed
 447 0574 F08FBDE8 		pop	{r4, r5, r6, r7, r8, r9, r10, fp, pc}
 448              	.L61:
 449 0578 070059E1 		cmp	r9, r7
 450 057c 04309DE5 		ldr	r3, [sp, #4]
 451 0580 084084E0 		add	r4, r4, r8
 452 0584 035085E0 		add	r5, r5, r3
 453 0588 E7FFFF1A 		bne	.L63
 454 058c 0CD08DE2 		add	sp, sp, #12
 455              		@ sp needed
 456 0590 F08FBDE8 		pop	{r4, r5, r6, r7, r8, r9, r10, fp, pc}
ARM GAS  C:\Users\ldebo\AppData\Local\Temp\ccpehfH9.s 			page 9


 457              		.size	PutImage16, .-PutImage16
 458              		.align	2
 459              		.syntax unified
 460              		.arm
 461              		.fpu neon-vfpv4
 462              		.type	ClearArea24, %function
 463              	ClearArea24:
 464              		@ args = 4, pretend = 0, frame = 0
 465              		@ frame_needed = 0, uses_anonymous_args = 0
 466 0594 F0472DE9 		push	{r4, r5, r6, r7, r8, r9, r10, lr}
 467 0598 048090E5 		ldr	r8, [r0, #4]
 468 059c 20909DE5 		ldr	r9, [sp, #32]
 469 05a0 005090E5 		ldr	r5, [r0]
 470 05a4 029059E0 		subs	r9, r9, r2
 471 05a8 921822E0 		mla	r2, r2, r8, r1
 472 05ac 822082E0 		add	r2, r2, r2, lsl #1
 473 05b0 055082E0 		add	r5, r2, r5
 474 05b4 F087BD08 		popeq	{r4, r5, r6, r7, r8, r9, r10, pc}
 475 05b8 017053E0 		subs	r7, r3, r1
 476 05bc 888088E0 		add	r8, r8, r8, lsl #1
 477 05c0 F087BD08 		popeq	{r4, r5, r6, r7, r8, r9, r10, pc}
 478 05c4 877087E0 		add	r7, r7, r7, lsl #1
 479 05c8 286080E2 		add	r6, r0, #40
 480 05cc 00A0A0E3 		mov	r10, #0
 481              	.L71:
 482 05d0 0040A0E3 		mov	r4, #0
 483              	.L72:
 484 05d4 0320A0E3 		mov	r2, #3
 485 05d8 040085E0 		add	r0, r5, r4
 486 05dc 0610A0E1 		mov	r1, r6
 487 05e0 024084E0 		add	r4, r4, r2
 488 05e4 FEFFFFEB 		bl	memcpy
 489 05e8 070054E1 		cmp	r4, r7
 490 05ec F8FFFF1A 		bne	.L72
 491 05f0 01A08AE2 		add	r10, r10, #1
 492 05f4 085085E0 		add	r5, r5, r8
 493 05f8 09005AE1 		cmp	r10, r9
 494 05fc F3FFFF1A 		bne	.L71
 495 0600 F087BDE8 		pop	{r4, r5, r6, r7, r8, r9, r10, pc}
 496              		.size	ClearArea24, .-ClearArea24
 497              		.align	2
 498              		.syntax unified
 499              		.arm
 500              		.fpu neon-vfpv4
 501              		.type	VertLine24, %function
 502              	VertLine24:
 503              		@ args = 0, pretend = 0, frame = 0
 504              		@ frame_needed = 0, uses_anonymous_args = 0
 505 0604 F0472DE9 		push	{r4, r5, r6, r7, r8, r9, r10, lr}
 506 0608 0280A0E1 		mov	r8, r2
 507 060c 044090E5 		ldr	r4, [r0, #4]
 508 0610 102090E5 		ldr	r2, [r0, #16]
 509 0614 005051E2 		subs	r5, r1, #0
 510 0618 147090E5 		ldr	r7, [r0, #20]
 511 061c 0060A0E1 		mov	r6, r0
 512 0620 844084E0 		add	r4, r4, r4, lsl #1
 513 0624 001090E5 		ldr	r1, [r0]
ARM GAS  C:\Users\ldebo\AppData\Local\Temp\ccpehfH9.s 			page 10


 514 0628 822082E0 		add	r2, r2, r2, lsl #1
 515 062c 972423E0 		mla	r3, r7, r4, r2
 516 0630 013083E0 		add	r3, r3, r1
 517 0634 0B00000A 		beq	.L85
 518 0638 010058E3 		cmp	r8, #1
 519 063c 0090A0E3 		mov	r9, #0
 520 0640 20A080E2 		add	r10, r0, #32
 521 0644 0A00000A 		beq	.L86
 522              	.L84:
 523 0648 0300A0E1 		mov	r0, r3
 524 064c 019089E2 		add	r9, r9, #1
 525 0650 0320A0E3 		mov	r2, #3
 526 0654 0A10A0E1 		mov	r1, r10
 527 0658 FEFFFFEB 		bl	memcpy
 528 065c 090055E1 		cmp	r5, r9
 529 0660 043040E0 		sub	r3, r0, r4
 530 0664 F7FFFF1A 		bne	.L84
 531              	.L85:
 532 0668 957825E0 		mla	r5, r5, r8, r7
 533 066c 145086E5 		str	r5, [r6, #20]
 534 0670 F087BDE8 		pop	{r4, r5, r6, r7, r8, r9, r10, pc}
 535              	.L86:
 536 0674 0300A0E1 		mov	r0, r3
 537 0678 019089E2 		add	r9, r9, #1
 538 067c 0320A0E3 		mov	r2, #3
 539 0680 0A10A0E1 		mov	r1, r10
 540 0684 FEFFFFEB 		bl	memcpy
 541 0688 090055E1 		cmp	r5, r9
 542 068c 043080E0 		add	r3, r0, r4
 543 0690 F7FFFF1A 		bne	.L86
 544 0694 F3FFFFEA 		b	.L85
 545              		.size	VertLine24, .-VertLine24
 546              		.align	2
 547              		.syntax unified
 548              		.arm
 549              		.fpu neon-vfpv4
 550              		.type	HorzLine24, %function
 551              	HorzLine24:
 552              		@ args = 0, pretend = 0, frame = 0
 553              		@ frame_needed = 0, uses_anonymous_args = 0
 554 0698 043090E5 		ldr	r3, [r0, #4]
 555 069c F0472DE9 		push	{r4, r5, r6, r7, r8, r9, r10, lr}
 556 06a0 0050A0E1 		mov	r5, r0
 557 06a4 106090E5 		ldr	r6, [r0, #16]
 558 06a8 140090E5 		ldr	r0, [r0, #20]
 559 06ac 833083E0 		add	r3, r3, r3, lsl #1
 560 06b0 004051E2 		subs	r4, r1, #0
 561 06b4 0270A0E1 		mov	r7, r2
 562 06b8 861086E0 		add	r1, r6, r6, lsl #1
 563 06bc 002095E5 		ldr	r2, [r5]
 564 06c0 87A08710 		addne	r10, r7, r7, lsl #1
 565 06c4 0080A013 		movne	r8, #0
 566 06c8 901323E0 		mla	r3, r0, r3, r1
 567 06cc 20908512 		addne	r9, r5, #32
 568 06d0 023083E0 		add	r3, r3, r2
 569 06d4 0700000A 		beq	.L94
 570              	.L93:
ARM GAS  C:\Users\ldebo\AppData\Local\Temp\ccpehfH9.s 			page 11


 571 06d8 0300A0E1 		mov	r0, r3
 572 06dc 018088E2 		add	r8, r8, #1
 573 06e0 0320A0E3 		mov	r2, #3
 574 06e4 0910A0E1 		mov	r1, r9
 575 06e8 FEFFFFEB 		bl	memcpy
 576 06ec 080054E1 		cmp	r4, r8
 577 06f0 0A3080E0 		add	r3, r0, r10
 578 06f4 F7FFFF1A 		bne	.L93
 579              	.L94:
 580 06f8 946724E0 		mla	r4, r4, r7, r6
 581 06fc 104085E5 		str	r4, [r5, #16]
 582 0700 F087BDE8 		pop	{r4, r5, r6, r7, r8, r9, r10, pc}
 583              		.size	HorzLine24, .-HorzLine24
 584              		.align	2
 585              		.syntax unified
 586              		.arm
 587              		.fpu neon-vfpv4
 588              		.type	DiagLine24, %function
 589              	DiagLine24:
 590              		@ args = 4, pretend = 0, frame = 16
 591              		@ frame_needed = 0, uses_anonymous_args = 0
 592 0704 F04F2DE9 		push	{r4, r5, r6, r7, r8, r9, r10, fp, lr}
 593 0708 020051E1 		cmp	r1, r2
 594 070c 049090E5 		ldr	r9, [r0, #4]
 595 0710 14D04DE2 		sub	sp, sp, #20
 596 0714 0160A031 		movcc	r6, r1
 597 0718 0260A021 		movcs	r6, r2
 598 071c 0150A0E1 		mov	r5, r1
 599 0720 000051E3 		cmp	r1, #0
 600 0724 00A0A0E1 		mov	r10, r0
 601 0728 04308DE5 		str	r3, [sp, #4]
 602 072c 103090E5 		ldr	r3, [r0, #16]
 603 0730 00209AE5 		ldr	r2, [r10]
 604 0734 0310A0E1 		mov	r1, r3
 605 0738 08308DE5 		str	r3, [sp, #8]
 606 073c 143090E5 		ldr	r3, [r0, #20]
 607 0740 811081E0 		add	r1, r1, r1, lsl #1
 608 0744 0300A0E1 		mov	r0, r3
 609 0748 0C308DE5 		str	r3, [sp, #12]
 610 074c 893089E0 		add	r3, r9, r9, lsl #1
 611 0750 901323E0 		mla	r3, r0, r3, r1
 612 0754 023083E0 		add	r3, r3, r2
 613 0758 1300000A 		beq	.L102
 614 075c 38209DE5 		ldr	r2, [sp, #56]
 615 0760 00B0A0E3 		mov	fp, #0
 616 0764 04109DE5 		ldr	r1, [sp, #4]
 617 0768 0B40A0E1 		mov	r4, fp
 618 076c 20708AE2 		add	r7, r10, #32
 619 0770 822082E0 		add	r2, r2, r2, lsl #1
 620 0774 818081E0 		add	r8, r1, r1, lsl #1
 621 0778 990209E0 		mul	r9, r9, r2
 622              	.L101:
 623 077c 064084E0 		add	r4, r4, r6
 624 0780 0300A0E1 		mov	r0, r3
 625 0784 0320A0E3 		mov	r2, #3
 626 0788 0710A0E1 		mov	r1, r7
 627 078c FEFFFFEB 		bl	memcpy
ARM GAS  C:\Users\ldebo\AppData\Local\Temp\ccpehfH9.s 			page 12


 628 0790 01B08BE2 		add	fp, fp, #1
 629 0794 040055E1 		cmp	r5, r4
 630 0798 083080E0 		add	r3, r0, r8
 631 079c 05404490 		subls	r4, r4, r5
 632 07a0 09308390 		addls	r3, r3, r9
 633 07a4 0B0055E1 		cmp	r5, fp
 634 07a8 F3FFFF1A 		bne	.L101
 635              	.L102:
 636 07ac 04309DE5 		ldr	r3, [sp, #4]
 637 07b0 08209DE5 		ldr	r2, [sp, #8]
 638 07b4 952325E0 		mla	r5, r5, r3, r2
 639 07b8 38309DE5 		ldr	r3, [sp, #56]
 640 07bc 0C209DE5 		ldr	r2, [sp, #12]
 641 07c0 10508AE5 		str	r5, [r10, #16]
 642 07c4 962326E0 		mla	r6, r6, r3, r2
 643 07c8 14608AE5 		str	r6, [r10, #20]
 644 07cc 14D08DE2 		add	sp, sp, #20
 645              		@ sp needed
 646 07d0 F08FBDE8 		pop	{r4, r5, r6, r7, r8, r9, r10, fp, pc}
 647              		.size	DiagLine24, .-DiagLine24
 648              		.align	2
 649              		.syntax unified
 650              		.arm
 651              		.fpu neon-vfpv4
 652              		.type	WriteChar24, %function
 653              	WriteChar24:
 654              		@ args = 0, pretend = 0, frame = 0
 655              		@ frame_needed = 0, uses_anonymous_args = 0
 656 07d4 F04F2DE9 		push	{r4, r5, r6, r7, r8, r9, r10, fp, lr}
 657 07d8 003000E3 		movw	r3, #:lower16:.LANCHOR0
 658 07dc 003040E3 		movt	r3, #:upper16:.LANCHOR0
 659 07e0 046090E5 		ldr	r6, [r0, #4]
 660 07e4 109090E5 		ldr	r9, [r0, #16]
 661 07e8 017283E0 		add	r7, r3, r1, lsl #4
 662 07ec 144090E5 		ldr	r4, [r0, #20]
 663 07f0 0730A0E1 		mov	r3, r7
 664 07f4 866086E0 		add	r6, r6, r6, lsl #1
 665 07f8 0C8083E2 		add	r8, r3, #12
 666 07fc 892089E0 		add	r2, r9, r9, lsl #1
 667 0800 003090E5 		ldr	r3, [r0]
 668 0804 047047E2 		sub	r7, r7, #4
 669 0808 942624E0 		mla	r4, r4, r6, r2
 670 080c 034084E0 		add	r4, r4, r3
 671              	.L110:
 672 0810 0410B7E5 		ldr	r1, [r7, #4]!
 673 0814 0030A0E3 		mov	r3, #0
 674              	.L109:
 675 0818 000051E3 		cmp	r1, #0
 676 081c 072003E2 		and	r2, r3, #7
 677 0820 24B0D0E5 		ldrb	fp, [r0, #36]	@ zero_extendqisi2
 678 0824 013083E2 		add	r3, r3, #1
 679 0828 82E082E0 		add	lr, r2, r2, lsl #1
 680 082c 25A0D0E5 		ldrb	r10, [r0, #37]	@ zero_extendqisi2
 681 0830 20B0D0B5 		ldrblt	fp, [r0, #32]	@ zero_extendqisi2
 682 0834 0EC084E0 		add	ip, r4, lr
 683 0838 2650D0E5 		ldrb	r5, [r0, #38]	@ zero_extendqisi2
 684 083c 8110A0E1 		lsl	r1, r1, #1
ARM GAS  C:\Users\ldebo\AppData\Local\Temp\ccpehfH9.s 			page 13


 685 0840 21A0D0B5 		ldrblt	r10, [r0, #33]	@ zero_extendqisi2
 686 0844 2250D0B5 		ldrblt	r5, [r0, #34]	@ zero_extendqisi2
 687 0848 070052E3 		cmp	r2, #7
 688 084c 0EB0C4E7 		strb	fp, [r4, lr]
 689 0850 06408400 		addeq	r4, r4, r6
 690 0854 200053E3 		cmp	r3, #32
 691 0858 01A0CCE5 		strb	r10, [ip, #1]
 692 085c 0250CCE5 		strb	r5, [ip, #2]
 693 0860 ECFFFF1A 		bne	.L109
 694 0864 080057E1 		cmp	r7, r8
 695 0868 E8FFFF1A 		bne	.L110
 696 086c 089089E2 		add	r9, r9, #8
 697 0870 109080E5 		str	r9, [r0, #16]
 698 0874 F08FBDE8 		pop	{r4, r5, r6, r7, r8, r9, r10, fp, pc}
 699              		.size	WriteChar24, .-WriteChar24
 700              		.align	2
 701              		.syntax unified
 702              		.arm
 703              		.fpu neon-vfpv4
 704              		.type	TransparentWriteChar24, %function
 705              	TransparentWriteChar24:
 706              		@ args = 0, pretend = 0, frame = 8
 707              		@ frame_needed = 0, uses_anonymous_args = 0
 708 0878 F04F2DE9 		push	{r4, r5, r6, r7, r8, r9, r10, fp, lr}
 709 087c 00B0A0E1 		mov	fp, r0
 710 0880 102090E5 		ldr	r2, [r0, #16]
 711 0884 0CD04DE2 		sub	sp, sp, #12
 712 0888 047090E5 		ldr	r7, [r0, #4]
 713 088c 003000E3 		movw	r3, #:lower16:.LANCHOR0
 714 0890 003040E3 		movt	r3, #:upper16:.LANCHOR0
 715 0894 0080A0E1 		mov	r8, r0
 716 0898 0200A0E1 		mov	r0, r2
 717 089c 00208DE5 		str	r2, [sp]
 718 08a0 019283E0 		add	r9, r3, r1, lsl #4
 719 08a4 14209BE5 		ldr	r2, [fp, #20]
 720 08a8 877087E0 		add	r7, r7, r7, lsl #1
 721 08ac 0930A0E1 		mov	r3, r9
 722 08b0 800080E0 		add	r0, r0, r0, lsl #1
 723 08b4 0C3083E2 		add	r3, r3, #12
 724 08b8 201098E4 		ldr	r1, [r8], #32
 725 08bc 03C0A0E1 		mov	ip, r3
 726 08c0 04B08DE5 		str	fp, [sp, #4]
 727 08c4 920723E0 		mla	r3, r2, r7, r0
 728 08c8 049049E2 		sub	r9, r9, #4
 729 08cc 01A083E0 		add	r10, r3, r1
 730 08d0 0AB0A0E1 		mov	fp, r10
 731 08d4 0CA0A0E1 		mov	r10, ip
 732              	.L118:
 733 08d8 0450B9E5 		ldr	r5, [r9, #4]!
 734 08dc 0040A0E3 		mov	r4, #0
 735 08e0 030000EA 		b	.L117
 736              	.L115:
 737 08e4 070056E3 		cmp	r6, #7
 738 08e8 07B08B00 		addeq	fp, fp, r7
 739 08ec 200054E3 		cmp	r4, #32
 740 08f0 0D00000A 		beq	.L122
 741              	.L117:
ARM GAS  C:\Users\ldebo\AppData\Local\Temp\ccpehfH9.s 			page 14


 742 08f4 000055E3 		cmp	r5, #0
 743 08f8 076004E2 		and	r6, r4, #7
 744 08fc 8550A0E1 		lsl	r5, r5, #1
 745 0900 014084E2 		add	r4, r4, #1
 746 0904 F6FFFFAA 		bge	.L115
 747 0908 860086E0 		add	r0, r6, r6, lsl #1
 748 090c 0320A0E3 		mov	r2, #3
 749 0910 00008BE0 		add	r0, fp, r0
 750 0914 0810A0E1 		mov	r1, r8
 751 0918 FEFFFFEB 		bl	memcpy
 752 091c 070056E3 		cmp	r6, #7
 753 0920 07B08B00 		addeq	fp, fp, r7
 754 0924 200054E3 		cmp	r4, #32
 755 0928 F1FFFF1A 		bne	.L117
 756              	.L122:
 757 092c 0A0059E1 		cmp	r9, r10
 758 0930 E8FFFF1A 		bne	.L118
 759 0934 08089DE8 		ldm	sp, {r3, fp}
 760 0938 083083E2 		add	r3, r3, #8
 761 093c 10308BE5 		str	r3, [fp, #16]
 762 0940 0CD08DE2 		add	sp, sp, #12
 763              		@ sp needed
 764 0944 F08FBDE8 		pop	{r4, r5, r6, r7, r8, r9, r10, fp, pc}
 765              		.size	TransparentWriteChar24, .-TransparentWriteChar24
 766              		.align	2
 767              		.syntax unified
 768              		.arm
 769              		.fpu neon-vfpv4
 770              		.type	PutImage24, %function
 771              	PutImage24:
 772              		@ args = 4, pretend = 0, frame = 0
 773              		@ frame_needed = 0, uses_anonymous_args = 0
 774 0948 F84F2DE9 		push	{r3, r4, r5, r6, r7, r8, r9, r10, fp, lr}
 775 094c 00A052E2 		subs	r10, r2, #0
 776 0950 048090E5 		ldr	r8, [r0, #4]
 777 0954 146090E5 		ldr	r6, [r0, #20]
 778 0958 10C090E5 		ldr	ip, [r0, #16]
 779 095c 888088E0 		add	r8, r8, r8, lsl #1
 780 0960 002090E5 		ldr	r2, [r0]
 781 0964 2890DDE5 		ldrb	r9, [sp, #40]	@ zero_extendqisi2
 782 0968 8CC08CE0 		add	ip, ip, ip, lsl #1
 783 096c 96C82CE0 		mla	ip, r6, r8, ip
 784 0970 02608CE0 		add	r6, ip, r2
 785 0974 1900000A 		beq	.L135
 786 0978 000051E3 		cmp	r1, #0
 787 097c F88FBD08 		popeq	{r3, r4, r5, r6, r7, r8, r9, r10, fp, pc}
 788 0980 0350A0E1 		mov	r5, r3
 789 0984 817081E0 		add	r7, r1, r1, lsl #1
 790 0988 00B0A0E3 		mov	fp, #0
 791              	.L129:
 792 098c 0040A0E3 		mov	r4, #0
 793              	.L126:
 794 0990 0320A0E3 		mov	r2, #3
 795 0994 041085E0 		add	r1, r5, r4
 796 0998 040086E0 		add	r0, r6, r4
 797 099c 024084E0 		add	r4, r4, r2
 798 09a0 FEFFFFEB 		bl	memcpy
ARM GAS  C:\Users\ldebo\AppData\Local\Temp\ccpehfH9.s 			page 15


 799 09a4 070054E1 		cmp	r4, r7
 800 09a8 F8FFFF1A 		bne	.L126
 801 09ac 000059E3 		cmp	r9, #0
 802 09b0 01B08BE2 		add	fp, fp, #1
 803 09b4 0400000A 		beq	.L127
 804 09b8 0B005AE1 		cmp	r10, fp
 805 09bc 086046E0 		sub	r6, r6, r8
 806 09c0 075085E0 		add	r5, r5, r7
 807 09c4 F0FFFF1A 		bne	.L129
 808 09c8 F88FBDE8 		pop	{r3, r4, r5, r6, r7, r8, r9, r10, fp, pc}
 809              	.L127:
 810 09cc 0B005AE1 		cmp	r10, fp
 811 09d0 086086E0 		add	r6, r6, r8
 812 09d4 075085E0 		add	r5, r5, r7
 813 09d8 EBFFFF1A 		bne	.L129
 814 09dc F88FBDE8 		pop	{r3, r4, r5, r6, r7, r8, r9, r10, fp, pc}
 815              	.L135:
 816 09e0 F88FBDE8 		pop	{r3, r4, r5, r6, r7, r8, r9, r10, fp, pc}
 817              		.size	PutImage24, .-PutImage24
 818              		.align	2
 819              		.syntax unified
 820              		.arm
 821              		.fpu neon-vfpv4
 822              		.type	ClearArea32, %function
 823              	ClearArea32:
 824              		@ args = 4, pretend = 0, frame = 0
 825              		@ frame_needed = 0, uses_anonymous_args = 0
 826 09e4 30402DE9 		push	{r4, r5, lr}
 827 09e8 02C1A0E1 		lsl	ip, r2, #2
 828 09ec 044090E5 		ldr	r4, [r0, #4]
 829 09f0 0C509DE5 		ldr	r5, [sp, #12]
 830 09f4 025055E0 		subs	r5, r5, r2
 831 09f8 002090E5 		ldr	r2, [r0]
 832 09fc 94CC2CE0 		mla	ip, r4, ip, ip
 833 0a00 02C08CE0 		add	ip, ip, r2
 834 0a04 3080BD08 		popeq	{r4, r5, pc}
 835 0a08 011053E0 		subs	r1, r3, r1
 836 0a0c 0441A0E1 		lsl	r4, r4, #2
 837 0a10 00E0A013 		movne	lr, #0
 838 0a14 0A00000A 		beq	.L147
 839              	.L140:
 840 0a18 0030A0E3 		mov	r3, #0
 841              	.L139:
 842 0a1c 282090E5 		ldr	r2, [r0, #40]
 843 0a20 03218CE7 		str	r2, [ip, r3, lsl #2]
 844 0a24 013083E2 		add	r3, r3, #1
 845 0a28 010053E1 		cmp	r3, r1
 846 0a2c FAFFFF1A 		bne	.L139
 847 0a30 01E08EE2 		add	lr, lr, #1
 848 0a34 04C08CE0 		add	ip, ip, r4
 849 0a38 05005EE1 		cmp	lr, r5
 850 0a3c F5FFFF1A 		bne	.L140
 851 0a40 3080BDE8 		pop	{r4, r5, pc}
 852              	.L147:
 853 0a44 3080BDE8 		pop	{r4, r5, pc}
 854              		.size	ClearArea32, .-ClearArea32
 855              		.align	2
ARM GAS  C:\Users\ldebo\AppData\Local\Temp\ccpehfH9.s 			page 16


 856              		.syntax unified
 857              		.arm
 858              		.fpu neon-vfpv4
 859              		.type	VertLine32, %function
 860              	VertLine32:
 861              		@ args = 0, pretend = 0, frame = 0
 862              		@ frame_needed = 0, uses_anonymous_args = 0
 863 0a48 30402DE9 		push	{r4, r5, lr}
 864 0a4c 000051E3 		cmp	r1, #0
 865 0a50 044090E5 		ldr	r4, [r0, #4]
 866 0a54 145090E5 		ldr	r5, [r0, #20]
 867 0a58 10E090E5 		ldr	lr, [r0, #16]
 868 0a5c 0441A0E1 		lsl	r4, r4, #2
 869 0a60 00C090E5 		ldr	ip, [r0]
 870 0a64 950403E0 		mul	r3, r5, r4
 871 0a68 0E3183E0 		add	r3, r3, lr, lsl #2
 872 0a6c 0C3083E0 		add	r3, r3, ip
 873 0a70 0800000A 		beq	.L152
 874 0a74 010052E3 		cmp	r2, #1
 875 0a78 00C0A0E3 		mov	ip, #0
 876 0a7c 0800000A 		beq	.L153
 877              	.L151:
 878 0a80 01C08CE2 		add	ip, ip, #1
 879 0a84 20E090E5 		ldr	lr, [r0, #32]
 880 0a88 0C0051E1 		cmp	r1, ip
 881 0a8c 00E083E5 		str	lr, [r3]
 882 0a90 043043E0 		sub	r3, r3, r4
 883 0a94 F9FFFF1A 		bne	.L151
 884              	.L152:
 885 0a98 915221E0 		mla	r1, r1, r2, r5
 886 0a9c 141080E5 		str	r1, [r0, #20]
 887 0aa0 3080BDE8 		pop	{r4, r5, pc}
 888              	.L153:
 889 0aa4 01C08CE2 		add	ip, ip, #1
 890 0aa8 20E090E5 		ldr	lr, [r0, #32]
 891 0aac 0C0051E1 		cmp	r1, ip
 892 0ab0 04E083E6 		str	lr, [r3], r4
 893 0ab4 FAFFFF1A 		bne	.L153
 894 0ab8 F6FFFFEA 		b	.L152
 895              		.size	VertLine32, .-VertLine32
 896              		.align	2
 897              		.syntax unified
 898              		.arm
 899              		.fpu neon-vfpv4
 900              		.type	HorzLine32, %function
 901              	HorzLine32:
 902              		@ args = 0, pretend = 0, frame = 0
 903              		@ frame_needed = 0, uses_anonymous_args = 0
 904 0abc 04C090E5 		ldr	ip, [r0, #4]
 905 0ac0 000051E3 		cmp	r1, #0
 906 0ac4 30402DE9 		push	{r4, r5, lr}
 907 0ac8 145090E5 		ldr	r5, [r0, #20]
 908 0acc 104090E5 		ldr	r4, [r0, #16]
 909 0ad0 0CC1A0E1 		lsl	ip, ip, #2
 910 0ad4 003090E5 		ldr	r3, [r0]
 911 0ad8 04E1A0E1 		lsl	lr, r4, #2
 912 0adc 95EC2CE0 		mla	ip, r5, ip, lr
ARM GAS  C:\Users\ldebo\AppData\Local\Temp\ccpehfH9.s 			page 17


 913 0ae0 0251A011 		lslne	r5, r2, #2
 914 0ae4 03C08CE0 		add	ip, ip, r3
 915 0ae8 0030A013 		movne	r3, #0
 916 0aec 0400000A 		beq	.L161
 917              	.L160:
 918 0af0 013083E2 		add	r3, r3, #1
 919 0af4 20E090E5 		ldr	lr, [r0, #32]
 920 0af8 030051E1 		cmp	r1, r3
 921 0afc 05E08CE6 		str	lr, [ip], r5
 922 0b00 FAFFFF1A 		bne	.L160
 923              	.L161:
 924 0b04 914221E0 		mla	r1, r1, r2, r4
 925 0b08 101080E5 		str	r1, [r0, #16]
 926 0b0c 3080BDE8 		pop	{r4, r5, pc}
 927              		.size	HorzLine32, .-HorzLine32
 928              		.align	2
 929              		.syntax unified
 930              		.arm
 931              		.fpu neon-vfpv4
 932              		.type	DiagLine32, %function
 933              	DiagLine32:
 934              		@ args = 4, pretend = 0, frame = 0
 935              		@ frame_needed = 0, uses_anonymous_args = 0
 936 0b10 F0472DE9 		push	{r4, r5, r6, r7, r8, r9, r10, lr}
 937 0b14 020051E1 		cmp	r1, r2
 938 0b18 046090E5 		ldr	r6, [r0, #4]
 939 0b1c 107090E5 		ldr	r7, [r0, #16]
 940 0b20 0120A031 		movcc	r2, r1
 941 0b24 148090E5 		ldr	r8, [r0, #20]
 942 0b28 000051E3 		cmp	r1, #0
 943 0b2c 06E1A0E1 		lsl	lr, r6, #2
 944 0b30 00C090E5 		ldr	ip, [r0]
 945 0b34 0741A0E1 		lsl	r4, r7, #2
 946 0b38 20909DE5 		ldr	r9, [sp, #32]
 947 0b3c 984E2EE0 		mla	lr, r8, lr, r4
 948 0b40 0CE08EE0 		add	lr, lr, ip
 949 0b44 0D00000A 		beq	.L169
 950 0b48 0951A0E1 		lsl	r5, r9, #2
 951 0b4c 0040A0E3 		mov	r4, #0
 952 0b50 04C0A0E1 		mov	ip, r4
 953 0b54 03A1A0E1 		lsl	r10, r3, #2
 954 0b58 960506E0 		mul	r6, r6, r5
 955              	.L168:
 956 0b5c 205090E5 		ldr	r5, [r0, #32]
 957 0b60 02C08CE0 		add	ip, ip, r2
 958 0b64 0C0051E1 		cmp	r1, ip
 959 0b68 014084E2 		add	r4, r4, #1
 960 0b6c 0A508EE6 		str	r5, [lr], r10
 961 0b70 01C04C90 		subls	ip, ip, r1
 962 0b74 06E08E90 		addls	lr, lr, r6
 963 0b78 040051E1 		cmp	r1, r4
 964 0b7c F6FFFF1A 		bne	.L168
 965              	.L169:
 966 0b80 917321E0 		mla	r1, r1, r3, r7
 967 0b84 928922E0 		mla	r2, r2, r9, r8
 968 0b88 101080E5 		str	r1, [r0, #16]
 969 0b8c 142080E5 		str	r2, [r0, #20]
ARM GAS  C:\Users\ldebo\AppData\Local\Temp\ccpehfH9.s 			page 18


 970 0b90 F087BDE8 		pop	{r4, r5, r6, r7, r8, r9, r10, pc}
 971              		.size	DiagLine32, .-DiagLine32
 972              		.align	2
 973              		.syntax unified
 974              		.arm
 975              		.fpu neon-vfpv4
 976              		.type	WriteChar32, %function
 977              	WriteChar32:
 978              		@ args = 0, pretend = 0, frame = 8
 979              		@ frame_needed = 0, uses_anonymous_args = 0
 980 0b94 F0402DE9 		push	{r4, r5, r6, r7, lr}
 981 0b98 003000E3 		movw	r3, #:lower16:.LANCHOR0
 982 0b9c 003040E3 		movt	r3, #:upper16:.LANCHOR0
 983 0ba0 044090E5 		ldr	r4, [r0, #4]
 984 0ba4 0CD04DE2 		sub	sp, sp, #12
 985 0ba8 107090E5 		ldr	r7, [r0, #16]
 986 0bac 015283E0 		add	r5, r3, r1, lsl #4
 987 0bb0 14E090E5 		ldr	lr, [r0, #20]
 988 0bb4 0530A0E1 		mov	r3, r5
 989 0bb8 0441A0E1 		lsl	r4, r4, #2
 990 0bbc 0C6083E2 		add	r6, r3, #12
 991 0bc0 0721A0E1 		lsl	r2, r7, #2
 992 0bc4 003090E5 		ldr	r3, [r0]
 993 0bc8 045045E2 		sub	r5, r5, #4
 994 0bcc 9E242EE0 		mla	lr, lr, r4, r2
 995 0bd0 03E08EE0 		add	lr, lr, r3
 996              	.L178:
 997 0bd4 0420B5E5 		ldr	r2, [r5, #4]!
 998 0bd8 0030A0E3 		mov	r3, #0
 999              	.L177:
 1000 0bdc 000052E3 		cmp	r2, #0
 1001 0be0 071003E2 		and	r1, r3, #7
 1002 0be4 013083E2 		add	r3, r3, #1
 1003 0be8 8220A0E1 		lsl	r2, r2, #1
 1004 0bec 24C090A5 		ldrge	ip, [r0, #36]
 1005 0bf0 20C090B5 		ldrlt	ip, [r0, #32]
 1006 0bf4 070051E3 		cmp	r1, #7
 1007 0bf8 01C18EE7 		str	ip, [lr, r1, lsl #2]
 1008 0bfc 04E08E00 		addeq	lr, lr, r4
 1009 0c00 200053E3 		cmp	r3, #32
 1010 0c04 04C08DE5 		str	ip, [sp, #4]
 1011 0c08 F3FFFF1A 		bne	.L177
 1012 0c0c 050056E1 		cmp	r6, r5
 1013 0c10 EFFFFF1A 		bne	.L178
 1014 0c14 087087E2 		add	r7, r7, #8
 1015 0c18 107080E5 		str	r7, [r0, #16]
 1016 0c1c 0CD08DE2 		add	sp, sp, #12
 1017              		@ sp needed
 1018 0c20 F080BDE8 		pop	{r4, r5, r6, r7, pc}
 1019              		.size	WriteChar32, .-WriteChar32
 1020              		.align	2
 1021              		.syntax unified
 1022              		.arm
 1023              		.fpu neon-vfpv4
 1024              		.type	TransparentWriteChar32, %function
 1025              	TransparentWriteChar32:
 1026              		@ args = 0, pretend = 0, frame = 0
ARM GAS  C:\Users\ldebo\AppData\Local\Temp\ccpehfH9.s 			page 19


 1027              		@ frame_needed = 0, uses_anonymous_args = 0
 1028 0c24 F0402DE9 		push	{r4, r5, r6, r7, lr}
 1029 0c28 003000E3 		movw	r3, #:lower16:.LANCHOR0
 1030 0c2c 003040E3 		movt	r3, #:upper16:.LANCHOR0
 1031 0c30 044090E5 		ldr	r4, [r0, #4]
 1032 0c34 107090E5 		ldr	r7, [r0, #16]
 1033 0c38 015283E0 		add	r5, r3, r1, lsl #4
 1034 0c3c 14C090E5 		ldr	ip, [r0, #20]
 1035 0c40 0530A0E1 		mov	r3, r5
 1036 0c44 0441A0E1 		lsl	r4, r4, #2
 1037 0c48 0C6083E2 		add	r6, r3, #12
 1038 0c4c 0721A0E1 		lsl	r2, r7, #2
 1039 0c50 003090E5 		ldr	r3, [r0]
 1040 0c54 045045E2 		sub	r5, r5, #4
 1041 0c58 9C242CE0 		mla	ip, ip, r4, r2
 1042 0c5c 03C08CE0 		add	ip, ip, r3
 1043              	.L186:
 1044 0c60 0420B5E5 		ldr	r2, [r5, #4]!
 1045 0c64 0030A0E3 		mov	r3, #0
 1046              	.L185:
 1047 0c68 000052E3 		cmp	r2, #0
 1048 0c6c 071003E2 		and	r1, r3, #7
 1049 0c70 013083E2 		add	r3, r3, #1
 1050 0c74 8220A0E1 		lsl	r2, r2, #1
 1051 0c78 20E090B5 		ldrlt	lr, [r0, #32]
 1052 0c7c 01E18CB7 		strlt	lr, [ip, r1, lsl #2]
 1053 0c80 070051E3 		cmp	r1, #7
 1054 0c84 04C08C00 		addeq	ip, ip, r4
 1055 0c88 200053E3 		cmp	r3, #32
 1056 0c8c F5FFFF1A 		bne	.L185
 1057 0c90 050056E1 		cmp	r6, r5
 1058 0c94 F1FFFF1A 		bne	.L186
 1059 0c98 087087E2 		add	r7, r7, #8
 1060 0c9c 107080E5 		str	r7, [r0, #16]
 1061 0ca0 F080BDE8 		pop	{r4, r5, r6, r7, pc}
 1062              		.size	TransparentWriteChar32, .-TransparentWriteChar32
 1063              		.align	2
 1064              		.syntax unified
 1065              		.arm
 1066              		.fpu neon-vfpv4
 1067              		.type	PutImage32, %function
 1068              	PutImage32:
 1069              		@ args = 4, pretend = 0, frame = 0
 1070              		@ frame_needed = 0, uses_anonymous_args = 0
 1071 0ca4 F0402DE9 		push	{r4, r5, r6, r7, lr}
 1072 0ca8 000052E3 		cmp	r2, #0
 1073 0cac 045090E5 		ldr	r5, [r0, #4]
 1074 0cb0 14E090E5 		ldr	lr, [r0, #20]
 1075 0cb4 10C090E5 		ldr	ip, [r0, #16]
 1076 0cb8 0551A0E1 		lsl	r5, r5, #2
 1077 0cbc 000090E5 		ldr	r0, [r0]
 1078 0cc0 1470DDE5 		ldrb	r7, [sp, #20]	@ zero_extendqisi2
 1079 0cc4 9E050EE0 		mul	lr, lr, r5
 1080 0cc8 0CE18EE0 		add	lr, lr, ip, lsl #2
 1081 0ccc 00E08EE0 		add	lr, lr, r0
 1082 0cd0 1600000A 		beq	.L202
 1083 0cd4 000051E3 		cmp	r1, #0
ARM GAS  C:\Users\ldebo\AppData\Local\Temp\ccpehfH9.s 			page 20


 1084 0cd8 F080BD08 		popeq	{r4, r5, r6, r7, pc}
 1085 0cdc 0161A0E1 		lsl	r6, r1, #2
 1086 0ce0 0040A0E3 		mov	r4, #0
 1087              	.L196:
 1088 0ce4 0000A0E3 		mov	r0, #0
 1089              	.L193:
 1090 0ce8 00C193E7 		ldr	ip, [r3, r0, lsl #2]
 1091 0cec 00C18EE7 		str	ip, [lr, r0, lsl #2]
 1092 0cf0 010080E2 		add	r0, r0, #1
 1093 0cf4 000051E1 		cmp	r1, r0
 1094 0cf8 FAFFFF1A 		bne	.L193
 1095 0cfc 000057E3 		cmp	r7, #0
 1096 0d00 014084E2 		add	r4, r4, #1
 1097 0d04 0400000A 		beq	.L194
 1098 0d08 040052E1 		cmp	r2, r4
 1099 0d0c 05E04EE0 		sub	lr, lr, r5
 1100 0d10 063083E0 		add	r3, r3, r6
 1101 0d14 F2FFFF1A 		bne	.L196
 1102 0d18 F080BDE8 		pop	{r4, r5, r6, r7, pc}
 1103              	.L194:
 1104 0d1c 040052E1 		cmp	r2, r4
 1105 0d20 05E08EE0 		add	lr, lr, r5
 1106 0d24 063083E0 		add	r3, r3, r6
 1107 0d28 EDFFFF1A 		bne	.L196
 1108 0d2c F080BDE8 		pop	{r4, r5, r6, r7, pc}
 1109              	.L202:
 1110 0d30 F080BDE8 		pop	{r4, r5, r6, r7, pc}
 1111              		.size	PutImage32, .-PutImage32
 1112              		.align	2
 1113              		.syntax unified
 1114              		.arm
 1115              		.fpu neon-vfpv4
 1116              		.type	mailbox_tag_message.constprop.6, %function
 1117              	mailbox_tag_message.constprop.6:
 1118              		@ args = 4, pretend = 12, frame = 8
 1119              		@ frame_needed = 1, uses_anonymous_args = 1
 1120 0d34 0E002DE9 		push	{r1, r2, r3}
 1121 0d38 0020A0E3 		mov	r2, #0
 1122 0d3c F0482DE9 		push	{r4, r5, r6, r7, fp, lr}
 1123 0d40 1C70A0E3 		mov	r7, #28
 1124 0d44 0050A0E1 		mov	r5, r0
 1125 0d48 14B08DE2 		add	fp, sp, #20
 1126 0d4c 0CD04DE2 		sub	sp, sp, #12
 1127 0d50 90D04DE2 		sub	sp, sp, #144
 1128 0d54 0F408DE2 		add	r4, sp, #15
 1129 0d58 08308BE2 		add	r3, fp, #8
 1130 0d5c 0F40C4E3 		bic	r4, r4, #15
 1131 0d60 14109BE5 		ldr	r1, [fp, #20]
 1132 0d64 08609BE5 		ldr	r6, [fp, #8]
 1133 0d68 0400A0E1 		mov	r0, r4
 1134 0d6c 0CE09BE5 		ldr	lr, [fp, #12]
 1135 0d70 10C09BE5 		ldr	ip, [fp, #16]
 1136 0d74 141084E5 		str	r1, [r4, #20]
 1137 0d78 007084E5 		str	r7, [r4]
 1138 0d7c 086084E5 		str	r6, [r4, #8]
 1139 0d80 0CE084E5 		str	lr, [r4, #12]
 1140 0d84 10C084E5 		str	ip, [r4, #16]
ARM GAS  C:\Users\ldebo\AppData\Local\Temp\ccpehfH9.s 			page 21


 1141 0d88 182084E5 		str	r2, [r4, #24]
 1142 0d8c 042084E5 		str	r2, [r4, #4]
 1143 0d90 1C300BE5 		str	r3, [fp, #-28]
 1144 0d94 FEFFFFEB 		bl	ARMaddrToGPUaddr
 1145 0d98 003000E3 		movw	r3, #:lower16:RPi_IO_Base_Addr
 1146 0d9c 003040E3 		movt	r3, #:upper16:RPi_IO_Base_Addr
 1147 0da0 0F10C0E3 		bic	r1, r0, #15
 1148 0da4 081081E3 		orr	r1, r1, #8
 1149 0da8 003093E5 		ldr	r3, [r3]
 1150 0dac 2E3B83E2 		add	r3, r3, #47104
 1151 0db0 803083E2 		add	r3, r3, #128
 1152              	.L204:
 1153 0db4 382093E5 		ldr	r2, [r3, #56]
 1154 0db8 000052E3 		cmp	r2, #0
 1155 0dbc FCFFFFBA 		blt	.L204
 1156 0dc0 201083E5 		str	r1, [r3, #32]
 1157              	.L205:
 1158 0dc4 180093E5 		ldr	r0, [r3, #24]
 1159 0dc8 010110E2 		ands	r0, r0, #1073741824
 1160 0dcc FCFFFF1A 		bne	.L205
 1161 0dd0 002093E5 		ldr	r2, [r3]
 1162 0dd4 0F2002E2 		and	r2, r2, #15
 1163 0dd8 080052E3 		cmp	r2, #8
 1164 0ddc F8FFFF1A 		bne	.L205
 1165 0de0 043094E5 		ldr	r3, [r4, #4]
 1166 0de4 020153E3 		cmp	r3, #-2147483648
 1167 0de8 0300000A 		beq	.L215
 1168 0dec 14D04BE2 		sub	sp, fp, #20
 1169              		@ sp needed
 1170 0df0 F048BDE8 		pop	{r4, r5, r6, r7, fp, lr}
 1171 0df4 0CD08DE2 		add	sp, sp, #12
 1172 0df8 1EFF2FE1 		bx	lr
 1173              	.L215:
 1174 0dfc 000055E3 		cmp	r5, #0
 1175 0e00 08008412 		addne	r0, r4, #8
 1176 0e04 0F009018 		ldmne	r0, {r0, r1, r2, r3}
 1177 0e08 0F008518 		stmne	r5, {r0, r1, r2, r3}
 1178              	.L209:
 1179 0e0c 0100A0E3 		mov	r0, #1
 1180 0e10 14D04BE2 		sub	sp, fp, #20
 1181              		@ sp needed
 1182 0e14 F048BDE8 		pop	{r4, r5, r6, r7, fp, lr}
 1183 0e18 0CD08DE2 		add	sp, sp, #12
 1184 0e1c 1EFF2FE1 		bx	lr
 1185              		.size	mailbox_tag_message.constprop.6, .-mailbox_tag_message.constprop.6
 1186              		.align	2
 1187              		.syntax unified
 1188              		.arm
 1189              		.fpu neon-vfpv4
 1190              		.type	mailbox_tag_message.constprop.4, %function
 1191              	mailbox_tag_message.constprop.4:
 1192              		@ args = 4, pretend = 12, frame = 8
 1193              		@ frame_needed = 1, uses_anonymous_args = 1
 1194 0e20 0E002DE9 		push	{r1, r2, r3}
 1195 0e24 2010A0E3 		mov	r1, #32
 1196 0e28 0020A0E3 		mov	r2, #0
 1197 0e2c 70482DE9 		push	{r4, r5, r6, fp, lr}
ARM GAS  C:\Users\ldebo\AppData\Local\Temp\ccpehfH9.s 			page 22


 1198 0e30 10B08DE2 		add	fp, sp, #16
 1199 0e34 08D04DE2 		sub	sp, sp, #8
 1200 0e38 90D04DE2 		sub	sp, sp, #144
 1201 0e3c 0F408DE2 		add	r4, sp, #15
 1202 0e40 08308BE2 		add	r3, fp, #8
 1203 0e44 0F40C4E3 		bic	r4, r4, #15
 1204 0e48 08609BE5 		ldr	r6, [fp, #8]
 1205 0e4c 0C509BE5 		ldr	r5, [fp, #12]
 1206 0e50 0400A0E1 		mov	r0, r4
 1207 0e54 10E09BE5 		ldr	lr, [fp, #16]
 1208 0e58 14C09BE5 		ldr	ip, [fp, #20]
 1209 0e5c 001084E5 		str	r1, [r4]
 1210 0e60 18109BE5 		ldr	r1, [fp, #24]
 1211 0e64 1C2084E5 		str	r2, [r4, #28]
 1212 0e68 181084E5 		str	r1, [r4, #24]
 1213 0e6c 042084E5 		str	r2, [r4, #4]
 1214 0e70 086084E5 		str	r6, [r4, #8]
 1215 0e74 0C5084E5 		str	r5, [r4, #12]
 1216 0e78 10E084E5 		str	lr, [r4, #16]
 1217 0e7c 14C084E5 		str	ip, [r4, #20]
 1218 0e80 14300BE5 		str	r3, [fp, #-20]
 1219 0e84 FEFFFFEB 		bl	ARMaddrToGPUaddr
 1220 0e88 003000E3 		movw	r3, #:lower16:RPi_IO_Base_Addr
 1221 0e8c 003040E3 		movt	r3, #:upper16:RPi_IO_Base_Addr
 1222 0e90 0F10C0E3 		bic	r1, r0, #15
 1223 0e94 081081E3 		orr	r1, r1, #8
 1224 0e98 002093E5 		ldr	r2, [r3]
 1225 0e9c 2E2B82E2 		add	r2, r2, #47104
 1226 0ea0 802082E2 		add	r2, r2, #128
 1227              	.L217:
 1228 0ea4 383092E5 		ldr	r3, [r2, #56]
 1229 0ea8 000053E3 		cmp	r3, #0
 1230 0eac FCFFFFBA 		blt	.L217
 1231 0eb0 201082E5 		str	r1, [r2, #32]
 1232              	.L218:
 1233 0eb4 183092E5 		ldr	r3, [r2, #24]
 1234 0eb8 010113E3 		tst	r3, #1073741824
 1235 0ebc FCFFFF1A 		bne	.L218
 1236 0ec0 003092E5 		ldr	r3, [r2]
 1237 0ec4 0F3003E2 		and	r3, r3, #15
 1238 0ec8 080053E3 		cmp	r3, #8
 1239 0ecc F8FFFF1A 		bne	.L218
 1240 0ed0 040094E5 		ldr	r0, [r4, #4]
 1241 0ed4 020140E2 		sub	r0, r0, #-2147483648
 1242 0ed8 100F6FE1 		clz	r0, r0
 1243 0edc A002A0E1 		lsr	r0, r0, #5
 1244 0ee0 10D04BE2 		sub	sp, fp, #16
 1245              		@ sp needed
 1246 0ee4 7048BDE8 		pop	{r4, r5, r6, fp, lr}
 1247 0ee8 0CD08DE2 		add	sp, sp, #12
 1248 0eec 1EFF2FE1 		bx	lr
 1249              		.size	mailbox_tag_message.constprop.4, .-mailbox_tag_message.constprop.4
 1250              		.align	2
 1251              		.syntax unified
 1252              		.arm
 1253              		.fpu neon-vfpv4
 1254              		.type	mailbox_tag_message.constprop.7, %function
ARM GAS  C:\Users\ldebo\AppData\Local\Temp\ccpehfH9.s 			page 23


 1255              	mailbox_tag_message.constprop.7:
 1256              		@ args = 4, pretend = 12, frame = 8
 1257              		@ frame_needed = 1, uses_anonymous_args = 1
 1258 0ef0 0E002DE9 		push	{r1, r2, r3}
 1259 0ef4 0020A0E3 		mov	r2, #0
 1260 0ef8 58C0A0E3 		mov	ip, #88
 1261 0efc F0482DE9 		push	{r4, r5, r6, r7, fp, lr}
 1262 0f00 0050A0E1 		mov	r5, r0
 1263 0f04 14B08DE2 		add	fp, sp, #20
 1264 0f08 0CD04DE2 		sub	sp, sp, #12
 1265 0f0c 90D04DE2 		sub	sp, sp, #144
 1266 0f10 0F708DE2 		add	r7, sp, #15
 1267 0f14 08008BE2 		add	r0, fp, #8
 1268 0f18 0F70C7E3 		bic	r7, r7, #15
 1269 0f1c 04308BE2 		add	r3, fp, #4
 1270 0f20 0760A0E1 		mov	r6, r7
 1271 0f24 501087E2 		add	r1, r7, #80
 1272 0f28 1C000BE5 		str	r0, [fp, #-28]
 1273 0f2c 00C087E5 		str	ip, [r7]
 1274 0f30 0420A6E5 		str	r2, [r6, #4]!
 1275 0f34 542087E5 		str	r2, [r7, #84]
 1276 0f38 0640A0E1 		mov	r4, r6
 1277              	.L225:
 1278 0f3c 0420B3E5 		ldr	r2, [r3, #4]!
 1279 0f40 0420A4E5 		str	r2, [r4, #4]!
 1280 0f44 010054E1 		cmp	r4, r1
 1281 0f48 FBFFFF1A 		bne	.L225
 1282 0f4c 0700A0E1 		mov	r0, r7
 1283 0f50 FEFFFFEB 		bl	ARMaddrToGPUaddr
 1284 0f54 003000E3 		movw	r3, #:lower16:RPi_IO_Base_Addr
 1285 0f58 003040E3 		movt	r3, #:upper16:RPi_IO_Base_Addr
 1286 0f5c 0F10C0E3 		bic	r1, r0, #15
 1287 0f60 081081E3 		orr	r1, r1, #8
 1288 0f64 003093E5 		ldr	r3, [r3]
 1289 0f68 2E3B83E2 		add	r3, r3, #47104
 1290 0f6c 803083E2 		add	r3, r3, #128
 1291              	.L226:
 1292 0f70 382093E5 		ldr	r2, [r3, #56]
 1293 0f74 000052E3 		cmp	r2, #0
 1294 0f78 FCFFFFBA 		blt	.L226
 1295 0f7c 201083E5 		str	r1, [r3, #32]
 1296              	.L227:
 1297 0f80 180093E5 		ldr	r0, [r3, #24]
 1298 0f84 010110E2 		ands	r0, r0, #1073741824
 1299 0f88 FCFFFF1A 		bne	.L227
 1300 0f8c 002093E5 		ldr	r2, [r3]
 1301 0f90 0F2002E2 		and	r2, r2, #15
 1302 0f94 080052E3 		cmp	r2, #8
 1303 0f98 F8FFFF1A 		bne	.L227
 1304 0f9c 043097E5 		ldr	r3, [r7, #4]
 1305 0fa0 020153E3 		cmp	r3, #-2147483648
 1306 0fa4 0300000A 		beq	.L240
 1307 0fa8 14D04BE2 		sub	sp, fp, #20
 1308              		@ sp needed
 1309 0fac F048BDE8 		pop	{r4, r5, r6, r7, fp, lr}
 1310 0fb0 0CD08DE2 		add	sp, sp, #12
 1311 0fb4 1EFF2FE1 		bx	lr
ARM GAS  C:\Users\ldebo\AppData\Local\Temp\ccpehfH9.s 			page 24


 1312              	.L240:
 1313 0fb8 000055E3 		cmp	r5, #0
 1314 0fbc 04504512 		subne	r5, r5, #4
 1315 0fc0 0300000A 		beq	.L232
 1316              	.L231:
 1317 0fc4 0430B6E5 		ldr	r3, [r6, #4]!
 1318 0fc8 040056E1 		cmp	r6, r4
 1319 0fcc 0430A5E5 		str	r3, [r5, #4]!
 1320 0fd0 FBFFFF1A 		bne	.L231
 1321              	.L232:
 1322 0fd4 0100A0E3 		mov	r0, #1
 1323 0fd8 14D04BE2 		sub	sp, fp, #20
 1324              		@ sp needed
 1325 0fdc F048BDE8 		pop	{r4, r5, r6, r7, fp, lr}
 1326 0fe0 0CD08DE2 		add	sp, sp, #12
 1327 0fe4 1EFF2FE1 		bx	lr
 1328              		.size	mailbox_tag_message.constprop.7, .-mailbox_tag_message.constprop.7
 1329              		.align	2
 1330              		.syntax unified
 1331              		.arm
 1332              		.fpu neon-vfpv4
 1333              		.type	mailbox_tag_message.constprop.5, %function
 1334              	mailbox_tag_message.constprop.5:
 1335              		@ args = 4, pretend = 12, frame = 8
 1336              		@ frame_needed = 1, uses_anonymous_args = 1
 1337 0fe8 0E002DE9 		push	{r1, r2, r3}
 1338 0fec 0020A0E3 		mov	r2, #0
 1339 0ff0 F0482DE9 		push	{r4, r5, r6, r7, fp, lr}
 1340 0ff4 2070A0E3 		mov	r7, #32
 1341 0ff8 0050A0E1 		mov	r5, r0
 1342 0ffc 14B08DE2 		add	fp, sp, #20
 1343 1000 0CD04DE2 		sub	sp, sp, #12
 1344 1004 90D04DE2 		sub	sp, sp, #144
 1345 1008 0F408DE2 		add	r4, sp, #15
 1346 100c 08308BE2 		add	r3, fp, #8
 1347 1010 0F40C4E3 		bic	r4, r4, #15
 1348 1014 08109BE5 		ldr	r1, [fp, #8]
 1349 1018 0C609BE5 		ldr	r6, [fp, #12]
 1350 101c 0400A0E1 		mov	r0, r4
 1351 1020 10E09BE5 		ldr	lr, [fp, #16]
 1352 1024 14C09BE5 		ldr	ip, [fp, #20]
 1353 1028 081084E5 		str	r1, [r4, #8]
 1354 102c 18109BE5 		ldr	r1, [fp, #24]
 1355 1030 007084E5 		str	r7, [r4]
 1356 1034 181084E5 		str	r1, [r4, #24]
 1357 1038 0C6084E5 		str	r6, [r4, #12]
 1358 103c 10E084E5 		str	lr, [r4, #16]
 1359 1040 14C084E5 		str	ip, [r4, #20]
 1360 1044 1C2084E5 		str	r2, [r4, #28]
 1361 1048 042084E5 		str	r2, [r4, #4]
 1362 104c 1C300BE5 		str	r3, [fp, #-28]
 1363 1050 FEFFFFEB 		bl	ARMaddrToGPUaddr
 1364 1054 003000E3 		movw	r3, #:lower16:RPi_IO_Base_Addr
 1365 1058 003040E3 		movt	r3, #:upper16:RPi_IO_Base_Addr
 1366 105c 0F10C0E3 		bic	r1, r0, #15
 1367 1060 081081E3 		orr	r1, r1, #8
 1368 1064 003093E5 		ldr	r3, [r3]
ARM GAS  C:\Users\ldebo\AppData\Local\Temp\ccpehfH9.s 			page 25


 1369 1068 2E3B83E2 		add	r3, r3, #47104
 1370 106c 803083E2 		add	r3, r3, #128
 1371              	.L242:
 1372 1070 382093E5 		ldr	r2, [r3, #56]
 1373 1074 000052E3 		cmp	r2, #0
 1374 1078 FCFFFFBA 		blt	.L242
 1375 107c 201083E5 		str	r1, [r3, #32]
 1376              	.L243:
 1377 1080 180093E5 		ldr	r0, [r3, #24]
 1378 1084 010110E2 		ands	r0, r0, #1073741824
 1379 1088 FCFFFF1A 		bne	.L243
 1380 108c 002093E5 		ldr	r2, [r3]
 1381 1090 0F2002E2 		and	r2, r2, #15
 1382 1094 080052E3 		cmp	r2, #8
 1383 1098 F8FFFF1A 		bne	.L243
 1384 109c 043094E5 		ldr	r3, [r4, #4]
 1385 10a0 020153E3 		cmp	r3, #-2147483648
 1386 10a4 0300000A 		beq	.L253
 1387 10a8 14D04BE2 		sub	sp, fp, #20
 1388              		@ sp needed
 1389 10ac F048BDE8 		pop	{r4, r5, r6, r7, fp, lr}
 1390 10b0 0CD08DE2 		add	sp, sp, #12
 1391 10b4 1EFF2FE1 		bx	lr
 1392              	.L253:
 1393 10b8 000055E3 		cmp	r5, #0
 1394 10bc 0400000A 		beq	.L247
 1395 10c0 0C0084E2 		add	r0, r4, #12
 1396 10c4 08C094E5 		ldr	ip, [r4, #8]
 1397 10c8 00C085E5 		str	ip, [r5]
 1398 10cc 0F0090E8 		ldm	r0, {r0, r1, r2, r3}
 1399 10d0 0F0085E9 		stmib	r5, {r0, r1, r2, r3}
 1400              	.L247:
 1401 10d4 0100A0E3 		mov	r0, #1
 1402 10d8 14D04BE2 		sub	sp, fp, #20
 1403              		@ sp needed
 1404 10dc F048BDE8 		pop	{r4, r5, r6, r7, fp, lr}
 1405 10e0 0CD08DE2 		add	sp, sp, #12
 1406 10e4 1EFF2FE1 		bx	lr
 1407              		.size	mailbox_tag_message.constprop.5, .-mailbox_tag_message.constprop.5
 1408              		.align	2
 1409              		.global	RPi_CpuIdString
 1410              		.syntax unified
 1411              		.arm
 1412              		.fpu neon-vfpv4
 1413              		.type	RPi_CpuIdString, %function
 1414              	RPi_CpuIdString:
 1415              		@ args = 0, pretend = 0, frame = 0
 1416              		@ frame_needed = 0, uses_anonymous_args = 0
 1417              		@ link register save eliminated.
 1418 10e8 003000E3 		movw	r3, #:lower16:RPi_CpuId
 1419 10ec 003040E3 		movt	r3, #:upper16:RPi_CpuId
 1420 10f0 072C00E3 		movw	r2, #3079
 1421 10f4 B030D3E1 		ldrh	r3, [r3]
 1422 10f8 2332A0E1 		lsr	r3, r3, #4
 1423 10fc 020053E1 		cmp	r3, r2
 1424 1100 0A00000A 		beq	.L256
 1425 1104 032D00E3 		movw	r2, #3331
ARM GAS  C:\Users\ldebo\AppData\Local\Temp\ccpehfH9.s 			page 26


 1426 1108 020053E1 		cmp	r3, r2
 1427 110c 0A00000A 		beq	.L257
 1428 1110 761B00E3 		movw	r1, #2934
 1429 1114 002000E3 		movw	r2, #:lower16:.LC3
 1430 1118 002040E3 		movt	r2, #:upper16:.LC3
 1431 111c 010053E1 		cmp	r3, r1
 1432 1120 000000E3 		movw	r0, #:lower16:.LC0
 1433 1124 000040E3 		movt	r0, #:upper16:.LC0
 1434 1128 0200A011 		movne	r0, r2
 1435 112c 1EFF2FE1 		bx	lr
 1436              	.L256:
 1437 1130 000000E3 		movw	r0, #:lower16:.LC1
 1438 1134 000040E3 		movt	r0, #:upper16:.LC1
 1439 1138 1EFF2FE1 		bx	lr
 1440              	.L257:
 1441 113c 000000E3 		movw	r0, #:lower16:.LC2
 1442 1140 000040E3 		movt	r0, #:upper16:.LC2
 1443 1144 1EFF2FE1 		bx	lr
 1444              		.size	RPi_CpuIdString, .-RPi_CpuIdString
 1445              		.align	2
 1446              		.global	gpio_setup
 1447              		.syntax unified
 1448              		.arm
 1449              		.fpu neon-vfpv4
 1450              		.type	gpio_setup, %function
 1451              	gpio_setup:
 1452              		@ args = 0, pretend = 0, frame = 0
 1453              		@ frame_needed = 0, uses_anonymous_args = 0
 1454 1148 070051E3 		cmp	r1, #7
 1455 114c 36005093 		cmpls	r0, #54
 1456 1150 1500008A 		bhi	.L262
 1457 1154 CD3C0CE3 		movw	r3, #52429
 1458 1158 CC3C4CE3 		movt	r3, 52428
 1459 115c 0020A0E1 		mov	r2, r0
 1460 1160 00C000E3 		movw	ip, #:lower16:RPi_IO_Base_Addr
 1461 1164 00C040E3 		movt	ip, #:upper16:RPi_IO_Base_Addr
 1462 1168 F0402DE9 		push	{r4, r5, r6, r7, lr}
 1463 116c 906387E0 		umull	r6, r7, r0, r3
 1464 1170 0A50A0E3 		mov	r5, #10
 1465 1174 00E09CE5 		ldr	lr, [ip]
 1466 1178 930283E0 		umull	r0, r3, r3, r2
 1467 117c A7C1A0E1 		lsr	ip, r7, #3
 1468 1180 0100A0E3 		mov	r0, #1
 1469 1184 A331A0E1 		lsr	r3, r3, #3
 1470 1188 02E68EE2 		add	lr, lr, #2097152
 1471 118c 0740A0E3 		mov	r4, #7
 1472 1190 952C62E0 		mls	r2, r5, ip, r2
 1473 1194 03C19EE7 		ldr	ip, [lr, r3, lsl #2]
 1474 1198 122082E0 		add	r2, r2, r2, lsl r0
 1475 119c 14C2CCE1 		bic	ip, ip, r4, lsl r2
 1476 11a0 11228CE1 		orr	r2, ip, r1, lsl r2
 1477 11a4 03218EE7 		str	r2, [lr, r3, lsl #2]
 1478 11a8 F080BDE8 		pop	{r4, r5, r6, r7, pc}
 1479              	.L262:
 1480 11ac 0000A0E3 		mov	r0, #0
 1481 11b0 1EFF2FE1 		bx	lr
 1482              		.size	gpio_setup, .-gpio_setup
ARM GAS  C:\Users\ldebo\AppData\Local\Temp\ccpehfH9.s 			page 27


 1483              		.align	2
 1484              		.global	gpio_output
 1485              		.syntax unified
 1486              		.arm
 1487              		.fpu neon-vfpv4
 1488              		.type	gpio_output, %function
 1489              	gpio_output:
 1490              		@ args = 0, pretend = 0, frame = 0
 1491              		@ frame_needed = 0, uses_anonymous_args = 0
 1492              		@ link register save eliminated.
 1493 11b4 360050E3 		cmp	r0, #54
 1494 11b8 1600008A 		bhi	.L270
 1495 11bc 1F3000E2 		and	r3, r0, #31
 1496 11c0 0120A0E3 		mov	r2, #1
 1497 11c4 000051E3 		cmp	r1, #0
 1498 11c8 12C3A0E1 		lsl	ip, r2, r3
 1499 11cc 0800001A 		bne	.L271
 1500 11d0 001000E3 		movw	r1, #:lower16:RPi_IO_Base_Addr
 1501 11d4 001040E3 		movt	r1, #:upper16:RPi_IO_Base_Addr
 1502 11d8 A032A0E1 		lsr	r3, r0, #5
 1503 11dc 0200A0E1 		mov	r0, r2
 1504 11e0 0A3083E2 		add	r3, r3, #10
 1505 11e4 002091E5 		ldr	r2, [r1]
 1506 11e8 022682E2 		add	r2, r2, #2097152
 1507 11ec 03C182E7 		str	ip, [r2, r3, lsl #2]
 1508 11f0 1EFF2FE1 		bx	lr
 1509              	.L271:
 1510 11f4 002000E3 		movw	r2, #:lower16:RPi_IO_Base_Addr
 1511 11f8 002040E3 		movt	r2, #:upper16:RPi_IO_Base_Addr
 1512 11fc A032A0E1 		lsr	r3, r0, #5
 1513 1200 0100A0E1 		mov	r0, r1
 1514 1204 002092E5 		ldr	r2, [r2]
 1515 1208 033182E0 		add	r3, r2, r3, lsl #2
 1516 120c 023683E2 		add	r3, r3, #2097152
 1517 1210 1CC083E5 		str	ip, [r3, #28]
 1518 1214 1EFF2FE1 		bx	lr
 1519              	.L270:
 1520 1218 0000A0E3 		mov	r0, #0
 1521 121c 1EFF2FE1 		bx	lr
 1522              		.size	gpio_output, .-gpio_output
 1523              		.align	2
 1524              		.global	gpio_input
 1525              		.syntax unified
 1526              		.arm
 1527              		.fpu neon-vfpv4
 1528              		.type	gpio_input, %function
 1529              	gpio_input:
 1530              		@ args = 0, pretend = 0, frame = 0
 1531              		@ frame_needed = 0, uses_anonymous_args = 0
 1532              		@ link register save eliminated.
 1533 1220 360050E3 		cmp	r0, #54
 1534 1224 0D00008A 		bhi	.L274
 1535 1228 002000E3 		movw	r2, #:lower16:RPi_IO_Base_Addr
 1536 122c 002040E3 		movt	r2, #:upper16:RPi_IO_Base_Addr
 1537 1230 A0C2A0E1 		lsr	ip, r0, #5
 1538 1234 0110A0E3 		mov	r1, #1
 1539 1238 1F0000E2 		and	r0, r0, #31
ARM GAS  C:\Users\ldebo\AppData\Local\Temp\ccpehfH9.s 			page 28


 1540 123c 003092E5 		ldr	r3, [r2]
 1541 1240 0C3183E0 		add	r3, r3, ip, lsl #2
 1542 1244 023683E2 		add	r3, r3, #2097152
 1543 1248 303083E2 		add	r3, r3, #48
 1544 124c 043093E5 		ldr	r3, [r3, #4]
 1545 1250 113013E0 		ands	r3, r3, r1, lsl r0
 1546 1254 0100A011 		movne	r0, r1
 1547 1258 0000A003 		moveq	r0, #0
 1548 125c 1EFF2FE1 		bx	lr
 1549              	.L274:
 1550 1260 0000A0E3 		mov	r0, #0
 1551 1264 1EFF2FE1 		bx	lr
 1552              		.size	gpio_input, .-gpio_input
 1553              		.align	2
 1554              		.global	gpio_checkEvent
 1555              		.syntax unified
 1556              		.arm
 1557              		.fpu neon-vfpv4
 1558              		.type	gpio_checkEvent, %function
 1559              	gpio_checkEvent:
 1560              		@ args = 0, pretend = 0, frame = 0
 1561              		@ frame_needed = 0, uses_anonymous_args = 0
 1562              		@ link register save eliminated.
 1563 1268 360050E3 		cmp	r0, #54
 1564 126c 0C00008A 		bhi	.L277
 1565 1270 003000E3 		movw	r3, #:lower16:RPi_IO_Base_Addr
 1566 1274 003040E3 		movt	r3, #:upper16:RPi_IO_Base_Addr
 1567 1278 A022A0E1 		lsr	r2, r0, #5
 1568 127c 0110A0E3 		mov	r1, #1
 1569 1280 102082E2 		add	r2, r2, #16
 1570 1284 1F0000E2 		and	r0, r0, #31
 1571 1288 003093E5 		ldr	r3, [r3]
 1572 128c 023683E2 		add	r3, r3, #2097152
 1573 1290 023193E7 		ldr	r3, [r3, r2, lsl #2]
 1574 1294 113013E0 		ands	r3, r3, r1, lsl r0
 1575 1298 0100A011 		movne	r0, r1
 1576 129c 0000A003 		moveq	r0, #0
 1577 12a0 1EFF2FE1 		bx	lr
 1578              	.L277:
 1579 12a4 0000A0E3 		mov	r0, #0
 1580 12a8 1EFF2FE1 		bx	lr
 1581              		.size	gpio_checkEvent, .-gpio_checkEvent
 1582              		.align	2
 1583              		.global	gpio_clearEvent
 1584              		.syntax unified
 1585              		.arm
 1586              		.fpu neon-vfpv4
 1587              		.type	gpio_clearEvent, %function
 1588              	gpio_clearEvent:
 1589              		@ args = 0, pretend = 0, frame = 0
 1590              		@ frame_needed = 0, uses_anonymous_args = 0
 1591              		@ link register save eliminated.
 1592 12ac 360050E3 		cmp	r0, #54
 1593 12b0 0B00008A 		bhi	.L280
 1594 12b4 001000E3 		movw	r1, #:lower16:RPi_IO_Base_Addr
 1595 12b8 001040E3 		movt	r1, #:upper16:RPi_IO_Base_Addr
 1596 12bc 1FC000E2 		and	ip, r0, #31
ARM GAS  C:\Users\ldebo\AppData\Local\Temp\ccpehfH9.s 			page 29


 1597 12c0 0120A0E3 		mov	r2, #1
 1598 12c4 A002A0E1 		lsr	r0, r0, #5
 1599 12c8 001091E5 		ldr	r1, [r1]
 1600 12cc 103080E2 		add	r3, r0, #16
 1601 12d0 0200A0E1 		mov	r0, r2
 1602 12d4 122CA0E1 		lsl	r2, r2, ip
 1603 12d8 021681E2 		add	r1, r1, #2097152
 1604 12dc 032181E7 		str	r2, [r1, r3, lsl #2]
 1605 12e0 1EFF2FE1 		bx	lr
 1606              	.L280:
 1607 12e4 0000A0E3 		mov	r0, #0
 1608 12e8 1EFF2FE1 		bx	lr
 1609              		.size	gpio_clearEvent, .-gpio_clearEvent
 1610              		.align	2
 1611              		.global	gpio_edgeDetect
 1612              		.syntax unified
 1613              		.arm
 1614              		.fpu neon-vfpv4
 1615              		.type	gpio_edgeDetect, %function
 1616              	gpio_edgeDetect:
 1617              		@ args = 0, pretend = 0, frame = 0
 1618              		@ frame_needed = 0, uses_anonymous_args = 0
 1619 12ec 360050E3 		cmp	r0, #54
 1620 12f0 1B00008A 		bhi	.L286
 1621 12f4 1F3000E2 		and	r3, r0, #31
 1622 12f8 01C0A0E3 		mov	ip, #1
 1623 12fc 000051E3 		cmp	r1, #0
 1624 1300 04E02DE5 		str	lr, [sp, #-4]!
 1625 1304 1CE3A0E1 		lsl	lr, ip, r3
 1626 1308 0A00000A 		beq	.L283
 1627 130c 000052E3 		cmp	r2, #0
 1628 1310 1500000A 		beq	.L284
 1629 1314 001000E3 		movw	r1, #:lower16:RPi_IO_Base_Addr
 1630 1318 001040E3 		movt	r1, #:upper16:RPi_IO_Base_Addr
 1631 131c A032A0E1 		lsr	r3, r0, #5
 1632 1320 0200A0E1 		mov	r0, r2
 1633 1324 002091E5 		ldr	r2, [r1]
 1634 1328 033182E0 		add	r3, r2, r3, lsl #2
 1635 132c 023683E2 		add	r3, r3, #2097152
 1636 1330 7CE083E5 		str	lr, [r3, #124]
 1637 1334 04F09DE4 		ldr	pc, [sp], #4
 1638              	.L283:
 1639 1338 000052E3 		cmp	r2, #0
 1640 133c 1300001A 		bne	.L291
 1641 1340 002000E3 		movw	r2, #:lower16:RPi_IO_Base_Addr
 1642 1344 002040E3 		movt	r2, #:upper16:RPi_IO_Base_Addr
 1643 1348 A032A0E1 		lsr	r3, r0, #5
 1644 134c 0C00A0E1 		mov	r0, ip
 1645 1350 163083E2 		add	r3, r3, #22
 1646 1354 002092E5 		ldr	r2, [r2]
 1647 1358 022682E2 		add	r2, r2, #2097152
 1648 135c 03E182E7 		str	lr, [r2, r3, lsl #2]
 1649 1360 04F09DE4 		ldr	pc, [sp], #4
 1650              	.L286:
 1651 1364 0000A0E3 		mov	r0, #0
 1652 1368 1EFF2FE1 		bx	lr
 1653              	.L284:
ARM GAS  C:\Users\ldebo\AppData\Local\Temp\ccpehfH9.s 			page 30


 1654 136c 002000E3 		movw	r2, #:lower16:RPi_IO_Base_Addr
 1655 1370 002040E3 		movt	r2, #:upper16:RPi_IO_Base_Addr
 1656 1374 A032A0E1 		lsr	r3, r0, #5
 1657 1378 0100A0E1 		mov	r0, r1
 1658 137c 002092E5 		ldr	r2, [r2]
 1659 1380 033182E0 		add	r3, r2, r3, lsl #2
 1660 1384 023683E2 		add	r3, r3, #2097152
 1661 1388 4CE083E5 		str	lr, [r3, #76]
 1662 138c 04F09DE4 		ldr	pc, [sp], #4
 1663              	.L291:
 1664 1390 001000E3 		movw	r1, #:lower16:RPi_IO_Base_Addr
 1665 1394 001040E3 		movt	r1, #:upper16:RPi_IO_Base_Addr
 1666 1398 A032A0E1 		lsr	r3, r0, #5
 1667 139c 0200A0E1 		mov	r0, r2
 1668 13a0 223083E2 		add	r3, r3, #34
 1669 13a4 002091E5 		ldr	r2, [r1]
 1670 13a8 022682E2 		add	r2, r2, #2097152
 1671 13ac 03E182E7 		str	lr, [r2, r3, lsl #2]
 1672 13b0 04F09DE4 		ldr	pc, [sp], #4
 1673              		.size	gpio_edgeDetect, .-gpio_edgeDetect
 1674              		.align	2
 1675              		.global	gpio_fixResistor
 1676              		.syntax unified
 1677              		.arm
 1678              		.fpu neon-vfpv4
 1679              		.type	gpio_fixResistor, %function
 1680              	gpio_fixResistor:
 1681              		@ args = 0, pretend = 0, frame = 0
 1682              		@ frame_needed = 0, uses_anonymous_args = 0
 1683 13b4 360050E3 		cmp	r0, #54
 1684 13b8 02005193 		cmpls	r1, #2
 1685 13bc 4700008A 		bhi	.L300
 1686 13c0 003000E3 		movw	r3, #:lower16:RPi_IO_Base_Addr
 1687 13c4 003040E3 		movt	r3, #:upper16:RPi_IO_Base_Addr
 1688 13c8 F0432DE9 		push	{r4, r5, r6, r7, r8, r9, lr}
 1689 13cc 003093E5 		ldr	r3, [r3]
 1690 13d0 022683E2 		add	r2, r3, #2097152
 1691 13d4 033A83E2 		add	r3, r3, #12288
 1692 13d8 941082E5 		str	r1, [r2, #148]
 1693              	.L294:
 1694 13dc 084093E5 		ldr	r4, [r3, #8]
 1695 13e0 0050A0E3 		mov	r5, #0
 1696 13e4 041093E5 		ldr	r1, [r3, #4]
 1697 13e8 0070A0E3 		mov	r7, #0
 1698 13ec 086093E5 		ldr	r6, [r3, #8]
 1699 13f0 070055E1 		cmp	r5, r7
 1700 13f4 06005401 		cmpeq	r4, r6
 1701 13f8 F7FFFF1A 		bne	.L294
 1702 13fc 0080A0E3 		mov	r8, #0
 1703 1400 0490A0E1 		mov	r9, r4
 1704 1404 018088E1 		orr	r8, r8, r1
 1705 1408 028098E2 		adds	r8, r8, #2
 1706 140c 0090A9E2 		adc	r9, r9, #0
 1707              	.L295:
 1708 1410 084093E5 		ldr	r4, [r3, #8]
 1709 1414 0050A0E3 		mov	r5, #0
 1710 1418 041093E5 		ldr	r1, [r3, #4]
ARM GAS  C:\Users\ldebo\AppData\Local\Temp\ccpehfH9.s 			page 31


 1711 141c 0070A0E3 		mov	r7, #0
 1712 1420 086093E5 		ldr	r6, [r3, #8]
 1713 1424 070055E1 		cmp	r5, r7
 1714 1428 06005401 		cmpeq	r4, r6
 1715 142c F7FFFF1A 		bne	.L295
 1716 1430 0450A0E1 		mov	r5, r4
 1717 1434 0040A0E3 		mov	r4, #0
 1718 1438 014084E1 		orr	r4, r4, r1
 1719 143c 050059E1 		cmp	r9, r5
 1720 1440 04005801 		cmpeq	r8, r4
 1721 1444 F1FFFF8A 		bhi	.L295
 1722 1448 A0E2A0E1 		lsr	lr, r0, #5
 1723 144c 0110A0E3 		mov	r1, #1
 1724 1450 1F0000E2 		and	r0, r0, #31
 1725 1454 0EE182E0 		add	lr, r2, lr, lsl #2
 1726 1458 1100A0E1 		lsl	r0, r1, r0
 1727 145c 98008EE5 		str	r0, [lr, #152]
 1728              	.L297:
 1729 1460 080093E5 		ldr	r0, [r3, #8]
 1730 1464 0010A0E3 		mov	r1, #0
 1731 1468 04C093E5 		ldr	ip, [r3, #4]
 1732 146c 0050A0E3 		mov	r5, #0
 1733 1470 084093E5 		ldr	r4, [r3, #8]
 1734 1474 050051E1 		cmp	r1, r5
 1735 1478 04005001 		cmpeq	r0, r4
 1736 147c F7FFFF1A 		bne	.L297
 1737 1480 0040A0E3 		mov	r4, #0
 1738 1484 0050A0E1 		mov	r5, r0
 1739 1488 0C4084E1 		orr	r4, r4, ip
 1740 148c 024094E2 		adds	r4, r4, #2
 1741 1490 0050A5E2 		adc	r5, r5, #0
 1742              	.L298:
 1743 1494 080093E5 		ldr	r0, [r3, #8]
 1744 1498 0010A0E3 		mov	r1, #0
 1745 149c 04C093E5 		ldr	ip, [r3, #4]
 1746 14a0 0070A0E3 		mov	r7, #0
 1747 14a4 086093E5 		ldr	r6, [r3, #8]
 1748 14a8 070051E1 		cmp	r1, r7
 1749 14ac 06005001 		cmpeq	r0, r6
 1750 14b0 F7FFFF1A 		bne	.L298
 1751 14b4 0010A0E1 		mov	r1, r0
 1752 14b8 0000A0E3 		mov	r0, #0
 1753 14bc 0C0080E1 		orr	r0, r0, ip
 1754 14c0 010055E1 		cmp	r5, r1
 1755 14c4 00005401 		cmpeq	r4, r0
 1756 14c8 F1FFFF8A 		bhi	.L298
 1757 14cc 0030A0E3 		mov	r3, #0
 1758 14d0 0100A0E3 		mov	r0, #1
 1759 14d4 943082E5 		str	r3, [r2, #148]
 1760 14d8 98308EE5 		str	r3, [lr, #152]
 1761 14dc F083BDE8 		pop	{r4, r5, r6, r7, r8, r9, pc}
 1762              	.L300:
 1763 14e0 0000A0E3 		mov	r0, #0
 1764 14e4 1EFF2FE1 		bx	lr
 1765              		.size	gpio_fixResistor, .-gpio_fixResistor
 1766              		.align	2
 1767              		.global	timer_getTickCount
ARM GAS  C:\Users\ldebo\AppData\Local\Temp\ccpehfH9.s 			page 32


 1768              		.syntax unified
 1769              		.arm
 1770              		.fpu neon-vfpv4
 1771              		.type	timer_getTickCount, %function
 1772              	timer_getTickCount:
 1773              		@ args = 0, pretend = 0, frame = 0
 1774              		@ frame_needed = 0, uses_anonymous_args = 0
 1775              		@ link register save eliminated.
 1776 14e8 003000E3 		movw	r3, #:lower16:RPi_IO_Base_Addr
 1777 14ec 003040E3 		movt	r3, #:upper16:RPi_IO_Base_Addr
 1778 14f0 30002DE9 		push	{r4, r5}
 1779 14f4 001093E5 		ldr	r1, [r3]
 1780 14f8 031A81E2 		add	r1, r1, #12288
 1781              	.L312:
 1782 14fc 082091E5 		ldr	r2, [r1, #8]
 1783 1500 0030A0E3 		mov	r3, #0
 1784 1504 040091E5 		ldr	r0, [r1, #4]
 1785 1508 0050A0E3 		mov	r5, #0
 1786 150c 084091E5 		ldr	r4, [r1, #8]
 1787 1510 050053E1 		cmp	r3, r5
 1788 1514 04005201 		cmpeq	r2, r4
 1789 1518 F7FFFF1A 		bne	.L312
 1790 151c 0230A0E1 		mov	r3, r2
 1791 1520 0020A0E3 		mov	r2, #0
 1792 1524 002082E1 		orr	r2, r2, r0
 1793 1528 0200A0E1 		mov	r0, r2
 1794 152c 0310A0E1 		mov	r1, r3
 1795 1530 3000BDE8 		pop	{r4, r5}
 1796 1534 1EFF2FE1 		bx	lr
 1797              		.size	timer_getTickCount, .-timer_getTickCount
 1798              		.align	2
 1799              		.global	timer_wait
 1800              		.syntax unified
 1801              		.arm
 1802              		.fpu neon-vfpv4
 1803              		.type	timer_wait, %function
 1804              	timer_wait:
 1805              		@ args = 0, pretend = 0, frame = 0
 1806              		@ frame_needed = 0, uses_anonymous_args = 0
 1807 1538 003000E3 		movw	r3, #:lower16:RPi_IO_Base_Addr
 1808 153c 003040E3 		movt	r3, #:upper16:RPi_IO_Base_Addr
 1809 1540 30402DE9 		push	{r4, r5, lr}
 1810 1544 00C093E5 		ldr	ip, [r3]
 1811 1548 03CA8CE2 		add	ip, ip, #12288
 1812              	.L316:
 1813 154c 08209CE5 		ldr	r2, [ip, #8]
 1814 1550 0030A0E3 		mov	r3, #0
 1815 1554 04E09CE5 		ldr	lr, [ip, #4]
 1816 1558 0050A0E3 		mov	r5, #0
 1817 155c 08409CE5 		ldr	r4, [ip, #8]
 1818 1560 050053E1 		cmp	r3, r5
 1819 1564 04005201 		cmpeq	r2, r4
 1820 1568 F7FFFF1A 		bne	.L316
 1821 156c 0040A0E3 		mov	r4, #0
 1822 1570 0250A0E1 		mov	r5, r2
 1823 1574 0E4084E1 		orr	r4, r4, lr
 1824 1578 004094E0 		adds	r4, r4, r0
ARM GAS  C:\Users\ldebo\AppData\Local\Temp\ccpehfH9.s 			page 33


 1825 157c 0150A5E0 		adc	r5, r5, r1
 1826              	.L317:
 1827 1580 08209CE5 		ldr	r2, [ip, #8]
 1828 1584 0030A0E3 		mov	r3, #0
 1829 1588 04E09CE5 		ldr	lr, [ip, #4]
 1830 158c 0010A0E3 		mov	r1, #0
 1831 1590 08009CE5 		ldr	r0, [ip, #8]
 1832 1594 010053E1 		cmp	r3, r1
 1833 1598 00005201 		cmpeq	r2, r0
 1834 159c F7FFFF1A 		bne	.L317
 1835 15a0 0230A0E1 		mov	r3, r2
 1836 15a4 0020A0E3 		mov	r2, #0
 1837 15a8 0E2082E1 		orr	r2, r2, lr
 1838 15ac 030055E1 		cmp	r5, r3
 1839 15b0 02005401 		cmpeq	r4, r2
 1840 15b4 F1FFFF8A 		bhi	.L317
 1841 15b8 3080BDE8 		pop	{r4, r5, pc}
 1842              		.size	timer_wait, .-timer_wait
 1843              		.align	2
 1844              		.global	tick_difference
 1845              		.syntax unified
 1846              		.arm
 1847              		.fpu neon-vfpv4
 1848              		.type	tick_difference, %function
 1849              	tick_difference:
 1850              		@ args = 0, pretend = 0, frame = 0
 1851              		@ frame_needed = 0, uses_anonymous_args = 0
 1852              		@ link register save eliminated.
 1853 15bc 000052E0 		subs	r0, r2, r0
 1854 15c0 0110C3E0 		sbc	r1, r3, r1
 1855 15c4 1EFF2FE1 		bx	lr
 1856              		.size	tick_difference, .-tick_difference
 1857              		.align	2
 1858              		.global	mailbox_write
 1859              		.syntax unified
 1860              		.arm
 1861              		.fpu neon-vfpv4
 1862              		.type	mailbox_write, %function
 1863              	mailbox_write:
 1864              		@ args = 0, pretend = 0, frame = 0
 1865              		@ frame_needed = 0, uses_anonymous_args = 0
 1866              		@ link register save eliminated.
 1867 15c8 090050E3 		cmp	r0, #9
 1868 15cc 0C00008A 		bhi	.L327
 1869 15d0 003000E3 		movw	r3, #:lower16:RPi_IO_Base_Addr
 1870 15d4 003040E3 		movt	r3, #:upper16:RPi_IO_Base_Addr
 1871 15d8 0F10C1E3 		bic	r1, r1, #15
 1872 15dc 010080E1 		orr	r0, r0, r1
 1873 15e0 002093E5 		ldr	r2, [r3]
 1874 15e4 2E2B82E2 		add	r2, r2, #47104
 1875 15e8 802082E2 		add	r2, r2, #128
 1876              	.L326:
 1877 15ec 383092E5 		ldr	r3, [r2, #56]
 1878 15f0 000053E3 		cmp	r3, #0
 1879 15f4 FCFFFFBA 		blt	.L326
 1880 15f8 200082E5 		str	r0, [r2, #32]
 1881 15fc 0100A0E3 		mov	r0, #1
ARM GAS  C:\Users\ldebo\AppData\Local\Temp\ccpehfH9.s 			page 34


 1882 1600 1EFF2FE1 		bx	lr
 1883              	.L327:
 1884 1604 0000A0E3 		mov	r0, #0
 1885 1608 1EFF2FE1 		bx	lr
 1886              		.size	mailbox_write, .-mailbox_write
 1887              		.align	2
 1888              		.global	mailbox_read
 1889              		.syntax unified
 1890              		.arm
 1891              		.fpu neon-vfpv4
 1892              		.type	mailbox_read, %function
 1893              	mailbox_read:
 1894              		@ args = 0, pretend = 0, frame = 0
 1895              		@ frame_needed = 0, uses_anonymous_args = 0
 1896              		@ link register save eliminated.
 1897 160c 090050E3 		cmp	r0, #9
 1898 1610 0200009A 		bls	.L336
 1899 1614 AD0E0DE3 		movw	r0, #57005
 1900 1618 ED0E4FE3 		movt	r0, 65261
 1901 161c 1EFF2FE1 		bx	lr
 1902              	.L336:
 1903 1620 003000E3 		movw	r3, #:lower16:RPi_IO_Base_Addr
 1904 1624 003040E3 		movt	r3, #:upper16:RPi_IO_Base_Addr
 1905 1628 002093E5 		ldr	r2, [r3]
 1906 162c 2E2B82E2 		add	r2, r2, #47104
 1907 1630 802082E2 		add	r2, r2, #128
 1908              	.L331:
 1909 1634 183092E5 		ldr	r3, [r2, #24]
 1910 1638 010113E3 		tst	r3, #1073741824
 1911 163c FCFFFF1A 		bne	.L331
 1912 1640 003092E5 		ldr	r3, [r2]
 1913 1644 0F1003E2 		and	r1, r3, #15
 1914 1648 000051E1 		cmp	r1, r0
 1915 164c F8FFFF1A 		bne	.L331
 1916 1650 0F00C3E3 		bic	r0, r3, #15
 1917 1654 1EFF2FE1 		bx	lr
 1918              		.size	mailbox_read, .-mailbox_read
 1919              		.align	2
 1920              		.global	mailbox_tag_message
 1921              		.syntax unified
 1922              		.arm
 1923              		.fpu neon-vfpv4
 1924              		.type	mailbox_tag_message, %function
 1925              	mailbox_tag_message:
 1926              		@ args = 4, pretend = 12, frame = 8
 1927              		@ frame_needed = 1, uses_anonymous_args = 1
 1928 1658 0E002DE9 		push	{r1, r2, r3}
 1929 165c 0020A0E3 		mov	r2, #0
 1930 1660 70482DE9 		push	{r4, r5, r6, fp, lr}
 1931 1664 0040A0E1 		mov	r4, r0
 1932 1668 10B08DE2 		add	fp, sp, #16
 1933 166c 08D04DE2 		sub	sp, sp, #8
 1934 1670 90D04DE2 		sub	sp, sp, #144
 1935 1674 0F508DE2 		add	r5, sp, #15
 1936 1678 08C08BE2 		add	ip, fp, #8
 1937 167c 0460DBE5 		ldrb	r6, [fp, #4]	@ zero_extendqisi2
 1938 1680 0F50C5E3 		bic	r5, r5, #15
ARM GAS  C:\Users\ldebo\AppData\Local\Temp\ccpehfH9.s 			page 35


 1939 1684 14C00BE5 		str	ip, [fp, #-20]
 1940 1688 033086E2 		add	r3, r6, #3
 1941 168c 021086E2 		add	r1, r6, #2
 1942 1690 020056E1 		cmp	r6, r2
 1943 1694 0331A0E1 		lsl	r3, r3, #2
 1944 1698 003085E5 		str	r3, [r5]
 1945 169c 012185E7 		str	r2, [r5, r1, lsl #2]
 1946 16a0 042085E5 		str	r2, [r5, #4]
 1947 16a4 0700000A 		beq	.L341
 1948 16a8 010086E2 		add	r0, r6, #1
 1949 16ac 04208BE2 		add	r2, fp, #4
 1950 16b0 043085E2 		add	r3, r5, #4
 1951 16b4 000185E0 		add	r0, r5, r0, lsl #2
 1952              	.L340:
 1953 16b8 0410B2E5 		ldr	r1, [r2, #4]!
 1954 16bc 0410A3E5 		str	r1, [r3, #4]!
 1955 16c0 000053E1 		cmp	r3, r0
 1956 16c4 FBFFFF1A 		bne	.L340
 1957              	.L341:
 1958 16c8 0500A0E1 		mov	r0, r5
 1959 16cc FEFFFFEB 		bl	ARMaddrToGPUaddr
 1960 16d0 003000E3 		movw	r3, #:lower16:RPi_IO_Base_Addr
 1961 16d4 003040E3 		movt	r3, #:upper16:RPi_IO_Base_Addr
 1962 16d8 0F10C0E3 		bic	r1, r0, #15
 1963 16dc 081081E3 		orr	r1, r1, #8
 1964 16e0 003093E5 		ldr	r3, [r3]
 1965 16e4 2E3B83E2 		add	r3, r3, #47104
 1966 16e8 803083E2 		add	r3, r3, #128
 1967              	.L339:
 1968 16ec 382093E5 		ldr	r2, [r3, #56]
 1969 16f0 000052E3 		cmp	r2, #0
 1970 16f4 FCFFFFBA 		blt	.L339
 1971 16f8 201083E5 		str	r1, [r3, #32]
 1972              	.L342:
 1973 16fc 180093E5 		ldr	r0, [r3, #24]
 1974 1700 010110E2 		ands	r0, r0, #1073741824
 1975 1704 FCFFFF1A 		bne	.L342
 1976 1708 002093E5 		ldr	r2, [r3]
 1977 170c 0F2002E2 		and	r2, r2, #15
 1978 1710 080052E3 		cmp	r2, #8
 1979 1714 F8FFFF1A 		bne	.L342
 1980 1718 043095E5 		ldr	r3, [r5, #4]
 1981 171c 020153E3 		cmp	r3, #-2147483648
 1982 1720 0300000A 		beq	.L358
 1983 1724 10D04BE2 		sub	sp, fp, #16
 1984              		@ sp needed
 1985 1728 7048BDE8 		pop	{r4, r5, r6, fp, lr}
 1986 172c 0CD08DE2 		add	sp, sp, #12
 1987 1730 1EFF2FE1 		bx	lr
 1988              	.L358:
 1989 1734 000054E3 		cmp	r4, #0
 1990 1738 0900000A 		beq	.L346
 1991 173c 000056E3 		cmp	r6, #0
 1992 1740 0700000A 		beq	.L346
 1993 1744 016086E2 		add	r6, r6, #1
 1994 1748 043085E2 		add	r3, r5, #4
 1995 174c 044044E2 		sub	r4, r4, #4
ARM GAS  C:\Users\ldebo\AppData\Local\Temp\ccpehfH9.s 			page 36


 1996 1750 065185E0 		add	r5, r5, r6, lsl #2
 1997              	.L347:
 1998 1754 0420B3E5 		ldr	r2, [r3, #4]!
 1999 1758 050053E1 		cmp	r3, r5
 2000 175c 0420A4E5 		str	r2, [r4, #4]!
 2001 1760 FBFFFF1A 		bne	.L347
 2002              	.L346:
 2003 1764 0100A0E3 		mov	r0, #1
 2004 1768 10D04BE2 		sub	sp, fp, #16
 2005              		@ sp needed
 2006 176c 7048BDE8 		pop	{r4, r5, r6, fp, lr}
 2007 1770 0CD08DE2 		add	sp, sp, #12
 2008 1774 1EFF2FE1 		bx	lr
 2009              		.size	mailbox_tag_message, .-mailbox_tag_message
 2010              		.global	__aeabi_uldivmod
 2011              		.align	2
 2012              		.global	TimerIrqSetup
 2013              		.syntax unified
 2014              		.arm
 2015              		.fpu neon-vfpv4
 2016              		.type	TimerIrqSetup, %function
 2017              	TimerIrqSetup:
 2018              		@ args = 0, pretend = 0, frame = 24
 2019              		@ frame_needed = 0, uses_anonymous_args = 0
 2020 1778 F0412DE9 		push	{r4, r5, r6, r7, r8, lr}
 2021 177c 005000E3 		movw	r5, #:lower16:RPi_IO_Base_Addr
 2022 1780 005040E3 		movt	r5, #:upper16:RPi_IO_Base_Addr
 2023 1784 1000C0F2 		vmov.i32	d16, #0  @ v8qi
 2024 1788 28D04DE2 		sub	sp, sp, #40
 2025 178c 0160A0E1 		mov	r6, r1
 2026 1790 08C0A0E3 		mov	ip, #8
 2027 1794 003095E5 		ldr	r3, [r5]
 2028 1798 0040A0E3 		mov	r4, #0
 2029 179c 0480A0E3 		mov	r8, #4
 2030 17a0 0070A0E1 		mov	r7, r0
 2031 17a4 2D1B83E2 		add	r1, r3, #46080
 2032 17a8 14008DE2 		add	r0, sp, #20
 2033 17ac 070BCDED 		vstr	d16, [sp, #28]
 2034 17b0 0C30A0E1 		mov	r3, ip
 2035 17b4 050BCDED 		vstr	d16, [sp, #20]
 2036 17b8 0220A0E3 		mov	r2, #2
 2037 17bc 032040E3 		movt	r2, 3
 2038 17c0 080BCDED 		vstr	d16, [sp, #32]
 2039 17c4 08E091E5 		ldr	lr, [r1, #8]
 2040 17c8 9FE3C7E7 		bfc	lr, #7, #1
 2041 17cc 08E081E5 		str	lr, [r1, #8]
 2042 17d0 0510A0E3 		mov	r1, #5
 2043 17d4 00C08DE5 		str	ip, [sp]
 2044 17d8 08408DE5 		str	r4, [sp, #8]
 2045 17dc 04808DE5 		str	r8, [sp, #4]
 2046 17e0 00FEFFEB 		bl	mailbox_tag_message.constprop.5
 2047 17e4 24009DE5 		ldr	r0, [sp, #36]
 2048 17e8 D31D04E3 		movw	r1, #19923
 2049 17ec 621041E3 		movt	r1, 4194
 2050 17f0 0030A0E3 		mov	r3, #0
 2051 17f4 402204E3 		movw	r2, #16960
 2052 17f8 0F2040E3 		movt	r2, 15
ARM GAS  C:\Users\ldebo\AppData\Local\Temp\ccpehfH9.s 			page 37


 2053 17fc 911080E0 		umull	r1, r0, r1, r0
 2054 1800 3008A0E1 		lsr	r0, r0, r8
 2055 1804 24008DE5 		str	r0, [sp, #36]
 2056 1808 970081E0 		umull	r0, r1, r7, r0
 2057 180c FEFFFFEB 		bl	__aeabi_uldivmod
 2058 1810 0070A0E1 		mov	r7, r0
 2059 1814 0600A0E1 		mov	r0, r6
 2060 1818 FEFFFFEB 		bl	setTimerIrqAddress
 2061 181c 003095E5 		ldr	r3, [r5]
 2062 1820 B21C83E2 		add	r1, r3, #45568
 2063 1824 2D3B83E2 		add	r3, r3, #46080
 2064 1828 182091E5 		ldr	r2, [r1, #24]
 2065 182c 012082E3 		orr	r2, r2, #1
 2066 1830 182081E5 		str	r2, [r1, #24]
 2067 1834 007083E5 		str	r7, [r3]
 2068 1838 082093E5 		ldr	r2, [r3, #8]
 2069 183c 022082E3 		orr	r2, r2, #2
 2070 1840 082083E5 		str	r2, [r3, #8]
 2071 1844 0820D3E5 		ldrb	r2, [r3, #8]	@ zero_extendqisi2
 2072 1848 1421C3E7 		bfi	r2, r4, #2, #2
 2073 184c 0820C3E5 		strb	r2, [r3, #8]
 2074 1850 082093E5 		ldr	r2, [r3, #8]
 2075 1854 202082E3 		orr	r2, r2, #32
 2076 1858 082083E5 		str	r2, [r3, #8]
 2077 185c 082093E5 		ldr	r2, [r3, #8]
 2078 1860 802082E3 		orr	r2, r2, #128
 2079 1864 082083E5 		str	r2, [r3, #8]
 2080 1868 28D08DE2 		add	sp, sp, #40
 2081              		@ sp needed
 2082 186c F081BDE8 		pop	{r4, r5, r6, r7, r8, pc}
 2083              		.size	TimerIrqSetup, .-TimerIrqSetup
 2084              		.align	2
 2085              		.global	set_Activity_LED
 2086              		.syntax unified
 2087              		.arm
 2088              		.fpu neon-vfpv4
 2089              		.type	set_Activity_LED, %function
 2090              	set_Activity_LED:
 2091              		@ args = 0, pretend = 0, frame = 16
 2092              		@ frame_needed = 0, uses_anonymous_args = 0
 2093 1870 003000E3 		movw	r3, #:lower16:RPi_CpuId
 2094 1874 003040E3 		movt	r3, #:upper16:RPi_CpuId
 2095 1878 072C00E3 		movw	r2, #3079
 2096 187c B030D3E1 		ldrh	r3, [r3]
 2097 1880 2332A0E1 		lsr	r3, r3, #4
 2098 1884 020053E1 		cmp	r3, r2
 2099 1888 3400000A 		beq	.L363
 2100 188c 032D00E3 		movw	r2, #3331
 2101 1890 10402DE9 		push	{r4, lr}
 2102 1894 020053E1 		cmp	r3, r2
 2103 1898 20D04DE2 		sub	sp, sp, #32
 2104 189c 0040A0E1 		mov	r4, r0
 2105 18a0 2100000A 		beq	.L364
 2106 18a4 762B00E3 		movw	r2, #2934
 2107 18a8 020053E1 		cmp	r3, r2
 2108 18ac 0000A013 		movne	r0, #0
 2109 18b0 0100000A 		beq	.L382
ARM GAS  C:\Users\ldebo\AppData\Local\Temp\ccpehfH9.s 			page 38


 2110              	.L362:
 2111 18b4 20D08DE2 		add	sp, sp, #32
 2112              		@ sp needed
 2113 18b8 1080BDE8 		pop	{r4, pc}
 2114              	.L382:
 2115 18bc 00C000E3 		movw	ip, #:lower16:.LANCHOR1
 2116 18c0 00C040E3 		movt	ip, #:upper16:.LANCHOR1
 2117 18c4 0020DCE5 		ldrb	r2, [ip]	@ zero_extendqisi2
 2118 18c8 000052E3 		cmp	r2, #0
 2119 18cc 2F00000A 		beq	.L383
 2120              	.L381:
 2121 18d0 003000E3 		movw	r3, #:lower16:.LANCHOR2
 2122 18d4 003040E3 		movt	r3, #:upper16:.LANCHOR2
 2123 18d8 003093E5 		ldr	r3, [r3]
 2124 18dc 360053E3 		cmp	r3, #54
 2125 18e0 0100A083 		movhi	r0, #1
 2126 18e4 F2FFFF8A 		bhi	.L362
 2127              	.L376:
 2128 18e8 000054E3 		cmp	r4, #0
 2129 18ec 001000E3 		movw	r1, #:lower16:RPi_IO_Base_Addr
 2130 18f0 001040E3 		movt	r1, #:upper16:RPi_IO_Base_Addr
 2131 18f4 1F2003E2 		and	r2, r3, #31
 2132 18f8 A332A0E1 		lsr	r3, r3, #5
 2133 18fc 0100A0E3 		mov	r0, #1
 2134 1900 0A308302 		addeq	r3, r3, #10
 2135 1904 00109115 		ldrne	r1, [r1]
 2136 1908 00109105 		ldreq	r1, [r1]
 2137 190c 1022A0E1 		lsl	r2, r0, r2
 2138 1910 0400A011 		movne	r0, r4
 2139 1914 03318110 		addne	r3, r1, r3, lsl #2
 2140 1918 02168102 		addeq	r1, r1, #2097152
 2141 191c 02368312 		addne	r3, r3, #2097152
 2142 1920 03218107 		streq	r2, [r1, r3, lsl #2]
 2143 1924 1C208315 		strne	r2, [r3, #28]
 2144 1928 E1FFFFEA 		b	.L362
 2145              	.L364:
 2146 192c 0810A0E3 		mov	r1, #8
 2147 1930 8220A0E3 		mov	r2, #130
 2148 1934 08008DE5 		str	r0, [sp, #8]
 2149 1938 0130A0E1 		mov	r3, r1
 2150 193c 04208DE5 		str	r2, [sp, #4]
 2151 1940 0000A0E3 		mov	r0, #0
 2152 1944 00108DE5 		str	r1, [sp]
 2153 1948 412008E3 		movw	r2, #32833
 2154 194c 032040E3 		movt	r2, 3
 2155 1950 0510A0E3 		mov	r1, #5
 2156 1954 31FDFFEB 		bl	mailbox_tag_message.constprop.4
 2157 1958 20D08DE2 		add	sp, sp, #32
 2158              		@ sp needed
 2159 195c 1080BDE8 		pop	{r4, pc}
 2160              	.L363:
 2161 1960 000050E3 		cmp	r0, #0
 2162 1964 003000E3 		movw	r3, #:lower16:RPi_IO_Base_Addr
 2163 1968 003040E3 		movt	r3, #:upper16:RPi_IO_Base_Addr
 2164 196c 0229A0E3 		mov	r2, #32768
 2165 1970 0100A003 		moveq	r0, #1
 2166 1974 00309315 		ldrne	r3, [r3]
ARM GAS  C:\Users\ldebo\AppData\Local\Temp\ccpehfH9.s 			page 39


 2167 1978 00309305 		ldreq	r3, [r3]
 2168 197c 02368312 		addne	r3, r3, #2097152
 2169 1980 02368302 		addeq	r3, r3, #2097152
 2170 1984 20208315 		strne	r2, [r3, #32]
 2171 1988 2C208305 		streq	r2, [r3, #44]
 2172 198c 1EFF2FE1 		bx	lr
 2173              	.L383:
 2174 1990 0430A0E3 		mov	r3, #4
 2175 1994 04208DE5 		str	r2, [sp, #4]
 2176 1998 00208DE5 		str	r2, [sp]
 2177 199c 01E0A0E3 		mov	lr, #1
 2178 19a0 0310A0E1 		mov	r1, r3
 2179 19a4 0220A0E3 		mov	r2, #2
 2180 19a8 012040E3 		movt	r2, 1
 2181 19ac 10008DE2 		add	r0, sp, #16
 2182 19b0 00E0CCE5 		strb	lr, [ip]
 2183 19b4 DEFCFFEB 		bl	mailbox_tag_message.constprop.6
 2184 19b8 000050E3 		cmp	r0, #0
 2185 19bc C3FFFF0A 		beq	.L381
 2186 19c0 1C309DE5 		ldr	r3, [sp, #28]
 2187 19c4 002000E3 		movw	r2, #:lower16:.LANCHOR2
 2188 19c8 002040E3 		movt	r2, #:upper16:.LANCHOR2
 2189 19cc 023043E2 		sub	r3, r3, #2
 2190 19d0 0D0053E3 		cmp	r3, #13
 2191 19d4 1010A093 		movls	r1, #16
 2192 19d8 2F10A083 		movhi	r1, #47
 2193 19dc 0130A0E1 		mov	r3, r1
 2194 19e0 001082E5 		str	r1, [r2]
 2195 19e4 BFFFFFEA 		b	.L376
 2196              		.size	set_Activity_LED, .-set_Activity_LED
 2197              		.align	2
 2198              		.global	ARM_setmaxspeed
 2199              		.syntax unified
 2200              		.arm
 2201              		.fpu neon-vfpv4
 2202              		.type	ARM_setmaxspeed, %function
 2203              	ARM_setmaxspeed:
 2204              		@ args = 0, pretend = 0, frame = 24
 2205              		@ frame_needed = 0, uses_anonymous_args = 0
 2206 19e8 70402DE9 		push	{r4, r5, r6, lr}
 2207 19ec 1000C0F2 		vmov.i32	d16, #0  @ v8qi
 2208 19f0 0030A0E3 		mov	r3, #0
 2209 19f4 28D04DE2 		sub	sp, sp, #40
 2210 19f8 0840A0E3 		mov	r4, #8
 2211 19fc 0350A0E3 		mov	r5, #3
 2212 1a00 0060A0E1 		mov	r6, r0
 2213 1a04 0420A0E3 		mov	r2, #4
 2214 1a08 032040E3 		movt	r2, 3
 2215 1a0c 08308DE5 		str	r3, [sp, #8]
 2216 1a10 14008DE2 		add	r0, sp, #20
 2217 1a14 04508DE5 		str	r5, [sp, #4]
 2218 1a18 0430A0E1 		mov	r3, r4
 2219 1a1c 00408DE5 		str	r4, [sp]
 2220 1a20 0510A0E3 		mov	r1, #5
 2221 1a24 070BCDED 		vstr	d16, [sp, #28]
 2222 1a28 050BCDED 		vstr	d16, [sp, #20]
 2223 1a2c 080BCDED 		vstr	d16, [sp, #32]
ARM GAS  C:\Users\ldebo\AppData\Local\Temp\ccpehfH9.s 			page 40


 2224 1a30 6CFDFFEB 		bl	mailbox_tag_message.constprop.5
 2225 1a34 000050E3 		cmp	r0, #0
 2226 1a38 0300001A 		bne	.L385
 2227              	.L387:
 2228 1a3c 0040A0E3 		mov	r4, #0
 2229              	.L386:
 2230 1a40 0400A0E1 		mov	r0, r4
 2231 1a44 28D08DE2 		add	sp, sp, #40
 2232              		@ sp needed
 2233 1a48 7080BDE8 		pop	{r4, r5, r6, pc}
 2234              	.L385:
 2235 1a4c 24109DE5 		ldr	r1, [sp, #36]
 2236 1a50 0430A0E1 		mov	r3, r4
 2237 1a54 00408DE5 		str	r4, [sp]
 2238 1a58 14008DE2 		add	r0, sp, #20
 2239 1a5c 08108DE5 		str	r1, [sp, #8]
 2240 1a60 022008E3 		movw	r2, #32770
 2241 1a64 032040E3 		movt	r2, 3
 2242 1a68 04508DE5 		str	r5, [sp, #4]
 2243 1a6c 0510A0E3 		mov	r1, #5
 2244 1a70 5CFDFFEB 		bl	mailbox_tag_message.constprop.5
 2245 1a74 004050E2 		subs	r4, r0, #0
 2246 1a78 EFFFFF0A 		beq	.L387
 2247 1a7c 000056E3 		cmp	r6, #0
 2248 1a80 EEFFFF0A 		beq	.L386
 2249 1a84 24109DE5 		ldr	r1, [sp, #36]
 2250 1a88 000000E3 		movw	r0, #:lower16:.LC4
 2251 1a8c 000040E3 		movt	r0, #:upper16:.LC4
 2252 1a90 36FF2FE1 		blx	r6
 2253 1a94 0400A0E1 		mov	r0, r4
 2254 1a98 28D08DE2 		add	sp, sp, #40
 2255              		@ sp needed
 2256 1a9c 7080BDE8 		pop	{r4, r5, r6, pc}
 2257              		.size	ARM_setmaxspeed, .-ARM_setmaxspeed
 2258              		.align	2
 2259              		.global	displaySmartStart
 2260              		.syntax unified
 2261              		.arm
 2262              		.fpu neon-vfpv4
 2263              		.type	displaySmartStart, %function
 2264              	displaySmartStart:
 2265              		@ args = 0, pretend = 0, frame = 0
 2266              		@ frame_needed = 0, uses_anonymous_args = 0
 2267 1aa0 10402DE9 		push	{r4, lr}
 2268 1aa4 004050E2 		subs	r4, r0, #0
 2269 1aa8 1080BD08 		popeq	{r4, pc}
 2270 1aac 003000E3 		movw	r3, #:lower16:RPi_CompileMode
 2271 1ab0 003040E3 		movt	r3, #:upper16:RPi_CompileMode
 2272 1ab4 000000E3 		movw	r0, #:lower16:.LC5
 2273 1ab8 000040E3 		movt	r0, #:upper16:.LC5
 2274 1abc 0030D3E5 		ldrb	r3, [r3]	@ zero_extendqisi2
 2275 1ac0 5322E0E7 		ubfx	r2, r3, #4, #1
 2276 1ac4 0F1003E2 		and	r1, r3, #15
 2277 1ac8 012082E2 		add	r2, r2, #1
 2278 1acc A332A0E1 		lsr	r3, r3, #5
 2279 1ad0 8222A0E1 		lsl	r2, r2, #5
 2280 1ad4 34FF2FE1 		blx	r4
ARM GAS  C:\Users\ldebo\AppData\Local\Temp\ccpehfH9.s 			page 41


 2281 1ad8 003000E3 		movw	r3, #:lower16:RPi_CpuId
 2282 1adc 003040E3 		movt	r3, #:upper16:RPi_CpuId
 2283 1ae0 071C00E3 		movw	r1, #3079
 2284 1ae4 B020D3E1 		ldrh	r2, [r3]
 2285 1ae8 2222A0E1 		lsr	r2, r2, #4
 2286 1aec 010052E1 		cmp	r2, r1
 2287 1af0 1400000A 		beq	.L398
 2288 1af4 033D00E3 		movw	r3, #3331
 2289 1af8 030052E1 		cmp	r2, r3
 2290 1afc 0E00000A 		beq	.L399
 2291 1b00 760B00E3 		movw	r0, #2934
 2292 1b04 003000E3 		movw	r3, #:lower16:.LC3
 2293 1b08 003040E3 		movt	r3, #:upper16:.LC3
 2294 1b0c 000052E1 		cmp	r2, r0
 2295 1b10 001000E3 		movw	r1, #:lower16:.LC0
 2296 1b14 001040E3 		movt	r1, #:upper16:.LC0
 2297 1b18 0310A011 		movne	r1, r3
 2298              	.L400:
 2299 1b1c 003000E3 		movw	r3, #:lower16:RPi_CoresReady
 2300 1b20 003040E3 		movt	r3, #:upper16:RPi_CoresReady
 2301 1b24 000000E3 		movw	r0, #:lower16:.LC6
 2302 1b28 000040E3 		movt	r0, #:upper16:.LC6
 2303 1b2c 04C0A0E1 		mov	ip, r4
 2304 1b30 003093E5 		ldr	r3, [r3]
 2305 1b34 1040BDE8 		pop	{r4, lr}
 2306 1b38 1CFF2FE1 		bx	ip
 2307              	.L399:
 2308 1b3c 001000E3 		movw	r1, #:lower16:.LC2
 2309 1b40 001040E3 		movt	r1, #:upper16:.LC2
 2310 1b44 F4FFFFEA 		b	.L400
 2311              	.L398:
 2312 1b48 001000E3 		movw	r1, #:lower16:.LC1
 2313 1b4c 001040E3 		movt	r1, #:upper16:.LC1
 2314 1b50 F1FFFFEA 		b	.L400
 2315              		.size	displaySmartStart, .-displaySmartStart
 2316              		.align	2
 2317              		.global	Embedded_Console_WriteChar
 2318              		.syntax unified
 2319              		.arm
 2320              		.fpu neon-vfpv4
 2321              		.type	Embedded_Console_WriteChar, %function
 2322              	Embedded_Console_WriteChar:
 2323              		@ args = 0, pretend = 0, frame = 0
 2324              		@ frame_needed = 0, uses_anonymous_args = 0
 2325 1b54 0A0050E3 		cmp	r0, #10
 2326 1b58 2400000A 		beq	.L405
 2327 1b5c 0D0050E3 		cmp	r0, #13
 2328 1b60 1D00000A 		beq	.L406
 2329 1b64 090050E3 		cmp	r0, #9
 2330 1b68 1000000A 		beq	.L414
 2331 1b6c 70402DE9 		push	{r4, r5, r6, lr}
 2332 1b70 004000E3 		movw	r4, #:lower16:.LANCHOR1
 2333 1b74 004040E3 		movt	r4, #:upper16:.LANCHOR1
 2334 1b78 0010A0E1 		mov	r1, r0
 2335 1b7c 040084E2 		add	r0, r4, #4
 2336 1b80 1C2094E5 		ldr	r2, [r4, #28]
 2337 1b84 203094E5 		ldr	r3, [r4, #32]
ARM GAS  C:\Users\ldebo\AppData\Local\Temp\ccpehfH9.s 			page 42


 2338 1b88 405094E5 		ldr	r5, [r4, #64]
 2339 1b8c 8221A0E1 		lsl	r2, r2, #3
 2340 1b90 0332A0E1 		lsl	r3, r3, #4
 2341 1b94 142084E5 		str	r2, [r4, #20]
 2342 1b98 183084E5 		str	r3, [r4, #24]
 2343 1b9c 35FF2FE1 		blx	r5
 2344 1ba0 1C3094E5 		ldr	r3, [r4, #28]
 2345 1ba4 013083E2 		add	r3, r3, #1
 2346 1ba8 1C3084E5 		str	r3, [r4, #28]
 2347 1bac 7080BDE8 		pop	{r4, r5, r6, pc}
 2348              	.L414:
 2349 1bb0 002000E3 		movw	r2, #:lower16:.LANCHOR1
 2350 1bb4 002040E3 		movt	r2, #:upper16:.LANCHOR1
 2351 1bb8 1C3092E5 		ldr	r3, [r2, #28]
 2352 1bbc 053083E2 		add	r3, r3, #5
 2353 1bc0 000073E2 		rsbs	r0, r3, #0
 2354 1bc4 031003E2 		and	r1, r3, #3
 2355 1bc8 030000E2 		and	r0, r0, #3
 2356 1bcc 00106052 		rsbpl	r1, r0, #0
 2357 1bd0 013043E0 		sub	r3, r3, r1
 2358 1bd4 1C3082E5 		str	r3, [r2, #28]
 2359 1bd8 1EFF2FE1 		bx	lr
 2360              	.L406:
 2361 1bdc 003000E3 		movw	r3, #:lower16:.LANCHOR1
 2362 1be0 003040E3 		movt	r3, #:upper16:.LANCHOR1
 2363 1be4 0020A0E3 		mov	r2, #0
 2364 1be8 1C2083E5 		str	r2, [r3, #28]
 2365 1bec 1EFF2FE1 		bx	lr
 2366              	.L405:
 2367 1bf0 003000E3 		movw	r3, #:lower16:.LANCHOR1
 2368 1bf4 003040E3 		movt	r3, #:upper16:.LANCHOR1
 2369 1bf8 0010A0E3 		mov	r1, #0
 2370 1bfc 202093E5 		ldr	r2, [r3, #32]
 2371 1c00 1C1083E5 		str	r1, [r3, #28]
 2372 1c04 012082E2 		add	r2, r2, #1
 2373 1c08 202083E5 		str	r2, [r3, #32]
 2374 1c0c 1EFF2FE1 		bx	lr
 2375              		.size	Embedded_Console_WriteChar, .-Embedded_Console_WriteChar
 2376              		.align	2
 2377              		.global	WriteText
 2378              		.syntax unified
 2379              		.arm
 2380              		.fpu neon-vfpv4
 2381              		.type	WriteText, %function
 2382              	WriteText:
 2383              		@ args = 0, pretend = 0, frame = 0
 2384              		@ frame_needed = 0, uses_anonymous_args = 0
 2385 1c10 F0472DE9 		push	{r4, r5, r6, r7, r8, r9, r10, lr}
 2386 1c14 005052E2 		subs	r5, r2, #0
 2387 1c18 F087BD08 		popeq	{r4, r5, r6, r7, r8, r9, r10, pc}
 2388 1c1c 004000E3 		movw	r4, #:lower16:.LANCHOR1
 2389 1c20 004040E3 		movt	r4, #:upper16:.LANCHOR1
 2390 1c24 0030A0E1 		mov	r3, r0
 2391 1c28 0500A0E1 		mov	r0, r5
 2392 1c2c 1C3084E5 		str	r3, [r4, #28]
 2393 1c30 201084E5 		str	r1, [r4, #32]
 2394 1c34 FEFFFFEB 		bl	strlen
ARM GAS  C:\Users\ldebo\AppData\Local\Temp\ccpehfH9.s 			page 43


 2395 1c38 000050E3 		cmp	r0, #0
 2396 1c3c F087BD08 		popeq	{r4, r5, r6, r7, r8, r9, r10, pc}
 2397 1c40 0080A0E3 		mov	r8, #0
 2398 1c44 006085E0 		add	r6, r5, r0
 2399 1c48 047084E2 		add	r7, r4, #4
 2400 1c4c 130000EA 		b	.L423
 2401              	.L433:
 2402 1c50 0D0053E3 		cmp	r3, #13
 2403 1c54 0310A0E1 		mov	r1, r3
 2404 1c58 0700A0E1 		mov	r0, r7
 2405 1c5c 1C808405 		streq	r8, [r4, #28]
 2406 1c60 0C00000A 		beq	.L422
 2407 1c64 090053E3 		cmp	r3, #9
 2408 1c68 1600000A 		beq	.L431
 2409 1c6c 1C2094E5 		ldr	r2, [r4, #28]
 2410 1c70 203094E5 		ldr	r3, [r4, #32]
 2411 1c74 409094E5 		ldr	r9, [r4, #64]
 2412 1c78 8221A0E1 		lsl	r2, r2, #3
 2413 1c7c 0332A0E1 		lsl	r3, r3, #4
 2414 1c80 142084E5 		str	r2, [r4, #20]
 2415 1c84 183084E5 		str	r3, [r4, #24]
 2416 1c88 39FF2FE1 		blx	r9
 2417 1c8c 1C3094E5 		ldr	r3, [r4, #28]
 2418 1c90 013083E2 		add	r3, r3, #1
 2419 1c94 1C3084E5 		str	r3, [r4, #28]
 2420              	.L422:
 2421 1c98 060055E1 		cmp	r5, r6
 2422 1c9c 0800000A 		beq	.L432
 2423              	.L423:
 2424 1ca0 0130D5E4 		ldrb	r3, [r5], #1	@ zero_extendqisi2
 2425 1ca4 0A0053E3 		cmp	r3, #10
 2426 1ca8 E8FFFF1A 		bne	.L433
 2427 1cac 203094E5 		ldr	r3, [r4, #32]
 2428 1cb0 060055E1 		cmp	r5, r6
 2429 1cb4 1C8084E5 		str	r8, [r4, #28]
 2430 1cb8 013083E2 		add	r3, r3, #1
 2431 1cbc 203084E5 		str	r3, [r4, #32]
 2432 1cc0 F6FFFF1A 		bne	.L423
 2433              	.L432:
 2434 1cc4 F087BDE8 		pop	{r4, r5, r6, r7, r8, r9, r10, pc}
 2435              	.L431:
 2436 1cc8 1C3094E5 		ldr	r3, [r4, #28]
 2437 1ccc 053083E2 		add	r3, r3, #5
 2438 1cd0 001073E2 		rsbs	r1, r3, #0
 2439 1cd4 032003E2 		and	r2, r3, #3
 2440 1cd8 031001E2 		and	r1, r1, #3
 2441 1cdc 00206152 		rsbpl	r2, r1, #0
 2442 1ce0 023043E0 		sub	r3, r3, r2
 2443 1ce4 1C3084E5 		str	r3, [r4, #28]
 2444 1ce8 EAFFFFEA 		b	.L422
 2445              		.size	WriteText, .-WriteText
 2446              		.align	2
 2447              		.global	SetDCPenColor
 2448              		.syntax unified
 2449              		.arm
 2450              		.fpu neon-vfpv4
 2451              		.type	SetDCPenColor, %function
ARM GAS  C:\Users\ldebo\AppData\Local\Temp\ccpehfH9.s 			page 44


 2452              	SetDCPenColor:
 2453              		@ args = 0, pretend = 0, frame = 0
 2454              		@ frame_needed = 0, uses_anonymous_args = 0
 2455              		@ link register save eliminated.
 2456 1cec 003050E2 		subs	r3, r0, #0
 2457 1cf0 20009315 		ldrne	r0, [r3, #32]
 2458 1cf4 0300A001 		moveq	r0, r3
 2459 1cf8 20108315 		strne	r1, [r3, #32]
 2460 1cfc 1EFF2FE1 		bx	lr
 2461              		.size	SetDCPenColor, .-SetDCPenColor
 2462              		.align	2
 2463              		.global	SetDCBrushColor
 2464              		.syntax unified
 2465              		.arm
 2466              		.fpu neon-vfpv4
 2467              		.type	SetDCBrushColor, %function
 2468              	SetDCBrushColor:
 2469              		@ args = 0, pretend = 0, frame = 0
 2470              		@ frame_needed = 0, uses_anonymous_args = 0
 2471              		@ link register save eliminated.
 2472 1d00 003050E2 		subs	r3, r0, #0
 2473 1d04 28009315 		ldrne	r0, [r3, #40]
 2474 1d08 0300A001 		moveq	r0, r3
 2475 1d0c 28108315 		strne	r1, [r3, #40]
 2476 1d10 1EFF2FE1 		bx	lr
 2477              		.size	SetDCBrushColor, .-SetDCBrushColor
 2478              		.align	2
 2479              		.global	MoveToEx
 2480              		.syntax unified
 2481              		.arm
 2482              		.fpu neon-vfpv4
 2483              		.type	MoveToEx, %function
 2484              	MoveToEx:
 2485              		@ args = 0, pretend = 0, frame = 0
 2486              		@ frame_needed = 0, uses_anonymous_args = 0
 2487 1d14 00C050E2 		subs	ip, r0, #0
 2488 1d18 0900000A 		beq	.L443
 2489 1d1c 000053E3 		cmp	r3, #0
 2490 1d20 04E02DE5 		str	lr, [sp, #-4]!
 2491 1d24 01E0A0E1 		mov	lr, r1
 2492 1d28 10108C12 		addne	r1, ip, #16
 2493 1d2c 03009118 		ldmne	r1, {r0, r1}
 2494 1d30 03008318 		stmne	r3, {r0, r1}
 2495 1d34 0100A0E3 		mov	r0, #1
 2496 1d38 10E08CE5 		str	lr, [ip, #16]
 2497 1d3c 14208CE5 		str	r2, [ip, #20]
 2498 1d40 04F09DE4 		ldr	pc, [sp], #4
 2499              	.L443:
 2500 1d44 0C00A0E1 		mov	r0, ip
 2501 1d48 1EFF2FE1 		bx	lr
 2502              		.size	MoveToEx, .-MoveToEx
 2503              		.align	2
 2504              		.global	LineTo
 2505              		.syntax unified
 2506              		.arm
 2507              		.fpu neon-vfpv4
 2508              		.type	LineTo, %function
ARM GAS  C:\Users\ldebo\AppData\Local\Temp\ccpehfH9.s 			page 45


 2509              	LineTo:
 2510              		@ args = 0, pretend = 0, frame = 0
 2511              		@ frame_needed = 0, uses_anonymous_args = 0
 2512 1d4c 000050E3 		cmp	r0, #0
 2513 1d50 1EFF2F01 		bxeq	lr
 2514 1d54 103090E5 		ldr	r3, [r0, #16]
 2515 1d58 14C090E5 		ldr	ip, [r0, #20]
 2516 1d5c 010053E1 		cmp	r3, r1
 2517 1d60 10402DE9 		push	{r4, lr}
 2518 1d64 011043C0 		subgt	r1, r3, r1
 2519 1d68 031041D0 		suble	r1, r1, r3
 2520 1d6c 0130A0D3 		movle	r3, #1
 2521 1d70 0030E0C3 		mvngt	r3, #0
 2522 1d74 02005CE1 		cmp	ip, r2
 2523 1d78 02C04CC0 		subgt	ip, ip, r2
 2524 1d7c 0CC042D0 		suble	ip, r2, ip
 2525 1d80 0120A0D3 		movle	r2, #1
 2526 1d84 08D04DE2 		sub	sp, sp, #8
 2527 1d88 0020E0C3 		mvngt	r2, #0
 2528 1d8c 000051E3 		cmp	r1, #0
 2529 1d90 0E00000A 		beq	.L464
 2530 1d94 00005CE3 		cmp	ip, #0
 2531 1d98 0600000A 		beq	.L465
 2532 1d9c 00208DE5 		str	r2, [sp]
 2533 1da0 0C20A0E1 		mov	r2, ip
 2534 1da4 384090E5 		ldr	r4, [r0, #56]
 2535 1da8 34FF2FE1 		blx	r4
 2536 1dac 0100A0E3 		mov	r0, #1
 2537 1db0 08D08DE2 		add	sp, sp, #8
 2538              		@ sp needed
 2539 1db4 1080BDE8 		pop	{r4, pc}
 2540              	.L465:
 2541 1db8 0320A0E1 		mov	r2, r3
 2542 1dbc 343090E5 		ldr	r3, [r0, #52]
 2543 1dc0 33FF2FE1 		blx	r3
 2544 1dc4 0100A0E3 		mov	r0, #1
 2545 1dc8 08D08DE2 		add	sp, sp, #8
 2546              		@ sp needed
 2547 1dcc 1080BDE8 		pop	{r4, pc}
 2548              	.L464:
 2549 1dd0 303090E5 		ldr	r3, [r0, #48]
 2550 1dd4 0C10A0E1 		mov	r1, ip
 2551 1dd8 33FF2FE1 		blx	r3
 2552 1ddc 0100A0E3 		mov	r0, #1
 2553 1de0 08D08DE2 		add	sp, sp, #8
 2554              		@ sp needed
 2555 1de4 1080BDE8 		pop	{r4, pc}
 2556              		.size	LineTo, .-LineTo
 2557              		.align	2
 2558              		.global	TextOut
 2559              		.syntax unified
 2560              		.arm
 2561              		.fpu neon-vfpv4
 2562              		.type	TextOut, %function
 2563              	TextOut:
 2564              		@ args = 4, pretend = 0, frame = 0
 2565              		@ frame_needed = 0, uses_anonymous_args = 0
ARM GAS  C:\Users\ldebo\AppData\Local\Temp\ccpehfH9.s 			page 46


 2566 1de8 F0472DE9 		push	{r4, r5, r6, r7, r8, r9, r10, lr}
 2567 1dec 20709DE5 		ldr	r7, [sp, #32]
 2568 1df0 000057E3 		cmp	r7, #0
 2569 1df4 00005313 		cmpne	r3, #0
 2570 1df8 0100A013 		movne	r0, #1
 2571 1dfc 0000A003 		moveq	r0, #0
 2572 1e00 F087BD08 		popeq	{r4, r5, r6, r7, r8, r9, r10, pc}
 2573 1e04 000057E3 		cmp	r7, #0
 2574 1e08 0F0000DA 		ble	.L470
 2575 1e0c 005000E3 		movw	r5, #:lower16:.LANCHOR1
 2576 1e10 005040E3 		movt	r5, #:upper16:.LANCHOR1
 2577 1e14 0160A0E1 		mov	r6, r1
 2578 1e18 0280A0E1 		mov	r8, r2
 2579 1e1c 0340A0E1 		mov	r4, r3
 2580 1e20 077083E0 		add	r7, r3, r7
 2581 1e24 049085E2 		add	r9, r5, #4
 2582              	.L469:
 2583 1e28 146085E5 		str	r6, [r5, #20]
 2584 1e2c 0900A0E1 		mov	r0, r9
 2585 1e30 188085E5 		str	r8, [r5, #24]
 2586 1e34 086086E2 		add	r6, r6, #8
 2587 1e38 403095E5 		ldr	r3, [r5, #64]
 2588 1e3c 0110D4E4 		ldrb	r1, [r4], #1	@ zero_extendqisi2
 2589 1e40 33FF2FE1 		blx	r3
 2590 1e44 040057E1 		cmp	r7, r4
 2591 1e48 F6FFFF1A 		bne	.L469
 2592              	.L470:
 2593 1e4c 0100A0E3 		mov	r0, #1
 2594 1e50 F087BDE8 		pop	{r4, r5, r6, r7, r8, r9, r10, pc}
 2595              		.size	TextOut, .-TextOut
 2596              		.align	2
 2597              		.global	TransparentTextOut
 2598              		.syntax unified
 2599              		.arm
 2600              		.fpu neon-vfpv4
 2601              		.type	TransparentTextOut, %function
 2602              	TransparentTextOut:
 2603              		@ args = 0, pretend = 0, frame = 0
 2604              		@ frame_needed = 0, uses_anonymous_args = 0
 2605 1e54 F0412DE9 		push	{r4, r5, r6, r7, r8, lr}
 2606 1e58 004052E2 		subs	r4, r2, #0
 2607 1e5c 1300000A 		beq	.L479
 2608 1e60 0030D4E5 		ldrb	r3, [r4]	@ zero_extendqisi2
 2609 1e64 000053E3 		cmp	r3, #0
 2610 1e68 0E00000A 		beq	.L478
 2611 1e6c 005000E3 		movw	r5, #:lower16:.LANCHOR1
 2612 1e70 005040E3 		movt	r5, #:upper16:.LANCHOR1
 2613 1e74 0060A0E1 		mov	r6, r0
 2614 1e78 0170A0E1 		mov	r7, r1
 2615 1e7c 048085E2 		add	r8, r5, #4
 2616              	.L477:
 2617 1e80 146085E5 		str	r6, [r5, #20]
 2618 1e84 0800A0E1 		mov	r0, r8
 2619 1e88 187085E5 		str	r7, [r5, #24]
 2620 1e8c 086086E2 		add	r6, r6, #8
 2621 1e90 443095E5 		ldr	r3, [r5, #68]
 2622 1e94 0110D4E4 		ldrb	r1, [r4], #1	@ zero_extendqisi2
ARM GAS  C:\Users\ldebo\AppData\Local\Temp\ccpehfH9.s 			page 47


 2623 1e98 33FF2FE1 		blx	r3
 2624 1e9c 0030D4E5 		ldrb	r3, [r4]	@ zero_extendqisi2
 2625 1ea0 000053E3 		cmp	r3, #0
 2626 1ea4 F5FFFF1A 		bne	.L477
 2627              	.L478:
 2628 1ea8 0100A0E3 		mov	r0, #1
 2629 1eac F081BDE8 		pop	{r4, r5, r6, r7, r8, pc}
 2630              	.L479:
 2631 1eb0 0400A0E1 		mov	r0, r4
 2632 1eb4 F081BDE8 		pop	{r4, r5, r6, r7, r8, pc}
 2633              		.size	TransparentTextOut, .-TransparentTextOut
 2634              		.align	2
 2635              		.global	BmpOut
 2636              		.syntax unified
 2637              		.arm
 2638              		.fpu neon-vfpv4
 2639              		.type	BmpOut, %function
 2640              	BmpOut:
 2641              		@ args = 8, pretend = 0, frame = 0
 2642              		@ frame_needed = 0, uses_anonymous_args = 0
 2643 1eb8 00C050E2 		subs	ip, r0, #0
 2644 1ebc 1000000A 		beq	.L484
 2645 1ec0 30402DE9 		push	{r4, r5, lr}
 2646 1ec4 01E0A0E1 		mov	lr, r1
 2647 1ec8 0140A0E3 		mov	r4, #1
 2648 1ecc 0CD04DE2 		sub	sp, sp, #12
 2649 1ed0 10E08CE5 		str	lr, [ip, #16]
 2650 1ed4 18109DE5 		ldr	r1, [sp, #24]
 2651 1ed8 012082E0 		add	r2, r2, r1
 2652 1edc 0310A0E1 		mov	r1, r3
 2653 1ee0 14208CE5 		str	r2, [ip, #20]
 2654 1ee4 00408DE5 		str	r4, [sp]
 2655 1ee8 1C309DE5 		ldr	r3, [sp, #28]
 2656 1eec 18209DE5 		ldr	r2, [sp, #24]
 2657 1ef0 44509CE5 		ldr	r5, [ip, #68]
 2658 1ef4 35FF2FE1 		blx	r5
 2659 1ef8 0400A0E1 		mov	r0, r4
 2660 1efc 0CD08DE2 		add	sp, sp, #12
 2661              		@ sp needed
 2662 1f00 3080BDE8 		pop	{r4, r5, pc}
 2663              	.L484:
 2664 1f04 0C00A0E1 		mov	r0, ip
 2665 1f08 1EFF2FE1 		bx	lr
 2666              		.size	BmpOut, .-BmpOut
 2667              		.align	2
 2668              		.global	CvtBmpLine
 2669              		.syntax unified
 2670              		.arm
 2671              		.fpu neon-vfpv4
 2672              		.type	CvtBmpLine, %function
 2673              	CvtBmpLine:
 2674              		@ args = 8, pretend = 0, frame = 4096
 2675              		@ frame_needed = 0, uses_anonymous_args = 0
 2676 1f0c 70402DE9 		push	{r4, r5, r6, lr}
 2677 1f10 000050E3 		cmp	r0, #0
 2678 1f14 01DA4DE2 		sub	sp, sp, #4096
 2679 1f18 08D04DE2 		sub	sp, sp, #8
ARM GAS  C:\Users\ldebo\AppData\Local\Temp\ccpehfH9.s 			page 48


 2680 1f1c 01CA8DE2 		add	ip, sp, #4096
 2681 1f20 18C08CE2 		add	ip, ip, #24
 2682 1f24 00E09CE5 		ldr	lr, [ip]
 2683 1f28 1200000A 		beq	.L489
 2684 1f2c 0CC090E5 		ldr	ip, [r0, #12]
 2685 1f30 101080E5 		str	r1, [r0, #16]
 2686 1f34 0E005CE1 		cmp	ip, lr
 2687 1f38 142080E5 		str	r2, [r0, #20]
 2688 1f3c 0500000A 		beq	.L492
 2689 1f40 18005CE3 		cmp	ip, #24
 2690 1f44 0E00000A 		beq	.L493
 2691 1f48 20005CE3 		cmp	ip, #32
 2692 1f4c 3E00000A 		beq	.L494
 2693 1f50 10005CE3 		cmp	ip, #16
 2694 1f54 1E00000A 		beq	.L526
 2695              	.L492:
 2696 1f58 0140A0E3 		mov	r4, #1
 2697 1f5c 0310A0E1 		mov	r1, r3
 2698 1f60 00408DE5 		str	r4, [sp]
 2699 1f64 08308DE2 		add	r3, sp, #8
 2700 1f68 0420A0E1 		mov	r2, r4
 2701 1f6c 445090E5 		ldr	r5, [r0, #68]
 2702 1f70 35FF2FE1 		blx	r5
 2703 1f74 0400A0E1 		mov	r0, r4
 2704              	.L489:
 2705 1f78 01DA8DE2 		add	sp, sp, #4096
 2706 1f7c 08D08DE2 		add	sp, sp, #8
 2707              		@ sp needed
 2708 1f80 7080BDE8 		pop	{r4, r5, r6, pc}
 2709              	.L493:
 2710 1f84 10005EE3 		cmp	lr, #16
 2711 1f88 4300000A 		beq	.L501
 2712 1f8c 000053E3 		cmp	r3, #0
 2713 1f90 F0FFFF0A 		beq	.L492
 2714 1f94 012A8DE2 		add	r2, sp, #4096
 2715 1f98 834083E0 		add	r4, r3, r3, lsl #1
 2716 1f9c 1C2082E2 		add	r2, r2, #28
 2717 1fa0 001092E5 		ldr	r1, [r2]
 2718 1fa4 08208DE2 		add	r2, sp, #8
 2719 1fa8 044082E0 		add	r4, r2, r4
 2720              	.L504:
 2721 1fac 041081E2 		add	r1, r1, #4
 2722 1fb0 04C051E5 		ldrb	ip, [r1, #-4]	@ zero_extendqisi2
 2723 1fb4 03E051E5 		ldrb	lr, [r1, #-3]	@ zero_extendqisi2
 2724 1fb8 03C0C2E4 		strb	ip, [r2], #3
 2725 1fbc 02C051E5 		ldrb	ip, [r1, #-2]	@ zero_extendqisi2
 2726 1fc0 040052E1 		cmp	r2, r4
 2727 1fc4 02E042E5 		strb	lr, [r2, #-2]
 2728 1fc8 01C042E5 		strb	ip, [r2, #-1]
 2729 1fcc F6FFFF1A 		bne	.L504
 2730 1fd0 E0FFFFEA 		b	.L492
 2731              	.L526:
 2732 1fd4 18005EE3 		cmp	lr, #24
 2733 1fd8 5E00000A 		beq	.L496
 2734 1fdc 000053E3 		cmp	r3, #0
 2735 1fe0 DCFFFF0A 		beq	.L492
 2736 1fe4 012A8DE2 		add	r2, sp, #4096
ARM GAS  C:\Users\ldebo\AppData\Local\Temp\ccpehfH9.s 			page 49


 2737 1fe8 0050A0E3 		mov	r5, #0
 2738 1fec 1C2082E2 		add	r2, r2, #28
 2739 1ff0 001092E5 		ldr	r1, [r2]
 2740 1ff4 08208DE2 		add	r2, sp, #8
 2741              	.L500:
 2742 1ff8 041081E2 		add	r1, r1, #4
 2743 1ffc 04C051E5 		ldrb	ip, [r1, #-4]	@ zero_extendqisi2
 2744 2000 00E0D2E5 		ldrb	lr, [r2]	@ zero_extendqisi2
 2745 2004 015085E2 		add	r5, r5, #1
 2746 2008 034051E5 		ldrb	r4, [r1, #-3]	@ zero_extendqisi2
 2747 200c 050053E1 		cmp	r3, r5
 2748 2010 ACC1A0E1 		lsr	ip, ip, #3
 2749 2014 022082E2 		add	r2, r2, #2
 2750 2018 1CE0C4E7 		bfi	lr, ip, #0, #5
 2751 201c 02E042E5 		strb	lr, [r2, #-2]
 2752 2020 2441A0E1 		lsr	r4, r4, #2
 2753 2024 02E051E5 		ldrb	lr, [r1, #-2]	@ zero_extendqisi2
 2754 2028 B2C052E1 		ldrh	ip, [r2, #-2]
 2755 202c 94C2CAE7 		bfi	ip, r4, #5, #6
 2756 2030 AEE1A0E1 		lsr	lr, lr, #3
 2757 2034 B2C042E1 		strh	ip, [r2, #-2]	@ movhi
 2758 2038 2CC4A0E1 		lsr	ip, ip, #8
 2759 203c 9EC1C7E7 		bfi	ip, lr, #3, #5
 2760 2040 01C042E5 		strb	ip, [r2, #-1]
 2761 2044 EBFFFF1A 		bne	.L500
 2762 2048 C2FFFFEA 		b	.L492
 2763              	.L494:
 2764 204c 10005EE3 		cmp	lr, #16
 2765 2050 2900000A 		beq	.L505
 2766 2054 000053E3 		cmp	r3, #0
 2767 2058 BEFFFF0A 		beq	.L492
 2768 205c 012A8DE2 		add	r2, sp, #4096
 2769 2060 83C083E0 		add	ip, r3, r3, lsl #1
 2770 2064 1C2082E2 		add	r2, r2, #28
 2771 2068 08108DE2 		add	r1, sp, #8
 2772 206c 002092E5 		ldr	r2, [r2]
 2773 2070 0CC082E0 		add	ip, r2, ip
 2774              	.L508:
 2775 2074 032082E2 		add	r2, r2, #3
 2776 2078 03E052E5 		ldrb	lr, [r2, #-3]	@ zero_extendqisi2
 2777 207c 0C0052E1 		cmp	r2, ip
 2778 2080 024052E5 		ldrb	r4, [r2, #-2]	@ zero_extendqisi2
 2779 2084 04E0C1E4 		strb	lr, [r1], #4
 2780 2088 01E052E5 		ldrb	lr, [r2, #-1]	@ zero_extendqisi2
 2781 208c 034041E5 		strb	r4, [r1, #-3]
 2782 2090 02E041E5 		strb	lr, [r1, #-2]
 2783 2094 F6FFFF1A 		bne	.L508
 2784 2098 AEFFFFEA 		b	.L492
 2785              	.L501:
 2786 209c 000053E3 		cmp	r3, #0
 2787 20a0 ACFFFF0A 		beq	.L492
 2788 20a4 012A8DE2 		add	r2, sp, #4096
 2789 20a8 08108DE2 		add	r1, sp, #8
 2790 20ac 1C2082E2 		add	r2, r2, #28
 2791 20b0 836083E0 		add	r6, r3, r3, lsl #1
 2792 20b4 066081E0 		add	r6, r1, r6
 2793 20b8 01C0A0E1 		mov	ip, r1
ARM GAS  C:\Users\ldebo\AppData\Local\Temp\ccpehfH9.s 			page 50


 2794 20bc 002092E5 		ldr	r2, [r2]
 2795              	.L503:
 2796 20c0 01E0D2E5 		ldrb	lr, [r2, #1]	@ zero_extendqisi2
 2797 20c4 022082E2 		add	r2, r2, #2
 2798 20c8 024052E5 		ldrb	r4, [r2, #-2]	@ zero_extendqisi2
 2799 20cc 07100EE2 		and	r1, lr, #7
 2800 20d0 F8E00EE2 		and	lr, lr, #248
 2801 20d4 8451A0E1 		lsl	r5, r4, #3
 2802 20d8 8111A0E1 		lsl	r1, r1, #3
 2803 20dc 0350CCE4 		strb	r5, [ip], #3
 2804 20e0 A41281E1 		orr	r1, r1, r4, lsr #5
 2805 20e4 06005CE1 		cmp	ip, r6
 2806 20e8 01E04CE5 		strb	lr, [ip, #-1]
 2807 20ec 0111A0E1 		lsl	r1, r1, #2
 2808 20f0 02104CE5 		strb	r1, [ip, #-2]
 2809 20f4 F1FFFF1A 		bne	.L503
 2810 20f8 96FFFFEA 		b	.L492
 2811              	.L505:
 2812 20fc 000053E3 		cmp	r3, #0
 2813 2100 94FFFF0A 		beq	.L492
 2814 2104 012A8DE2 		add	r2, sp, #4096
 2815 2108 0040A0E3 		mov	r4, #0
 2816 210c 1C2082E2 		add	r2, r2, #28
 2817 2110 08C08DE2 		add	ip, sp, #8
 2818 2114 00E092E5 		ldr	lr, [r2]
 2819              	.L507:
 2820 2118 0110DEE5 		ldrb	r1, [lr, #1]	@ zero_extendqisi2
 2821 211c 014084E2 		add	r4, r4, #1
 2822 2120 0050DEE5 		ldrb	r5, [lr]	@ zero_extendqisi2
 2823 2124 040053E1 		cmp	r3, r4
 2824 2128 072001E2 		and	r2, r1, #7
 2825 212c F81001E2 		and	r1, r1, #248
 2826 2130 02E08EE2 		add	lr, lr, #2
 2827 2134 8221A0E1 		lsl	r2, r2, #3
 2828 2138 8561A0E1 		lsl	r6, r5, #3
 2829 213c 0460CCE4 		strb	r6, [ip], #4
 2830 2140 A52282E1 		orr	r2, r2, r5, lsr #5
 2831 2144 02104CE5 		strb	r1, [ip, #-2]
 2832 2148 0221A0E1 		lsl	r2, r2, #2
 2833 214c 03204CE5 		strb	r2, [ip, #-3]
 2834 2150 F0FFFF1A 		bne	.L507
 2835 2154 7FFFFFEA 		b	.L492
 2836              	.L496:
 2837 2158 000053E3 		cmp	r3, #0
 2838 215c 7DFFFF0A 		beq	.L492
 2839 2160 012A8DE2 		add	r2, sp, #4096
 2840 2164 835083E0 		add	r5, r3, r3, lsl #1
 2841 2168 1C2082E2 		add	r2, r2, #28
 2842 216c 00C092E5 		ldr	ip, [r2]
 2843 2170 08208DE2 		add	r2, sp, #8
 2844 2174 05508CE0 		add	r5, ip, r5
 2845              	.L499:
 2846 2178 03C08CE2 		add	ip, ip, #3
 2847 217c 03105CE5 		ldrb	r1, [ip, #-3]	@ zero_extendqisi2
 2848 2180 00E0D2E5 		ldrb	lr, [r2]	@ zero_extendqisi2
 2849 2184 05005CE1 		cmp	ip, r5
 2850 2188 02405CE5 		ldrb	r4, [ip, #-2]	@ zero_extendqisi2
ARM GAS  C:\Users\ldebo\AppData\Local\Temp\ccpehfH9.s 			page 51


 2851 218c 022082E2 		add	r2, r2, #2
 2852 2190 A111A0E1 		lsr	r1, r1, #3
 2853 2194 11E0C4E7 		bfi	lr, r1, #0, #5
 2854 2198 02E042E5 		strb	lr, [r2, #-2]
 2855 219c 2441A0E1 		lsr	r4, r4, #2
 2856 21a0 01E05CE5 		ldrb	lr, [ip, #-1]	@ zero_extendqisi2
 2857 21a4 B21052E1 		ldrh	r1, [r2, #-2]
 2858 21a8 9412CAE7 		bfi	r1, r4, #5, #6
 2859 21ac AEE1A0E1 		lsr	lr, lr, #3
 2860 21b0 B21042E1 		strh	r1, [r2, #-2]	@ movhi
 2861 21b4 2114A0E1 		lsr	r1, r1, #8
 2862 21b8 9E11C7E7 		bfi	r1, lr, #3, #5
 2863 21bc 011042E5 		strb	r1, [r2, #-1]
 2864 21c0 ECFFFF1A 		bne	.L499
 2865 21c4 63FFFFEA 		b	.L492
 2866              		.size	CvtBmpLine, .-CvtBmpLine
 2867              		.align	2
 2868              		.global	Rectangle
 2869              		.syntax unified
 2870              		.arm
 2871              		.fpu neon-vfpv4
 2872              		.type	Rectangle, %function
 2873              	Rectangle:
 2874              		@ args = 4, pretend = 0, frame = 0
 2875              		@ frame_needed = 0, uses_anonymous_args = 0
 2876 21c8 00C050E2 		subs	ip, r0, #0
 2877 21cc 0800000A 		beq	.L529
 2878 21d0 10402DE9 		push	{r4, lr}
 2879 21d4 08D04DE2 		sub	sp, sp, #8
 2880 21d8 10E09DE5 		ldr	lr, [sp, #16]
 2881 21dc 00E08DE5 		str	lr, [sp]
 2882 21e0 2C409CE5 		ldr	r4, [ip, #44]
 2883 21e4 34FF2FE1 		blx	r4
 2884 21e8 0100A0E3 		mov	r0, #1
 2885 21ec 08D08DE2 		add	sp, sp, #8
 2886              		@ sp needed
 2887 21f0 1080BDE8 		pop	{r4, pc}
 2888              	.L529:
 2889 21f4 0C00A0E1 		mov	r0, ip
 2890 21f8 1EFF2FE1 		bx	lr
 2891              		.size	Rectangle, .-Rectangle
 2892              		.align	2
 2893              		.global	PiConsole_Init
 2894              		.syntax unified
 2895              		.arm
 2896              		.fpu neon-vfpv4
 2897              		.type	PiConsole_Init, %function
 2898              	PiConsole_Init:
 2899              		@ args = 0, pretend = 0, frame = 80
 2900              		@ frame_needed = 0, uses_anonymous_args = 0
 2901 21fc F0432DE9 		push	{r4, r5, r6, r7, r8, r9, lr}
 2902 2200 000051E3 		cmp	r1, #0
 2903 2204 00005013 		cmpne	r0, #0
 2904 2208 0240A0E1 		mov	r4, r2
 2905 220c 9CD04DE2 		sub	sp, sp, #156
 2906 2210 0380A0E1 		mov	r8, r3
 2907 2214 4C708DE2 		add	r7, sp, #76
ARM GAS  C:\Users\ldebo\AppData\Local\Temp\ccpehfH9.s 			page 52


 2908 2218 0050A0E1 		mov	r5, r0
 2909 221c 0160A0E1 		mov	r6, r1
 2910 2220 6500000A 		beq	.L559
 2911              	.L535:
 2912 2224 000054E3 		cmp	r4, #0
 2913 2228 0900001A 		bne	.L539
 2914 222c 0430A0E3 		mov	r3, #4
 2915 2230 0520A0E3 		mov	r2, #5
 2916 2234 042040E3 		movt	r2, 4
 2917 2238 18008DE8 		stm	sp, {r3, r4}
 2918 223c 0310A0E1 		mov	r1, r3
 2919 2240 0700A0E1 		mov	r0, r7
 2920 2244 BAFAFFEB 		bl	mailbox_tag_message.constprop.6
 2921 2248 000050E3 		cmp	r0, #0
 2922 224c 2200000A 		beq	.L540
 2923 2250 58409DE5 		ldr	r4, [sp, #88]
 2924              	.L539:
 2925 2254 08C0A0E3 		mov	ip, #8
 2926 2258 0410A0E3 		mov	r1, #4
 2927 225c 0130A0E3 		mov	r3, #1
 2928 2260 043040E3 		movt	r3, 4
 2929 2264 05E008E3 		movw	lr, #32773
 2930 2268 04E040E3 		movt	lr, 4
 2931 226c 042008E3 		movw	r2, #32772
 2932 2270 042040E3 		movt	r2, 4
 2933 2274 0700A0E1 		mov	r0, r7
 2934 2278 30308DE5 		str	r3, [sp, #48]
 2935 227c 20E08DE5 		str	lr, [sp, #32]
 2936 2280 0C30A0E1 		mov	r3, ip
 2937 2284 0C208DE5 		str	r2, [sp, #12]
 2938 2288 10E0A0E3 		mov	lr, #16
 2939 228c 38108DE5 		str	r1, [sp, #56]
 2940 2290 0070A0E3 		mov	r7, #0
 2941 2294 28108DE5 		str	r1, [sp, #40]
 2942 2298 032008E3 		movw	r2, #32771
 2943 229c 042040E3 		movt	r2, 4
 2944 22a0 24108DE5 		str	r1, [sp, #36]
 2945 22a4 1310A0E3 		mov	r1, #19
 2946 22a8 2C408DE5 		str	r4, [sp, #44]
 2947 22ac 1C608DE5 		str	r6, [sp, #28]
 2948 22b0 18508DE5 		str	r5, [sp, #24]
 2949 22b4 60008DE9 		stmib	sp, {r5, r6}
 2950 22b8 34C08DE5 		str	ip, [sp, #52]
 2951 22bc 14C08DE5 		str	ip, [sp, #20]
 2952 22c0 10C08DE5 		str	ip, [sp, #16]
 2953 22c4 00C08DE5 		str	ip, [sp]
 2954 22c8 40708DE5 		str	r7, [sp, #64]
 2955 22cc 3CE08DE5 		str	lr, [sp, #60]
 2956 22d0 06FBFFEB 		bl	mailbox_tag_message.constprop.7
 2957 22d4 009050E2 		subs	r9, r0, #0
 2958 22d8 0300001A 		bne	.L560
 2959              	.L540:
 2960 22dc 0090A0E3 		mov	r9, #0
 2961              	.L537:
 2962 22e0 0900A0E1 		mov	r0, r9
 2963 22e4 9CD08DE2 		add	sp, sp, #156
 2964              		@ sp needed
ARM GAS  C:\Users\ldebo\AppData\Local\Temp\ccpehfH9.s 			page 53


 2965 22e8 F083BDE8 		pop	{r4, r5, r6, r7, r8, r9, pc}
 2966              	.L560:
 2967 22ec 90009DE5 		ldr	r0, [sp, #144]
 2968 22f0 FEFFFFEB 		bl	GPUaddrToARMaddr
 2969 22f4 003000E3 		movw	r3, #:lower16:.LANCHOR1
 2970 22f8 003040E3 		movt	r3, #:upper16:.LANCHOR1
 2971 22fc 180054E3 		cmp	r4, #24
 2972 2300 0010E0E3 		mvn	r1, #0
 2973 2304 FF2CA0E3 		mov	r2, #65280
 2974 2308 002F4FE3 		movt	r2, 65280
 2975 230c 040083E5 		str	r0, [r3, #4]
 2976 2310 287083E5 		str	r7, [r3, #40]
 2977 2314 085083E5 		str	r5, [r3, #8]
 2978 2318 0C6083E5 		str	r6, [r3, #12]
 2979 231c 104083E5 		str	r4, [r3, #16]
 2980 2320 241083E5 		str	r1, [r3, #36]
 2981 2324 2C2083E5 		str	r2, [r3, #44]
 2982 2328 4C00000A 		beq	.L542
 2983 232c 200054E3 		cmp	r4, #32
 2984 2330 3400000A 		beq	.L543
 2985 2334 100054E3 		cmp	r4, #16
 2986 2338 1400001A 		bne	.L541
 2987 233c 002000E3 		movw	r2, #:lower16:ClearArea16
 2988 2340 002040E3 		movt	r2, #:upper16:ClearArea16
 2989 2344 001000E3 		movw	r1, #:lower16:VertLine16
 2990 2348 001040E3 		movt	r1, #:upper16:VertLine16
 2991 234c 302083E5 		str	r2, [r3, #48]
 2992 2350 002000E3 		movw	r2, #:lower16:HorzLine16
 2993 2354 002040E3 		movt	r2, #:upper16:HorzLine16
 2994 2358 341083E5 		str	r1, [r3, #52]
 2995 235c 001000E3 		movw	r1, #:lower16:DiagLine16
 2996 2360 001040E3 		movt	r1, #:upper16:DiagLine16
 2997 2364 382083E5 		str	r2, [r3, #56]
 2998 2368 002000E3 		movw	r2, #:lower16:WriteChar16
 2999 236c 002040E3 		movt	r2, #:upper16:WriteChar16
 3000 2370 3C1083E5 		str	r1, [r3, #60]
 3001 2374 001000E3 		movw	r1, #:lower16:TransparentWriteChar16
 3002 2378 001040E3 		movt	r1, #:upper16:TransparentWriteChar16
 3003 237c 402083E5 		str	r2, [r3, #64]
 3004 2380 002000E3 		movw	r2, #:lower16:PutImage16
 3005 2384 002040E3 		movt	r2, #:upper16:PutImage16
 3006 2388 441083E5 		str	r1, [r3, #68]
 3007 238c 482083E5 		str	r2, [r3, #72]
 3008              	.L541:
 3009 2390 000058E3 		cmp	r8, #0
 3010 2394 D1FFFF0A 		beq	.L537
 3011 2398 0430A0E1 		mov	r3, r4
 3012 239c 0620A0E1 		mov	r2, r6
 3013 23a0 0510A0E1 		mov	r1, r5
 3014 23a4 000000E3 		movw	r0, #:lower16:.LC7
 3015 23a8 000040E3 		movt	r0, #:upper16:.LC7
 3016 23ac 38FF2FE1 		blx	r8
 3017 23b0 0900A0E1 		mov	r0, r9
 3018 23b4 9CD08DE2 		add	sp, sp, #156
 3019              		@ sp needed
 3020 23b8 F083BDE8 		pop	{r4, r5, r6, r7, r8, r9, pc}
 3021              	.L559:
ARM GAS  C:\Users\ldebo\AppData\Local\Temp\ccpehfH9.s 			page 54


 3022 23bc 0030A0E3 		mov	r3, #0
 3023 23c0 0700A0E1 		mov	r0, r7
 3024 23c4 08308DE5 		str	r3, [sp, #8]
 3025 23c8 0320A0E3 		mov	r2, #3
 3026 23cc 042040E3 		movt	r2, 4
 3027 23d0 04308DE5 		str	r3, [sp, #4]
 3028 23d4 0510A0E3 		mov	r1, #5
 3029 23d8 00308DE5 		str	r3, [sp]
 3030 23dc 0830A0E3 		mov	r3, #8
 3031 23e0 00FBFFEB 		bl	mailbox_tag_message.constprop.5
 3032 23e4 000050E3 		cmp	r0, #0
 3033 23e8 BBFFFF0A 		beq	.L540
 3034 23ec 000055E3 		cmp	r5, #0
 3035 23f0 0200001A 		bne	.L538
 3036 23f4 000056E3 		cmp	r6, #0
 3037 23f8 58509DE5 		ldr	r5, [sp, #88]
 3038 23fc 88FFFF1A 		bne	.L535
 3039              	.L538:
 3040 2400 5C609DE5 		ldr	r6, [sp, #92]
 3041 2404 86FFFFEA 		b	.L535
 3042              	.L543:
 3043 2408 002000E3 		movw	r2, #:lower16:ClearArea32
 3044 240c 002040E3 		movt	r2, #:upper16:ClearArea32
 3045 2410 001000E3 		movw	r1, #:lower16:VertLine32
 3046 2414 001040E3 		movt	r1, #:upper16:VertLine32
 3047 2418 302083E5 		str	r2, [r3, #48]
 3048 241c 002000E3 		movw	r2, #:lower16:HorzLine32
 3049 2420 002040E3 		movt	r2, #:upper16:HorzLine32
 3050 2424 341083E5 		str	r1, [r3, #52]
 3051 2428 001000E3 		movw	r1, #:lower16:DiagLine32
 3052 242c 001040E3 		movt	r1, #:upper16:DiagLine32
 3053 2430 382083E5 		str	r2, [r3, #56]
 3054 2434 002000E3 		movw	r2, #:lower16:WriteChar32
 3055 2438 002040E3 		movt	r2, #:upper16:WriteChar32
 3056 243c 3C1083E5 		str	r1, [r3, #60]
 3057 2440 001000E3 		movw	r1, #:lower16:TransparentWriteChar32
 3058 2444 001040E3 		movt	r1, #:upper16:TransparentWriteChar32
 3059 2448 402083E5 		str	r2, [r3, #64]
 3060 244c 002000E3 		movw	r2, #:lower16:PutImage32
 3061 2450 002040E3 		movt	r2, #:upper16:PutImage32
 3062 2454 441083E5 		str	r1, [r3, #68]
 3063 2458 482083E5 		str	r2, [r3, #72]
 3064 245c CBFFFFEA 		b	.L541
 3065              	.L542:
 3066 2460 002000E3 		movw	r2, #:lower16:ClearArea24
 3067 2464 002040E3 		movt	r2, #:upper16:ClearArea24
 3068 2468 001000E3 		movw	r1, #:lower16:VertLine24
 3069 246c 001040E3 		movt	r1, #:upper16:VertLine24
 3070 2470 302083E5 		str	r2, [r3, #48]
 3071 2474 002000E3 		movw	r2, #:lower16:HorzLine24
 3072 2478 002040E3 		movt	r2, #:upper16:HorzLine24
 3073 247c 341083E5 		str	r1, [r3, #52]
 3074 2480 001000E3 		movw	r1, #:lower16:DiagLine24
 3075 2484 001040E3 		movt	r1, #:upper16:DiagLine24
 3076 2488 382083E5 		str	r2, [r3, #56]
 3077 248c 002000E3 		movw	r2, #:lower16:WriteChar24
 3078 2490 002040E3 		movt	r2, #:upper16:WriteChar24
ARM GAS  C:\Users\ldebo\AppData\Local\Temp\ccpehfH9.s 			page 55


 3079 2494 3C1083E5 		str	r1, [r3, #60]
 3080 2498 001000E3 		movw	r1, #:lower16:TransparentWriteChar24
 3081 249c 001040E3 		movt	r1, #:upper16:TransparentWriteChar24
 3082 24a0 402083E5 		str	r2, [r3, #64]
 3083 24a4 002000E3 		movw	r2, #:lower16:PutImage24
 3084 24a8 002040E3 		movt	r2, #:upper16:PutImage24
 3085 24ac 441083E5 		str	r1, [r3, #68]
 3086 24b0 482083E5 		str	r2, [r3, #72]
 3087 24b4 B5FFFFEA 		b	.L541
 3088              		.size	PiConsole_Init, .-PiConsole_Init
 3089              		.align	2
 3090              		.global	GetConsoleDC
 3091              		.syntax unified
 3092              		.arm
 3093              		.fpu neon-vfpv4
 3094              		.type	GetConsoleDC, %function
 3095              	GetConsoleDC:
 3096              		@ args = 0, pretend = 0, frame = 0
 3097              		@ frame_needed = 0, uses_anonymous_args = 0
 3098              		@ link register save eliminated.
 3099 24b8 00009FE5 		ldr	r0, .L562
 3100 24bc 1EFF2FE1 		bx	lr
 3101              	.L563:
 3102              		.align	2
 3103              	.L562:
 3104 24c0 04000000 		.word	.LANCHOR1+4
 3105              		.size	GetConsoleDC, .-GetConsoleDC
 3106              		.align	2
 3107              		.global	GetConsole_FrameBuffer
 3108              		.syntax unified
 3109              		.arm
 3110              		.fpu neon-vfpv4
 3111              		.type	GetConsole_FrameBuffer, %function
 3112              	GetConsole_FrameBuffer:
 3113              		@ args = 0, pretend = 0, frame = 0
 3114              		@ frame_needed = 0, uses_anonymous_args = 0
 3115              		@ link register save eliminated.
 3116 24c4 003000E3 		movw	r3, #:lower16:.LANCHOR1
 3117 24c8 003040E3 		movt	r3, #:upper16:.LANCHOR1
 3118 24cc 040093E5 		ldr	r0, [r3, #4]
 3119 24d0 1EFF2FE1 		bx	lr
 3120              		.size	GetConsole_FrameBuffer, .-GetConsole_FrameBuffer
 3121              		.align	2
 3122              		.global	GetConsole_Width
 3123              		.syntax unified
 3124              		.arm
 3125              		.fpu neon-vfpv4
 3126              		.type	GetConsole_Width, %function
 3127              	GetConsole_Width:
 3128              		@ args = 0, pretend = 0, frame = 0
 3129              		@ frame_needed = 0, uses_anonymous_args = 0
 3130              		@ link register save eliminated.
 3131 24d4 003000E3 		movw	r3, #:lower16:.LANCHOR1
 3132 24d8 003040E3 		movt	r3, #:upper16:.LANCHOR1
 3133 24dc 080093E5 		ldr	r0, [r3, #8]
 3134 24e0 1EFF2FE1 		bx	lr
 3135              		.size	GetConsole_Width, .-GetConsole_Width
ARM GAS  C:\Users\ldebo\AppData\Local\Temp\ccpehfH9.s 			page 56


 3136              		.align	2
 3137              		.global	GetConsole_Height
 3138              		.syntax unified
 3139              		.arm
 3140              		.fpu neon-vfpv4
 3141              		.type	GetConsole_Height, %function
 3142              	GetConsole_Height:
 3143              		@ args = 0, pretend = 0, frame = 0
 3144              		@ frame_needed = 0, uses_anonymous_args = 0
 3145              		@ link register save eliminated.
 3146 24e4 003000E3 		movw	r3, #:lower16:.LANCHOR1
 3147 24e8 003040E3 		movt	r3, #:upper16:.LANCHOR1
 3148 24ec 0C0093E5 		ldr	r0, [r3, #12]
 3149 24f0 1EFF2FE1 		bx	lr
 3150              		.size	GetConsole_Height, .-GetConsole_Height
 3151              		.align	2
 3152              		.global	WhereXY
 3153              		.syntax unified
 3154              		.arm
 3155              		.fpu neon-vfpv4
 3156              		.type	WhereXY, %function
 3157              	WhereXY:
 3158              		@ args = 0, pretend = 0, frame = 0
 3159              		@ frame_needed = 0, uses_anonymous_args = 0
 3160              		@ link register save eliminated.
 3161 24f4 000050E3 		cmp	r0, #0
 3162 24f8 00300013 		movwne	r3, #:lower16:.LANCHOR1
 3163 24fc 00304013 		movtne	r3, #:upper16:.LANCHOR1
 3164 2500 1C309315 		ldrne	r3, [r3, #28]
 3165 2504 00308015 		strne	r3, [r0]
 3166 2508 000051E3 		cmp	r1, #0
 3167 250c 00300013 		movwne	r3, #:lower16:.LANCHOR1
 3168 2510 00304013 		movtne	r3, #:upper16:.LANCHOR1
 3169 2514 20309315 		ldrne	r3, [r3, #32]
 3170 2518 00308115 		strne	r3, [r1]
 3171 251c 1EFF2FE1 		bx	lr
 3172              		.size	WhereXY, .-WhereXY
 3173              		.align	2
 3174              		.global	GotoXY
 3175              		.syntax unified
 3176              		.arm
 3177              		.fpu neon-vfpv4
 3178              		.type	GotoXY, %function
 3179              	GotoXY:
 3180              		@ args = 0, pretend = 0, frame = 0
 3181              		@ frame_needed = 0, uses_anonymous_args = 0
 3182              		@ link register save eliminated.
 3183 2520 003000E3 		movw	r3, #:lower16:.LANCHOR1
 3184 2524 003040E3 		movt	r3, #:upper16:.LANCHOR1
 3185 2528 1C0083E5 		str	r0, [r3, #28]
 3186 252c 201083E5 		str	r1, [r3, #32]
 3187 2530 1EFF2FE1 		bx	lr
 3188              		.size	GotoXY, .-GotoXY
 3189              		.align	2
 3190              		.weak	_sbrk
 3191              		.syntax unified
 3192              		.arm
ARM GAS  C:\Users\ldebo\AppData\Local\Temp\ccpehfH9.s 			page 57


 3193              		.fpu neon-vfpv4
 3194              		.type	_sbrk, %function
 3195              	_sbrk:
 3196              		@ args = 0, pretend = 0, frame = 0
 3197              		@ frame_needed = 0, uses_anonymous_args = 0
 3198              		@ link register save eliminated.
 3199 2534 002000E3 		movw	r2, #:lower16:.LANCHOR1
 3200 2538 002040E3 		movt	r2, #:upper16:.LANCHOR1
 3201 253c 001000E3 		movw	r1, #:lower16:_end
 3202 2540 001040E3 		movt	r1, #:upper16:_end
 3203 2544 4C3092E5 		ldr	r3, [r2, #76]
 3204 2548 000053E3 		cmp	r3, #0
 3205 254c 0130A001 		moveq	r3, r1
 3206 2550 001083E0 		add	r1, r3, r0
 3207 2554 0300A0E1 		mov	r0, r3
 3208 2558 4C1082E5 		str	r1, [r2, #76]
 3209 255c 1EFF2FE1 		bx	lr
 3210              		.size	_sbrk, .-_sbrk
 3211              		.global	console
 3212              		.global	BitFontEnd
 3213              		.section	.rodata
 3214              		.align	2
 3215              		.set	.LANCHOR0,. + 0
 3216              		.type	BitFont, %object
 3217              		.size	BitFont, 4096
 3218              	BitFont:
 3219 0000 00000000 		.word	0
 3220 0004 00000000 		.word	0
 3221 0008 00000000 		.word	0
 3222 000c 00000000 		.word	0
 3223 0010 817E0000 		.word	32385
 3224 0014 BD8181A5 		.word	-1518239299
 3225 0018 7E818199 		.word	-1719565954
 3226 001c 00000000 		.word	0
 3227 0020 FF7E0000 		.word	32511
 3228 0024 C3FFFFDB 		.word	-603979837
 3229 0028 7EFFFFE7 		.word	-402653314
 3230 002c 00000000 		.word	0
 3231 0030 00000000 		.word	0
 3232 0034 FEFEFE6C 		.word	1828650750
 3233 0038 10387CFE 		.word	-25413616
 3234 003c 00000000 		.word	0
 3235 0040 00000000 		.word	0
 3236 0044 FE7C3810 		.word	272137470
 3237 0048 0010387C 		.word	2084048896
 3238 004c 00000000 		.word	0
 3239 0050 18000000 		.word	24
 3240 0054 E7E73C3C 		.word	1010624487
 3241 0058 3C1818E7 		.word	-417851332
 3242 005c 00000000 		.word	0
 3243 0060 18000000 		.word	24
 3244 0064 FFFF7E3C 		.word	1014956031
 3245 0068 3C18187E 		.word	2115508284
 3246 006c 00000000 		.word	0
 3247 0070 00000000 		.word	0
 3248 0074 3C180000 		.word	6204
 3249 0078 0000183C 		.word	1008205824
ARM GAS  C:\Users\ldebo\AppData\Local\Temp\ccpehfH9.s 			page 58


 3250 007c 00000000 		.word	0
 3251 0080 FFFFFFFF 		.word	-1
 3252 0084 C3E7FFFF 		.word	-6205
 3253 0088 FFFFE7C3 		.word	-1008205825
 3254 008c FFFFFFFF 		.word	-1
 3255 0090 00000000 		.word	0
 3256 0094 42663C00 		.word	3958338
 3257 0098 003C6642 		.word	1113996288
 3258 009c 00000000 		.word	0
 3259 00a0 FFFFFFFF 		.word	-1
 3260 00a4 BD99C3FF 		.word	-3958339
 3261 00a8 FFC399BD 		.word	-1113996289
 3262 00ac FFFFFFFF 		.word	-1
 3263 00b0 0E1E0000 		.word	7694
 3264 00b4 CC78321A 		.word	439515340
 3265 00b8 78CCCCCC 		.word	-858993544
 3266 00bc 00000000 		.word	0
 3267 00c0 663C0000 		.word	15462
 3268 00c4 3C666666 		.word	1717986876
 3269 00c8 18187E18 		.word	410916888
 3270 00cc 00000000 		.word	0
 3271 00d0 333F0000 		.word	16179
 3272 00d4 3030303F 		.word	1060122672
 3273 00d8 E0F07030 		.word	812708064
 3274 00dc 00000000 		.word	0
 3275 00e0 637F0000 		.word	32611
 3276 00e4 6363637F 		.word	2137219939
 3277 00e8 E6E76763 		.word	1667753958
 3278 00ec 000000C0 		.word	-1073741824
 3279 00f0 18000000 		.word	24
 3280 00f4 E73CDB18 		.word	417021159
 3281 00f8 1818DB3C 		.word	1020991512
 3282 00fc 00000000 		.word	0
 3283 0100 E0C08000 		.word	8437984
 3284 0104 F8FEF8F0 		.word	-252117256
 3285 0108 80C0E0F0 		.word	-253706112
 3286 010c 00000000 		.word	0
 3287 0110 0E060200 		.word	132622
 3288 0114 3EFE3E1E 		.word	507444798
 3289 0118 02060E1E 		.word	504235522
 3290 011c 00000000 		.word	0
 3291 0120 3C180000 		.word	6204
 3292 0124 1818187E 		.word	2115508248
 3293 0128 00183C7E 		.word	2117867520
 3294 012c 00000000 		.word	0
 3295 0130 66660000 		.word	26214
 3296 0134 66666666 		.word	1717986918
 3297 0138 66660066 		.word	1711302246
 3298 013c 00000000 		.word	0
 3299 0140 DB7F0000 		.word	32731
 3300 0144 1B7BDBDB 		.word	-606373093
 3301 0148 1B1B1B1B 		.word	454761243
 3302 014c 00000000 		.word	0
 3303 0150 60C67C00 		.word	8177248
 3304 0154 C6C66C38 		.word	946652870
 3305 0158 C60C386C 		.word	1815612614
 3306 015c 0000007C 		.word	2080374784
ARM GAS  C:\Users\ldebo\AppData\Local\Temp\ccpehfH9.s 			page 59


 3307 0160 00000000 		.word	0
 3308 0164 00000000 		.word	0
 3309 0168 FEFEFEFE 		.word	-16843010
 3310 016c 00000000 		.word	0
 3311 0170 3C180000 		.word	6204
 3312 0174 1818187E 		.word	2115508248
 3313 0178 7E183C7E 		.word	2117867646
 3314 017c 00000000 		.word	0
 3315 0180 3C180000 		.word	6204
 3316 0184 1818187E 		.word	2115508248
 3317 0188 18181818 		.word	404232216
 3318 018c 00000000 		.word	0
 3319 0190 18180000 		.word	6168
 3320 0194 18181818 		.word	404232216
 3321 0198 183C7E18 		.word	410926104
 3322 019c 00000000 		.word	0
 3323 01a0 00000000 		.word	0
 3324 01a4 FE0C1800 		.word	1576190
 3325 01a8 0000180C 		.word	202899456
 3326 01ac 00000000 		.word	0
 3327 01b0 00000000 		.word	0
 3328 01b4 FE603000 		.word	3170558
 3329 01b8 00003060 		.word	1613758464
 3330 01bc 00000000 		.word	0
 3331 01c0 00000000 		.word	0
 3332 01c4 C0C00000 		.word	49344
 3333 01c8 0000FEC0 		.word	-1057095680
 3334 01cc 00000000 		.word	0
 3335 01d0 00000000 		.word	0
 3336 01d4 FE6C2800 		.word	2649342
 3337 01d8 0000286C 		.word	1814560768
 3338 01dc 00000000 		.word	0
 3339 01e0 00000000 		.word	0
 3340 01e4 7C383810 		.word	272119932
 3341 01e8 00FEFE7C 		.word	2097085952
 3342 01ec 00000000 		.word	0
 3343 01f0 00000000 		.word	0
 3344 01f4 7C7CFEFE 		.word	-16876420
 3345 01f8 00103838 		.word	943198208
 3346 01fc 00000000 		.word	0
 3347 0200 00000000 		.word	0
 3348 0204 00000000 		.word	0
 3349 0208 00000000 		.word	0
 3350 020c 00000000 		.word	0
 3351 0210 3C180000 		.word	6204
 3352 0214 18183C3C 		.word	1010571288
 3353 0218 18180018 		.word	402659352
 3354 021c 00000000 		.word	0
 3355 0220 66666600 		.word	6710886
 3356 0224 00000024 		.word	603979776
 3357 0228 00000000 		.word	0
 3358 022c 00000000 		.word	0
 3359 0230 6C000000 		.word	108
 3360 0234 6C6CFE6C 		.word	1828613228
 3361 0238 6C6CFE6C 		.word	1828613228
 3362 023c 00000000 		.word	0
 3363 0240 C67C1818 		.word	404257990
ARM GAS  C:\Users\ldebo\AppData\Local\Temp\ccpehfH9.s 			page 60


 3364 0244 067CC0C2 		.word	-1027572730
 3365 0248 7CC68606 		.word	109495932
 3366 024c 00001818 		.word	404226048
 3367 0250 00000000 		.word	0
 3368 0254 180CC6C2 		.word	-1027208168
 3369 0258 86C66030 		.word	811648646
 3370 025c 00000000 		.word	0
 3371 0260 6C380000 		.word	14444
 3372 0264 DC76386C 		.word	1815639772
 3373 0268 76CCCCCC 		.word	-858993546
 3374 026c 00000000 		.word	0
 3375 0270 30303000 		.word	3158064
 3376 0274 00000060 		.word	1610612736
 3377 0278 00000000 		.word	0
 3378 027c 00000000 		.word	0
 3379 0280 180C0000 		.word	3096
 3380 0284 30303030 		.word	808464432
 3381 0288 0C183030 		.word	808458252
 3382 028c 00000000 		.word	0
 3383 0290 18300000 		.word	12312
 3384 0294 0C0C0C0C 		.word	202116108
 3385 0298 30180C0C 		.word	202119216
 3386 029c 00000000 		.word	0
 3387 02a0 00000000 		.word	0
 3388 02a4 FF3C6600 		.word	6700287
 3389 02a8 0000663C 		.word	1013317632
 3390 02ac 00000000 		.word	0
 3391 02b0 00000000 		.word	0
 3392 02b4 7E181800 		.word	1579134
 3393 02b8 00001818 		.word	404226048
 3394 02bc 00000000 		.word	0
 3395 02c0 00000000 		.word	0
 3396 02c4 00000000 		.word	0
 3397 02c8 18181800 		.word	1579032
 3398 02cc 00000030 		.word	805306368
 3399 02d0 00000000 		.word	0
 3400 02d4 FE000000 		.word	254
 3401 02d8 00000000 		.word	0
 3402 02dc 00000000 		.word	0
 3403 02e0 00000000 		.word	0
 3404 02e4 00000000 		.word	0
 3405 02e8 18180000 		.word	6168
 3406 02ec 00000000 		.word	0
 3407 02f0 00000000 		.word	0
 3408 02f4 180C0602 		.word	33950744
 3409 02f8 80C06030 		.word	811647104
 3410 02fc 00000000 		.word	0
 3411 0300 6C380000 		.word	14444
 3412 0304 D6D6C6C6 		.word	-960047402
 3413 0308 386CC6C6 		.word	-960074696
 3414 030c 00000000 		.word	0
 3415 0310 38180000 		.word	6200
 3416 0314 18181878 		.word	2014844952
 3417 0318 7E181818 		.word	404232318
 3418 031c 00000000 		.word	0
 3419 0320 C67C0000 		.word	31942
 3420 0324 30180C06 		.word	101455920
ARM GAS  C:\Users\ldebo\AppData\Local\Temp\ccpehfH9.s 			page 61


 3421 0328 FEC6C060 		.word	1623246590
 3422 032c 00000000 		.word	0
 3423 0330 C67C0000 		.word	31942
 3424 0334 063C0606 		.word	101071878
 3425 0338 7CC60606 		.word	101107324
 3426 033c 00000000 		.word	0
 3427 0340 1C0C0000 		.word	3100
 3428 0344 FECC6C3C 		.word	1013763326
 3429 0348 1E0C0C0C 		.word	202116126
 3430 034c 00000000 		.word	0
 3431 0350 C0FE0000 		.word	65216
 3432 0354 06FCC0C0 		.word	-1061094394
 3433 0358 7CC60606 		.word	101107324
 3434 035c 00000000 		.word	0
 3435 0360 60380000 		.word	14432
 3436 0364 C6FCC0C0 		.word	-1061094202
 3437 0368 7CC6C6C6 		.word	-960051588
 3438 036c 00000000 		.word	0
 3439 0370 C6FE0000 		.word	65222
 3440 0374 180C0606 		.word	101059608
 3441 0378 30303030 		.word	808464432
 3442 037c 00000000 		.word	0
 3443 0380 C67C0000 		.word	31942
 3444 0384 C67CC6C6 		.word	-960070458
 3445 0388 7CC6C6C6 		.word	-960051588
 3446 038c 00000000 		.word	0
 3447 0390 C67C0000 		.word	31942
 3448 0394 067EC6C6 		.word	-960070138
 3449 0398 780C0606 		.word	101059704
 3450 039c 00000000 		.word	0
 3451 03a0 00000000 		.word	0
 3452 03a4 00001818 		.word	404226048
 3453 03a8 00181800 		.word	1579008
 3454 03ac 00000000 		.word	0
 3455 03b0 00000000 		.word	0
 3456 03b4 00001818 		.word	404226048
 3457 03b8 30181800 		.word	1579056
 3458 03bc 00000000 		.word	0
 3459 03c0 06000000 		.word	6
 3460 03c4 6030180C 		.word	202911840
 3461 03c8 060C1830 		.word	806882310
 3462 03cc 00000000 		.word	0
 3463 03d0 00000000 		.word	0
 3464 03d4 00007E00 		.word	8257536
 3465 03d8 0000007E 		.word	2113929216
 3466 03dc 00000000 		.word	0
 3467 03e0 60000000 		.word	96
 3468 03e4 060C1830 		.word	806882310
 3469 03e8 6030180C 		.word	202911840
 3470 03ec 00000000 		.word	0
 3471 03f0 C67C0000 		.word	31942
 3472 03f4 18180CC6 		.word	-972285928
 3473 03f8 18180018 		.word	402659352
 3474 03fc 00000000 		.word	0
 3475 0400 7C000000 		.word	124
 3476 0404 DEDEC6C6 		.word	-960045346
 3477 0408 7CC0DCDE 		.word	-555958148
ARM GAS  C:\Users\ldebo\AppData\Local\Temp\ccpehfH9.s 			page 62


 3478 040c 00000000 		.word	0
 3479 0410 38100000 		.word	4152
 3480 0414 FEC6C66C 		.word	1824966398
 3481 0418 C6C6C6C6 		.word	-960051514
 3482 041c 00000000 		.word	0
 3483 0420 66FC0000 		.word	64614
 3484 0424 667C6666 		.word	1717992550
 3485 0428 FC666666 		.word	1717987068
 3486 042c 00000000 		.word	0
 3487 0430 663C0000 		.word	15462
 3488 0434 C0C0C0C2 		.word	-1027555136
 3489 0438 3C66C2C0 		.word	-1061001668
 3490 043c 00000000 		.word	0
 3491 0440 6CF80000 		.word	63596
 3492 0444 66666666 		.word	1717986918
 3493 0448 F86C6666 		.word	1717988600
 3494 044c 00000000 		.word	0
 3495 0450 66FE0000 		.word	65126
 3496 0454 68786862 		.word	1651013736
 3497 0458 FE666260 		.word	1617061630
 3498 045c 00000000 		.word	0
 3499 0460 66FE0000 		.word	65126
 3500 0464 68786862 		.word	1651013736
 3501 0468 F0606060 		.word	1616929008
 3502 046c 00000000 		.word	0
 3503 0470 663C0000 		.word	15462
 3504 0474 DEC0C0C2 		.word	-1027555106
 3505 0478 3A66C6C6 		.word	-960076230
 3506 047c 00000000 		.word	0
 3507 0480 C6C60000 		.word	50886
 3508 0484 C6FEC6C6 		.word	-960037178
 3509 0488 C6C6C6C6 		.word	-960051514
 3510 048c 00000000 		.word	0
 3511 0490 183C0000 		.word	15384
 3512 0494 18181818 		.word	404232216
 3513 0498 3C181818 		.word	404232252
 3514 049c 00000000 		.word	0
 3515 04a0 0C1E0000 		.word	7692
 3516 04a4 0C0C0C0C 		.word	202116108
 3517 04a8 78CCCCCC 		.word	-858993544
 3518 04ac 00000000 		.word	0
 3519 04b0 66E60000 		.word	58982
 3520 04b4 78786C66 		.word	1718384760
 3521 04b8 E666666C 		.word	1818650342
 3522 04bc 00000000 		.word	0
 3523 04c0 60F00000 		.word	61536
 3524 04c4 60606060 		.word	1616928864
 3525 04c8 FE666260 		.word	1617061630
 3526 04cc 00000000 		.word	0
 3527 04d0 EEC60000 		.word	50926
 3528 04d4 C6D6FEFE 		.word	-16853306
 3529 04d8 C6C6C6C6 		.word	-960051514
 3530 04dc 00000000 		.word	0
 3531 04e0 E6C60000 		.word	50918
 3532 04e4 CEDEFEF6 		.word	-151068978
 3533 04e8 C6C6C6C6 		.word	-960051514
 3534 04ec 00000000 		.word	0
ARM GAS  C:\Users\ldebo\AppData\Local\Temp\ccpehfH9.s 			page 63


 3535 04f0 C67C0000 		.word	31942
 3536 04f4 C6C6C6C6 		.word	-960051514
 3537 04f8 7CC6C6C6 		.word	-960051588
 3538 04fc 00000000 		.word	0
 3539 0500 66FC0000 		.word	64614
 3540 0504 607C6666 		.word	1717992544
 3541 0508 F0606060 		.word	1616929008
 3542 050c 00000000 		.word	0
 3543 0510 C67C0000 		.word	31942
 3544 0514 C6C6C6C6 		.word	-960051514
 3545 0518 7CDED6C6 		.word	-958996868
 3546 051c 00000E0C 		.word	202244096
 3547 0520 66FC0000 		.word	64614
 3548 0524 6C7C6666 		.word	1717992556
 3549 0528 E6666666 		.word	1717987046
 3550 052c 00000000 		.word	0
 3551 0530 C67C0000 		.word	31942
 3552 0534 0C3860C6 		.word	-966772724
 3553 0538 7CC6C606 		.word	113690236
 3554 053c 00000000 		.word	0
 3555 0540 7E7E0000 		.word	32382
 3556 0544 1818185A 		.word	1511528472
 3557 0548 3C181818 		.word	404232252
 3558 054c 00000000 		.word	0
 3559 0550 C6C60000 		.word	50886
 3560 0554 C6C6C6C6 		.word	-960051514
 3561 0558 7CC6C6C6 		.word	-960051588
 3562 055c 00000000 		.word	0
 3563 0560 C6C60000 		.word	50886
 3564 0564 C6C6C6C6 		.word	-960051514
 3565 0568 10386CC6 		.word	-965986288
 3566 056c 00000000 		.word	0
 3567 0570 C6C60000 		.word	50886
 3568 0574 D6D6C6C6 		.word	-960047402
 3569 0578 6CEEFED6 		.word	-687935892
 3570 057c 00000000 		.word	0
 3571 0580 C6C60000 		.word	50886
 3572 0584 38387C6C 		.word	1820080184
 3573 0588 C6C66C7C 		.word	2087503558
 3574 058c 00000000 		.word	0
 3575 0590 66660000 		.word	26214
 3576 0594 183C6666 		.word	1717976088
 3577 0598 3C181818 		.word	404232252
 3578 059c 00000000 		.word	0
 3579 05a0 C6FE0000 		.word	65222
 3580 05a4 30180C86 		.word	-2046027728
 3581 05a8 FEC6C260 		.word	1623377662
 3582 05ac 00000000 		.word	0
 3583 05b0 303C0000 		.word	15408
 3584 05b4 30303030 		.word	808464432
 3585 05b8 3C303030 		.word	808464444
 3586 05bc 00000000 		.word	0
 3587 05c0 80000000 		.word	128
 3588 05c4 3870E0C0 		.word	-1059033032
 3589 05c8 02060E1C 		.word	470681090
 3590 05cc 00000000 		.word	0
 3591 05d0 0C3C0000 		.word	15372
ARM GAS  C:\Users\ldebo\AppData\Local\Temp\ccpehfH9.s 			page 64


 3592 05d4 0C0C0C0C 		.word	202116108
 3593 05d8 3C0C0C0C 		.word	202116156
 3594 05dc 00000000 		.word	0
 3595 05e0 C66C3810 		.word	272133318
 3596 05e4 00000000 		.word	0
 3597 05e8 00000000 		.word	0
 3598 05ec 00000000 		.word	0
 3599 05f0 00000000 		.word	0
 3600 05f4 00000000 		.word	0
 3601 05f8 00000000 		.word	0
 3602 05fc 0000FF00 		.word	16711680
 3603 0600 00183030 		.word	808458240
 3604 0604 00000000 		.word	0
 3605 0608 00000000 		.word	0
 3606 060c 00000000 		.word	0
 3607 0610 00000000 		.word	0
 3608 0614 7C0C7800 		.word	7867516
 3609 0618 76CCCCCC 		.word	-858993546
 3610 061c 00000000 		.word	0
 3611 0620 60E00000 		.word	57440
 3612 0624 666C7860 		.word	1618504806
 3613 0628 7C666666 		.word	1717986940
 3614 062c 00000000 		.word	0
 3615 0630 00000000 		.word	0
 3616 0634 C0C67C00 		.word	8177344
 3617 0638 7CC6C0C0 		.word	-1061108100
 3618 063c 00000000 		.word	0
 3619 0640 0C1C0000 		.word	7180
 3620 0644 CC6C3C0C 		.word	205286604
 3621 0648 76CCCCCC 		.word	-858993546
 3622 064c 00000000 		.word	0
 3623 0650 00000000 		.word	0
 3624 0654 FEC67C00 		.word	8177406
 3625 0658 7CC6C0C0 		.word	-1061108100
 3626 065c 00000000 		.word	0
 3627 0660 6C380000 		.word	14444
 3628 0664 60F06064 		.word	1684074592
 3629 0668 F0606060 		.word	1616929008
 3630 066c 00000000 		.word	0
 3631 0670 00000000 		.word	0
 3632 0674 CCCC7600 		.word	7785676
 3633 0678 7CCCCCCC 		.word	-858993540
 3634 067c 0078CC0C 		.word	214726656
 3635 0680 60E00000 		.word	57440
 3636 0684 66766C60 		.word	1617720934
 3637 0688 E6666666 		.word	1717987046
 3638 068c 00000000 		.word	0
 3639 0690 18180000 		.word	6168
 3640 0694 18183800 		.word	3676184
 3641 0698 3C181818 		.word	404232252
 3642 069c 00000000 		.word	0
 3643 06a0 06060000 		.word	1542
 3644 06a4 06060E00 		.word	919046
 3645 06a8 06060606 		.word	101058054
 3646 06ac 003C6666 		.word	1717976064
 3647 06b0 60E00000 		.word	57440
 3648 06b4 786C6660 		.word	1617325176
ARM GAS  C:\Users\ldebo\AppData\Local\Temp\ccpehfH9.s 			page 65


 3649 06b8 E6666C78 		.word	2020370150
 3650 06bc 00000000 		.word	0
 3651 06c0 18380000 		.word	14360
 3652 06c4 18181818 		.word	404232216
 3653 06c8 3C181818 		.word	404232252
 3654 06cc 00000000 		.word	0
 3655 06d0 00000000 		.word	0
 3656 06d4 D6FEEC00 		.word	15531734
 3657 06d8 C6D6D6D6 		.word	-690563386
 3658 06dc 00000000 		.word	0
 3659 06e0 00000000 		.word	0
 3660 06e4 6666DC00 		.word	14444134
 3661 06e8 66666666 		.word	1717986918
 3662 06ec 00000000 		.word	0
 3663 06f0 00000000 		.word	0
 3664 06f4 C6C67C00 		.word	8177350
 3665 06f8 7CC6C6C6 		.word	-960051588
 3666 06fc 00000000 		.word	0
 3667 0700 00000000 		.word	0
 3668 0704 6666DC00 		.word	14444134
 3669 0708 7C666666 		.word	1717986940
 3670 070c 00F06060 		.word	1616965632
 3671 0710 00000000 		.word	0
 3672 0714 CCCC7600 		.word	7785676
 3673 0718 7CCCCCCC 		.word	-858993540
 3674 071c 001E0C0C 		.word	202120704
 3675 0720 00000000 		.word	0
 3676 0724 6676DC00 		.word	14448230
 3677 0728 F0606060 		.word	1616929008
 3678 072c 00000000 		.word	0
 3679 0730 00000000 		.word	0
 3680 0734 60C67C00 		.word	8177248
 3681 0738 7CC60C38 		.word	940361340
 3682 073c 00000000 		.word	0
 3683 0740 30100000 		.word	4144
 3684 0744 3030FC30 		.word	821833776
 3685 0748 1C363030 		.word	808465948
 3686 074c 00000000 		.word	0
 3687 0750 00000000 		.word	0
 3688 0754 CCCCCC00 		.word	13421772
 3689 0758 76CCCCCC 		.word	-858993546
 3690 075c 00000000 		.word	0
 3691 0760 00000000 		.word	0
 3692 0764 66666600 		.word	6710886
 3693 0768 183C6666 		.word	1717976088
 3694 076c 00000000 		.word	0
 3695 0770 00000000 		.word	0
 3696 0774 D6C6C600 		.word	13027030
 3697 0778 6CFED6D6 		.word	-690553236
 3698 077c 00000000 		.word	0
 3699 0780 00000000 		.word	0
 3700 0784 386CC600 		.word	13003832
 3701 0788 C66C3838 		.word	943221958
 3702 078c 00000000 		.word	0
 3703 0790 00000000 		.word	0
 3704 0794 C6C6C600 		.word	13027014
 3705 0798 7EC6C6C6 		.word	-960051586
ARM GAS  C:\Users\ldebo\AppData\Local\Temp\ccpehfH9.s 			page 66


 3706 079c 00F80C06 		.word	101513216
 3707 07a0 00000000 		.word	0
 3708 07a4 18CCFE00 		.word	16698392
 3709 07a8 FEC66030 		.word	811648766
 3710 07ac 00000000 		.word	0
 3711 07b0 180E0000 		.word	3608
 3712 07b4 18701818 		.word	404254744
 3713 07b8 0E181818 		.word	404232206
 3714 07bc 00000000 		.word	0
 3715 07c0 18180000 		.word	6168
 3716 07c4 18001818 		.word	404226072
 3717 07c8 18181818 		.word	404232216
 3718 07cc 00000000 		.word	0
 3719 07d0 18700000 		.word	28696
 3720 07d4 180E1818 		.word	404229656
 3721 07d8 70181818 		.word	404232304
 3722 07dc 00000000 		.word	0
 3723 07e0 DC760000 		.word	30428
 3724 07e4 00000000 		.word	0
 3725 07e8 00000000 		.word	0
 3726 07ec 00000000 		.word	0
 3727 07f0 00000000 		.word	0
 3728 07f4 C66C3810 		.word	272133318
 3729 07f8 00FEC6C6 		.word	-960037376
 3730 07fc 00000000 		.word	0
 3731 0800 663C0000 		.word	15462
 3732 0804 C0C0C0C2 		.word	-1027555136
 3733 0808 0C3C66C2 		.word	-1033487348
 3734 080c 00007C06 		.word	108789760
 3735 0810 00CC0000 		.word	52224
 3736 0814 CCCCCC00 		.word	13421772
 3737 0818 76CCCCCC 		.word	-858993546
 3738 081c 00000000 		.word	0
 3739 0820 30180C00 		.word	792624
 3740 0824 FEC67C00 		.word	8177406
 3741 0828 7CC6C0C0 		.word	-1061108100
 3742 082c 00000000 		.word	0
 3743 0830 6C381000 		.word	1063020
 3744 0834 7C0C7800 		.word	7867516
 3745 0838 76CCCCCC 		.word	-858993546
 3746 083c 00000000 		.word	0
 3747 0840 00CC0000 		.word	52224
 3748 0844 7C0C7800 		.word	7867516
 3749 0848 76CCCCCC 		.word	-858993546
 3750 084c 00000000 		.word	0
 3751 0850 18306000 		.word	6303768
 3752 0854 7C0C7800 		.word	7867516
 3753 0858 76CCCCCC 		.word	-858993546
 3754 085c 00000000 		.word	0
 3755 0860 386C3800 		.word	3697720
 3756 0864 7C0C7800 		.word	7867516
 3757 0868 76CCCCCC 		.word	-858993546
 3758 086c 00000000 		.word	0
 3759 0870 00000000 		.word	0
 3760 0874 6060663C 		.word	1013342304
 3761 0878 060C3C66 		.word	1715211270
 3762 087c 0000003C 		.word	1006632960
ARM GAS  C:\Users\ldebo\AppData\Local\Temp\ccpehfH9.s 			page 67


 3763 0880 6C381000 		.word	1063020
 3764 0884 FEC67C00 		.word	8177406
 3765 0888 7CC6C0C0 		.word	-1061108100
 3766 088c 00000000 		.word	0
 3767 0890 00C60000 		.word	50688
 3768 0894 FEC67C00 		.word	8177406
 3769 0898 7CC6C0C0 		.word	-1061108100
 3770 089c 00000000 		.word	0
 3771 08a0 18306000 		.word	6303768
 3772 08a4 FEC67C00 		.word	8177406
 3773 08a8 7CC6C0C0 		.word	-1061108100
 3774 08ac 00000000 		.word	0
 3775 08b0 00660000 		.word	26112
 3776 08b4 18183800 		.word	3676184
 3777 08b8 3C181818 		.word	404232252
 3778 08bc 00000000 		.word	0
 3779 08c0 663C1800 		.word	1588326
 3780 08c4 18183800 		.word	3676184
 3781 08c8 3C181818 		.word	404232252
 3782 08cc 00000000 		.word	0
 3783 08d0 18306000 		.word	6303768
 3784 08d4 18183800 		.word	3676184
 3785 08d8 3C181818 		.word	404232252
 3786 08dc 00000000 		.word	0
 3787 08e0 1000C600 		.word	12976144
 3788 08e4 C6C66C38 		.word	946652870
 3789 08e8 C6C6C6FE 		.word	-20527418
 3790 08ec 00000000 		.word	0
 3791 08f0 00386C38 		.word	946616320
 3792 08f4 C6C66C38 		.word	946652870
 3793 08f8 C6C6C6FE 		.word	-20527418
 3794 08fc 00000000 		.word	0
 3795 0900 00603018 		.word	405823488
 3796 0904 7C6066FE 		.word	-26845060
 3797 0908 FE666060 		.word	1616930558
 3798 090c 00000000 		.word	0
 3799 0910 00000000 		.word	0
 3800 0914 3676CC00 		.word	13399606
 3801 0918 6ED8D87E 		.word	2128140398
 3802 091c 00000000 		.word	0
 3803 0920 6C3E0000 		.word	15980
 3804 0924 CCFECCCC 		.word	-858980660
 3805 0928 CECCCCCC 		.word	-858993458
 3806 092c 00000000 		.word	0
 3807 0930 6C381000 		.word	1063020
 3808 0934 C6C67C00 		.word	8177350
 3809 0938 7CC6C6C6 		.word	-960051588
 3810 093c 00000000 		.word	0
 3811 0940 00C60000 		.word	50688
 3812 0944 C6C67C00 		.word	8177350
 3813 0948 7CC6C6C6 		.word	-960051588
 3814 094c 00000000 		.word	0
 3815 0950 18306000 		.word	6303768
 3816 0954 C6C67C00 		.word	8177350
 3817 0958 7CC6C6C6 		.word	-960051588
 3818 095c 00000000 		.word	0
 3819 0960 CC783000 		.word	3176652
ARM GAS  C:\Users\ldebo\AppData\Local\Temp\ccpehfH9.s 			page 68


 3820 0964 CCCCCC00 		.word	13421772
 3821 0968 76CCCCCC 		.word	-858993546
 3822 096c 00000000 		.word	0
 3823 0970 18306000 		.word	6303768
 3824 0974 CCCCCC00 		.word	13421772
 3825 0978 76CCCCCC 		.word	-858993546
 3826 097c 00000000 		.word	0
 3827 0980 00C60000 		.word	50688
 3828 0984 C6C6C600 		.word	13027014
 3829 0988 7EC6C6C6 		.word	-960051586
 3830 098c 00780C06 		.word	101480448
 3831 0990 7C00C600 		.word	12976252
 3832 0994 C6C6C6C6 		.word	-960051514
 3833 0998 7CC6C6C6 		.word	-960051588
 3834 099c 00000000 		.word	0
 3835 09a0 C600C600 		.word	12976326
 3836 09a4 C6C6C6C6 		.word	-960051514
 3837 09a8 7CC6C6C6 		.word	-960051588
 3838 09ac 00000000 		.word	0
 3839 09b0 3C181800 		.word	1579068
 3840 09b4 60606066 		.word	1717592160
 3841 09b8 18183C66 		.word	1715214360
 3842 09bc 00000000 		.word	0
 3843 09c0 646C3800 		.word	3697764
 3844 09c4 6060F060 		.word	1626366048
 3845 09c8 FCE66060 		.word	1616963324
 3846 09cc 00000000 		.word	0
 3847 09d0 66660000 		.word	26214
 3848 09d4 187E183C 		.word	1008238104
 3849 09d8 1818187E 		.word	2115508248
 3850 09dc 00000000 		.word	0
 3851 09e0 CCCCF800 		.word	16305356
 3852 09e4 DECCC4F8 		.word	-121320226
 3853 09e8 C6CCCCCC 		.word	-858993466
 3854 09ec 00000000 		.word	0
 3855 09f0 181B0E00 		.word	924440
 3856 09f4 187E1818 		.word	404258328
 3857 09f8 18181818 		.word	404232216
 3858 09fc 000070D8 		.word	-663748608
 3859 0a00 60301800 		.word	1585248
 3860 0a04 7C0C7800 		.word	7867516
 3861 0a08 76CCCCCC 		.word	-858993546
 3862 0a0c 00000000 		.word	0
 3863 0a10 30180C00 		.word	792624
 3864 0a14 18183800 		.word	3676184
 3865 0a18 3C181818 		.word	404232252
 3866 0a1c 00000000 		.word	0
 3867 0a20 60301800 		.word	1585248
 3868 0a24 C6C67C00 		.word	8177350
 3869 0a28 7CC6C6C6 		.word	-960051588
 3870 0a2c 00000000 		.word	0
 3871 0a30 60301800 		.word	1585248
 3872 0a34 CCCCCC00 		.word	13421772
 3873 0a38 76CCCCCC 		.word	-858993546
 3874 0a3c 00000000 		.word	0
 3875 0a40 DC760000 		.word	30428
 3876 0a44 6666DC00 		.word	14444134
ARM GAS  C:\Users\ldebo\AppData\Local\Temp\ccpehfH9.s 			page 69


 3877 0a48 66666666 		.word	1717986918
 3878 0a4c 00000000 		.word	0
 3879 0a50 C600DC76 		.word	1994129606
 3880 0a54 DEFEF6E6 		.word	-420020514
 3881 0a58 C6C6C6CE 		.word	-825833786
 3882 0a5c 00000000 		.word	0
 3883 0a60 6C6C3C00 		.word	3959916
 3884 0a64 007E003E 		.word	1040219648
 3885 0a68 00000000 		.word	0
 3886 0a6c 00000000 		.word	0
 3887 0a70 6C6C3800 		.word	3697772
 3888 0a74 007C0038 		.word	939555840
 3889 0a78 00000000 		.word	0
 3890 0a7c 00000000 		.word	0
 3891 0a80 30300000 		.word	12336
 3892 0a84 60303000 		.word	3158112
 3893 0a88 7CC6C6C0 		.word	-1060714884
 3894 0a8c 00000000 		.word	0
 3895 0a90 00000000 		.word	0
 3896 0a94 C0FE0000 		.word	65216
 3897 0a98 00C0C0C0 		.word	-1061109760
 3898 0a9c 00000000 		.word	0
 3899 0aa0 00000000 		.word	0
 3900 0aa4 06FE0000 		.word	65030
 3901 0aa8 00060606 		.word	101058048
 3902 0aac 00000000 		.word	0
 3903 0ab0 C2C0C000 		.word	12632258
 3904 0ab4 3018CCC6 		.word	-959702992
 3905 0ab8 0C86DC60 		.word	1625064972
 3906 0abc 00003E18 		.word	406716416
 3907 0ac0 C2C0C000 		.word	12632258
 3908 0ac4 3018CCC6 		.word	-959702992
 3909 0ac8 3E9ECE66 		.word	1724816958
 3910 0acc 00000606 		.word	101056512
 3911 0ad0 18180000 		.word	6168
 3912 0ad4 18181800 		.word	1579032
 3913 0ad8 183C3C3C 		.word	1010580504
 3914 0adc 00000000 		.word	0
 3915 0ae0 00000000 		.word	0
 3916 0ae4 D86C3600 		.word	3566808
 3917 0ae8 0000366C 		.word	1815478272
 3918 0aec 00000000 		.word	0
 3919 0af0 00000000 		.word	0
 3920 0af4 366CD800 		.word	14183478
 3921 0af8 0000D86C 		.word	1826095104
 3922 0afc 00000000 		.word	0
 3923 0b00 44114411 		.word	289673540
 3924 0b04 44114411 		.word	289673540
 3925 0b08 44114411 		.word	289673540
 3926 0b0c 44114411 		.word	289673540
 3927 0b10 AA55AA55 		.word	1437226410
 3928 0b14 AA55AA55 		.word	1437226410
 3929 0b18 AA55AA55 		.word	1437226410
 3930 0b1c AA55AA55 		.word	1437226410
 3931 0b20 77DD77DD 		.word	-579347081
 3932 0b24 77DD77DD 		.word	-579347081
 3933 0b28 77DD77DD 		.word	-579347081
ARM GAS  C:\Users\ldebo\AppData\Local\Temp\ccpehfH9.s 			page 70


 3934 0b2c 77DD77DD 		.word	-579347081
 3935 0b30 18181818 		.word	404232216
 3936 0b34 18181818 		.word	404232216
 3937 0b38 18181818 		.word	404232216
 3938 0b3c 18181818 		.word	404232216
 3939 0b40 18181818 		.word	404232216
 3940 0b44 F8181818 		.word	404232440
 3941 0b48 18181818 		.word	404232216
 3942 0b4c 18181818 		.word	404232216
 3943 0b50 18181818 		.word	404232216
 3944 0b54 F818F818 		.word	418912504
 3945 0b58 18181818 		.word	404232216
 3946 0b5c 18181818 		.word	404232216
 3947 0b60 36363636 		.word	909522486
 3948 0b64 F6363636 		.word	909522678
 3949 0b68 36363636 		.word	909522486
 3950 0b6c 36363636 		.word	909522486
 3951 0b70 00000000 		.word	0
 3952 0b74 FE000000 		.word	254
 3953 0b78 36363636 		.word	909522486
 3954 0b7c 36363636 		.word	909522486
 3955 0b80 00000000 		.word	0
 3956 0b84 F818F800 		.word	16259320
 3957 0b88 18181818 		.word	404232216
 3958 0b8c 18181818 		.word	404232216
 3959 0b90 36363636 		.word	909522486
 3960 0b94 F606F636 		.word	922093302
 3961 0b98 36363636 		.word	909522486
 3962 0b9c 36363636 		.word	909522486
 3963 0ba0 36363636 		.word	909522486
 3964 0ba4 36363636 		.word	909522486
 3965 0ba8 36363636 		.word	909522486
 3966 0bac 36363636 		.word	909522486
 3967 0bb0 00000000 		.word	0
 3968 0bb4 F606FE00 		.word	16647926
 3969 0bb8 36363636 		.word	909522486
 3970 0bbc 36363636 		.word	909522486
 3971 0bc0 36363636 		.word	909522486
 3972 0bc4 FE06F636 		.word	922093310
 3973 0bc8 00000000 		.word	0
 3974 0bcc 00000000 		.word	0
 3975 0bd0 36363636 		.word	909522486
 3976 0bd4 FE363636 		.word	909522686
 3977 0bd8 00000000 		.word	0
 3978 0bdc 00000000 		.word	0
 3979 0be0 18181818 		.word	404232216
 3980 0be4 F818F818 		.word	418912504
 3981 0be8 00000000 		.word	0
 3982 0bec 00000000 		.word	0
 3983 0bf0 00000000 		.word	0
 3984 0bf4 F8000000 		.word	248
 3985 0bf8 18181818 		.word	404232216
 3986 0bfc 18181818 		.word	404232216
 3987 0c00 18181818 		.word	404232216
 3988 0c04 1F181818 		.word	404232223
 3989 0c08 00000000 		.word	0
 3990 0c0c 00000000 		.word	0
ARM GAS  C:\Users\ldebo\AppData\Local\Temp\ccpehfH9.s 			page 71


 3991 0c10 18181818 		.word	404232216
 3992 0c14 FF181818 		.word	404232447
 3993 0c18 00000000 		.word	0
 3994 0c1c 00000000 		.word	0
 3995 0c20 00000000 		.word	0
 3996 0c24 FF000000 		.word	255
 3997 0c28 18181818 		.word	404232216
 3998 0c2c 18181818 		.word	404232216
 3999 0c30 18181818 		.word	404232216
 4000 0c34 1F181818 		.word	404232223
 4001 0c38 18181818 		.word	404232216
 4002 0c3c 18181818 		.word	404232216
 4003 0c40 00000000 		.word	0
 4004 0c44 FF000000 		.word	255
 4005 0c48 00000000 		.word	0
 4006 0c4c 00000000 		.word	0
 4007 0c50 18181818 		.word	404232216
 4008 0c54 FF181818 		.word	404232447
 4009 0c58 18181818 		.word	404232216
 4010 0c5c 18181818 		.word	404232216
 4011 0c60 18181818 		.word	404232216
 4012 0c64 1F181F18 		.word	404690975
 4013 0c68 18181818 		.word	404232216
 4014 0c6c 18181818 		.word	404232216
 4015 0c70 36363636 		.word	909522486
 4016 0c74 37363636 		.word	909522487
 4017 0c78 36363636 		.word	909522486
 4018 0c7c 36363636 		.word	909522486
 4019 0c80 36363636 		.word	909522486
 4020 0c84 3F303736 		.word	909586495
 4021 0c88 00000000 		.word	0
 4022 0c8c 00000000 		.word	0
 4023 0c90 00000000 		.word	0
 4024 0c94 37303F00 		.word	4141111
 4025 0c98 36363636 		.word	909522486
 4026 0c9c 36363636 		.word	909522486
 4027 0ca0 36363636 		.word	909522486
 4028 0ca4 FF00F736 		.word	922157311
 4029 0ca8 00000000 		.word	0
 4030 0cac 00000000 		.word	0
 4031 0cb0 00000000 		.word	0
 4032 0cb4 F700FF00 		.word	16711927
 4033 0cb8 36363636 		.word	909522486
 4034 0cbc 36363636 		.word	909522486
 4035 0cc0 36363636 		.word	909522486
 4036 0cc4 37303736 		.word	909586487
 4037 0cc8 36363636 		.word	909522486
 4038 0ccc 36363636 		.word	909522486
 4039 0cd0 00000000 		.word	0
 4040 0cd4 FF00FF00 		.word	16711935
 4041 0cd8 00000000 		.word	0
 4042 0cdc 00000000 		.word	0
 4043 0ce0 36363636 		.word	909522486
 4044 0ce4 F700F736 		.word	922157303
 4045 0ce8 36363636 		.word	909522486
 4046 0cec 36363636 		.word	909522486
 4047 0cf0 18181818 		.word	404232216
ARM GAS  C:\Users\ldebo\AppData\Local\Temp\ccpehfH9.s 			page 72


 4048 0cf4 FF00FF18 		.word	419365119
 4049 0cf8 00000000 		.word	0
 4050 0cfc 00000000 		.word	0
 4051 0d00 36363636 		.word	909522486
 4052 0d04 FF363636 		.word	909522687
 4053 0d08 00000000 		.word	0
 4054 0d0c 00000000 		.word	0
 4055 0d10 00000000 		.word	0
 4056 0d14 FF00FF00 		.word	16711935
 4057 0d18 18181818 		.word	404232216
 4058 0d1c 18181818 		.word	404232216
 4059 0d20 00000000 		.word	0
 4060 0d24 FF000000 		.word	255
 4061 0d28 36363636 		.word	909522486
 4062 0d2c 36363636 		.word	909522486
 4063 0d30 36363636 		.word	909522486
 4064 0d34 3F363636 		.word	909522495
 4065 0d38 00000000 		.word	0
 4066 0d3c 00000000 		.word	0
 4067 0d40 18181818 		.word	404232216
 4068 0d44 1F181F18 		.word	404690975
 4069 0d48 00000000 		.word	0
 4070 0d4c 00000000 		.word	0
 4071 0d50 00000000 		.word	0
 4072 0d54 1F181F00 		.word	2037791
 4073 0d58 18181818 		.word	404232216
 4074 0d5c 18181818 		.word	404232216
 4075 0d60 00000000 		.word	0
 4076 0d64 3F000000 		.word	63
 4077 0d68 36363636 		.word	909522486
 4078 0d6c 36363636 		.word	909522486
 4079 0d70 36363636 		.word	909522486
 4080 0d74 FF363636 		.word	909522687
 4081 0d78 36363636 		.word	909522486
 4082 0d7c 36363636 		.word	909522486
 4083 0d80 18181818 		.word	404232216
 4084 0d84 FF18FF18 		.word	419371263
 4085 0d88 18181818 		.word	404232216
 4086 0d8c 18181818 		.word	404232216
 4087 0d90 18181818 		.word	404232216
 4088 0d94 F8181818 		.word	404232440
 4089 0d98 00000000 		.word	0
 4090 0d9c 00000000 		.word	0
 4091 0da0 00000000 		.word	0
 4092 0da4 1F000000 		.word	31
 4093 0da8 18181818 		.word	404232216
 4094 0dac 18181818 		.word	404232216
 4095 0db0 FFFFFFFF 		.word	-1
 4096 0db4 FFFFFFFF 		.word	-1
 4097 0db8 FFFFFFFF 		.word	-1
 4098 0dbc FFFFFFFF 		.word	-1
 4099 0dc0 00000000 		.word	0
 4100 0dc4 FF000000 		.word	255
 4101 0dc8 FFFFFFFF 		.word	-1
 4102 0dcc FFFFFFFF 		.word	-1
 4103 0dd0 F0F0F0F0 		.word	-252645136
 4104 0dd4 F0F0F0F0 		.word	-252645136
ARM GAS  C:\Users\ldebo\AppData\Local\Temp\ccpehfH9.s 			page 73


 4105 0dd8 F0F0F0F0 		.word	-252645136
 4106 0ddc F0F0F0F0 		.word	-252645136
 4107 0de0 0F0F0F0F 		.word	252645135
 4108 0de4 0F0F0F0F 		.word	252645135
 4109 0de8 0F0F0F0F 		.word	252645135
 4110 0dec 0F0F0F0F 		.word	252645135
 4111 0df0 FFFFFFFF 		.word	-1
 4112 0df4 00FFFFFF 		.word	-256
 4113 0df8 00000000 		.word	0
 4114 0dfc 00000000 		.word	0
 4115 0e00 00000000 		.word	0
 4116 0e04 D8DC7600 		.word	7789784
 4117 0e08 76DCD8D8 		.word	-656876426
 4118 0e0c 00000000 		.word	0
 4119 0e10 CC780000 		.word	30924
 4120 0e14 CCD8CCCC 		.word	-858990388
 4121 0e18 CCC6C6C6 		.word	-960051508
 4122 0e1c 00000000 		.word	0
 4123 0e20 C6FE0000 		.word	65222
 4124 0e24 C0C0C0C6 		.word	-960446272
 4125 0e28 C0C0C0C0 		.word	-1061109568
 4126 0e2c 00000000 		.word	0
 4127 0e30 00000000 		.word	0
 4128 0e34 6C6C6CFE 		.word	-26448788
 4129 0e38 6C6C6C6C 		.word	1819044972
 4130 0e3c 00000000 		.word	0
 4131 0e40 FE000000 		.word	254
 4132 0e44 183060C6 		.word	-966774760
 4133 0e48 FEC66030 		.word	811648766
 4134 0e4c 00000000 		.word	0
 4135 0e50 00000000 		.word	0
 4136 0e54 D8D87E00 		.word	8313048
 4137 0e58 70D8D8D8 		.word	-656877456
 4138 0e5c 00000000 		.word	0
 4139 0e60 00000000 		.word	0
 4140 0e64 66666666 		.word	1717986918
 4141 0e68 60607C66 		.word	1719427168
 4142 0e6c 000000C0 		.word	-1073741824
 4143 0e70 00000000 		.word	0
 4144 0e74 1818DC76 		.word	1994135576
 4145 0e78 18181818 		.word	404232216
 4146 0e7c 00000000 		.word	0
 4147 0e80 7E000000 		.word	126
 4148 0e84 66663C18 		.word	406611558
 4149 0e88 7E183C66 		.word	1715214462
 4150 0e8c 00000000 		.word	0
 4151 0e90 38000000 		.word	56
 4152 0e94 FEC6C66C 		.word	1824966398
 4153 0e98 386CC6C6 		.word	-960074696
 4154 0e9c 00000000 		.word	0
 4155 0ea0 6C380000 		.word	14444
 4156 0ea4 6CC6C6C6 		.word	-960051604
 4157 0ea8 EE6C6C6C 		.word	1819045102
 4158 0eac 00000000 		.word	0
 4159 0eb0 301E0000 		.word	7728
 4160 0eb4 663E0C18 		.word	403455590
 4161 0eb8 3C666666 		.word	1717986876
ARM GAS  C:\Users\ldebo\AppData\Local\Temp\ccpehfH9.s 			page 74


 4162 0ebc 00000000 		.word	0
 4163 0ec0 00000000 		.word	0
 4164 0ec4 DBDB7E00 		.word	8313819
 4165 0ec8 00007EDB 		.word	-612499456
 4166 0ecc 00000000 		.word	0
 4167 0ed0 03000000 		.word	3
 4168 0ed4 DBDB7E06 		.word	108977115
 4169 0ed8 C0607EF3 		.word	-209821504
 4170 0edc 00000000 		.word	0
 4171 0ee0 301C0000 		.word	7216
 4172 0ee4 607C6060 		.word	1616936032
 4173 0ee8 1C306060 		.word	1616916508
 4174 0eec 00000000 		.word	0
 4175 0ef0 7C000000 		.word	124
 4176 0ef4 C6C6C6C6 		.word	-960051514
 4177 0ef8 C6C6C6C6 		.word	-960051514
 4178 0efc 00000000 		.word	0
 4179 0f00 00000000 		.word	0
 4180 0f04 FE0000FE 		.word	-33554178
 4181 0f08 00FE0000 		.word	65024
 4182 0f0c 00000000 		.word	0
 4183 0f10 00000000 		.word	0
 4184 0f14 187E1818 		.word	404258328
 4185 0f18 FF000018 		.word	402653439
 4186 0f1c 00000000 		.word	0
 4187 0f20 30000000 		.word	48
 4188 0f24 0C060C18 		.word	403441164
 4189 0f28 7E003018 		.word	405799038
 4190 0f2c 00000000 		.word	0
 4191 0f30 0C000000 		.word	12
 4192 0f34 30603018 		.word	405823536
 4193 0f38 7E000C18 		.word	403439742
 4194 0f3c 00000000 		.word	0
 4195 0f40 1B0E0000 		.word	3611
 4196 0f44 1818181B 		.word	454563864
 4197 0f48 18181818 		.word	404232216
 4198 0f4c 18181818 		.word	404232216
 4199 0f50 18181818 		.word	404232216
 4200 0f54 18181818 		.word	404232216
 4201 0f58 70D8D8D8 		.word	-656877456
 4202 0f5c 00000000 		.word	0
 4203 0f60 00000000 		.word	0
 4204 0f64 7E001818 		.word	404226174
 4205 0f68 00181800 		.word	1579008
 4206 0f6c 00000000 		.word	0
 4207 0f70 00000000 		.word	0
 4208 0f74 00DC7600 		.word	7789568
 4209 0f78 0000DC76 		.word	1994129408
 4210 0f7c 00000000 		.word	0
 4211 0f80 6C6C3800 		.word	3697772
 4212 0f84 00000038 		.word	939524096
 4213 0f88 00000000 		.word	0
 4214 0f8c 00000000 		.word	0
 4215 0f90 00000000 		.word	0
 4216 0f94 18000000 		.word	24
 4217 0f98 00000018 		.word	402653184
 4218 0f9c 00000000 		.word	0
ARM GAS  C:\Users\ldebo\AppData\Local\Temp\ccpehfH9.s 			page 75


 4219 0fa0 00000000 		.word	0
 4220 0fa4 00000000 		.word	0
 4221 0fa8 00000018 		.word	402653184
 4222 0fac 00000000 		.word	0
 4223 0fb0 0C0C0F00 		.word	986124
 4224 0fb4 EC0C0C0C 		.word	202116332
 4225 0fb8 1C3C6C6C 		.word	1819032604
 4226 0fbc 00000000 		.word	0
 4227 0fc0 6C6CD800 		.word	14183532
 4228 0fc4 006C6C6C 		.word	1819044864
 4229 0fc8 00000000 		.word	0
 4230 0fcc 00000000 		.word	0
 4231 0fd0 30D87000 		.word	7395376
 4232 0fd4 00F8C860 		.word	1623783424
 4233 0fd8 00000000 		.word	0
 4234 0fdc 00000000 		.word	0
 4235 0fe0 00000000 		.word	0
 4236 0fe4 7C7C7C7C 		.word	2088533116
 4237 0fe8 007C7C7C 		.word	2088532992
 4238 0fec 00000000 		.word	0
 4239 0ff0 00000000 		.word	0
 4240 0ff4 00000000 		.word	0
 4241 0ff8 00000000 		.word	0
 4242 0ffc 00000000 		.word	0
 4243              		.data
 4244              		.align	2
 4245              		.set	.LANCHOR2,. + 0
 4246              		.type	ActivityGPIOPort, %object
 4247              		.size	ActivityGPIOPort, 4
 4248              	ActivityGPIOPort:
 4249 0000 2F000000 		.word	47
 4250              		.bss
 4251              		.align	2
 4252              		.set	.LANCHOR1,. + 0
 4253              		.type	ModelCheckHasRun, %object
 4254              		.size	ModelCheckHasRun, 1
 4255              	ModelCheckHasRun:
 4256 0000 00       		.space	1
 4257 0001 000000   		.space	3
 4258              		.type	console, %object
 4259              		.size	console, 72
 4260              	console:
 4261 0004 00000000 		.space	72
 4261      00000000 
 4261      00000000 
 4261      00000000 
 4261      00000000 
 4262              		.type	heap_end.6850, %object
 4263              		.size	heap_end.6850, 4
 4264              	heap_end.6850:
 4265 004c 00000000 		.space	4
 4266              		.section	.rodata,"a",%progbits; //,"a",%progbits
 4267              		.align	2
 4268              		.type	BitFontEnd, %object
 4269              		.size	BitFontEnd, 4
 4270              	BitFontEnd:
 4271 1000 00000000 		.space	4
ARM GAS  C:\Users\ldebo\AppData\Local\Temp\ccpehfH9.s 			page 76


 4272              		.section	.rodata.str1.4,"aMS",%progbits,1
 4273              		.align	2
 4274              	.LC0:
 4275 0000 61726D31 		.ascii	"arm1176jzf-s\000"
 4275      3137366A 
 4275      7A662D73 
 4275      00
 4276 000d 000000   		.space	3
 4277              	.LC1:
 4278 0010 636F7274 		.ascii	"cortex-a7\000"
 4278      65782D61 
 4278      3700
 4279 001a 0000     		.space	2
 4280              	.LC2:
 4281 001c 636F7274 		.ascii	"cortex-a53\000"
 4281      65782D61 
 4281      353300
 4282 0027 00       		.space	1
 4283              	.LC3:
 4284 0028 756E6B6E 		.ascii	"unknown ARM cpu\000"
 4284      6F776E20 
 4284      41524D20 
 4284      63707500 
 4285              	.LC4:
 4286 0038 43505520 		.ascii	"CPU frequency set to %u Hz\012\000"
 4286      66726571 
 4286      75656E63 
 4286      79207365 
 4286      7420746F 
 4287              	.LC5:
 4288 0054 536D6172 		.ascii	"SmartStart v2.02 compiled for Arm%d, AARCH%d with %"
 4288      74537461 
 4288      72742076 
 4288      322E3032 
 4288      20636F6D 
 4289 0087 7520636F 		.ascii	"u core s/w support\012\000"
 4289      72652073 
 4289      2F772073 
 4289      7570706F 
 4289      72740A00 
 4290 009b 00       		.space	1
 4291              	.LC6:
 4292 009c 44657465 		.ascii	"Detected %s CPU, part id: 0x%03X, Cores made ready "
 4292      63746564 
 4292      20257320 
 4292      4350552C 
 4292      20706172 
 4293 00cf 666F7220 		.ascii	"for use: %u\012\000"
 4293      7573653A 
 4293      2025750A 
 4293      00
 4294              	.LC7:
 4295 00dc 53637265 		.ascii	"Screen resolution %i x %i Colour Depth: %i\012\000"
 4295      656E2072 
 4295      65736F6C 
 4295      7574696F 
 4295      6E202569 
ARM GAS  C:\Users\ldebo\AppData\Local\Temp\ccpehfH9.s 			page 77


 4296              		.ident	"GCC: (GNU Tools for ARM Embedded Processors 6-2017-q2-update) 6.3.1 20170620 (release) [AR
ARM GAS  C:\Users\ldebo\AppData\Local\Temp\ccpehfH9.s 			page 78


DEFINED SYMBOLS
                            *ABS*:00000000 rpi-SmartStart.c
C:\Users\ldebo\AppData\Local\Temp\ccpehfH9.s:14     .text:00000000 $a
C:\Users\ldebo\AppData\Local\Temp\ccpehfH9.s:19     .text:00000000 ClearArea16
C:\Users\ldebo\AppData\Local\Temp\ccpehfH9.s:69     .text:0000009c VertLine16
C:\Users\ldebo\AppData\Local\Temp\ccpehfH9.s:130    .text:00000160 HorzLine16
C:\Users\ldebo\AppData\Local\Temp\ccpehfH9.s:177    .text:000001f0 DiagLine16
C:\Users\ldebo\AppData\Local\Temp\ccpehfH9.s:247    .text:000002d8 WriteChar16
C:\Users\ldebo\AppData\Local\Temp\ccpehfH9.s:3215   .rodata:00000000 .LANCHOR0
C:\Users\ldebo\AppData\Local\Temp\ccpehfH9.s:331    .text:000003f8 TransparentWriteChar16
C:\Users\ldebo\AppData\Local\Temp\ccpehfH9.s:402    .text:000004dc PutImage16
C:\Users\ldebo\AppData\Local\Temp\ccpehfH9.s:463    .text:00000594 ClearArea24
C:\Users\ldebo\AppData\Local\Temp\ccpehfH9.s:502    .text:00000604 VertLine24
C:\Users\ldebo\AppData\Local\Temp\ccpehfH9.s:551    .text:00000698 HorzLine24
C:\Users\ldebo\AppData\Local\Temp\ccpehfH9.s:589    .text:00000704 DiagLine24
C:\Users\ldebo\AppData\Local\Temp\ccpehfH9.s:653    .text:000007d4 WriteChar24
C:\Users\ldebo\AppData\Local\Temp\ccpehfH9.s:705    .text:00000878 TransparentWriteChar24
C:\Users\ldebo\AppData\Local\Temp\ccpehfH9.s:771    .text:00000948 PutImage24
C:\Users\ldebo\AppData\Local\Temp\ccpehfH9.s:823    .text:000009e4 ClearArea32
C:\Users\ldebo\AppData\Local\Temp\ccpehfH9.s:860    .text:00000a48 VertLine32
C:\Users\ldebo\AppData\Local\Temp\ccpehfH9.s:901    .text:00000abc HorzLine32
C:\Users\ldebo\AppData\Local\Temp\ccpehfH9.s:933    .text:00000b10 DiagLine32
C:\Users\ldebo\AppData\Local\Temp\ccpehfH9.s:977    .text:00000b94 WriteChar32
C:\Users\ldebo\AppData\Local\Temp\ccpehfH9.s:1025   .text:00000c24 TransparentWriteChar32
C:\Users\ldebo\AppData\Local\Temp\ccpehfH9.s:1068   .text:00000ca4 PutImage32
C:\Users\ldebo\AppData\Local\Temp\ccpehfH9.s:1117   .text:00000d34 mailbox_tag_message.constprop.6
C:\Users\ldebo\AppData\Local\Temp\ccpehfH9.s:1191   .text:00000e20 mailbox_tag_message.constprop.4
C:\Users\ldebo\AppData\Local\Temp\ccpehfH9.s:1255   .text:00000ef0 mailbox_tag_message.constprop.7
C:\Users\ldebo\AppData\Local\Temp\ccpehfH9.s:1334   .text:00000fe8 mailbox_tag_message.constprop.5
C:\Users\ldebo\AppData\Local\Temp\ccpehfH9.s:1414   .text:000010e8 RPi_CpuIdString
C:\Users\ldebo\AppData\Local\Temp\ccpehfH9.s:4283   .rodata.str1.4:00000028 .LC3
C:\Users\ldebo\AppData\Local\Temp\ccpehfH9.s:4274   .rodata.str1.4:00000000 .LC0
C:\Users\ldebo\AppData\Local\Temp\ccpehfH9.s:4277   .rodata.str1.4:00000010 .LC1
C:\Users\ldebo\AppData\Local\Temp\ccpehfH9.s:4280   .rodata.str1.4:0000001c .LC2
C:\Users\ldebo\AppData\Local\Temp\ccpehfH9.s:1451   .text:00001148 gpio_setup
C:\Users\ldebo\AppData\Local\Temp\ccpehfH9.s:1489   .text:000011b4 gpio_output
C:\Users\ldebo\AppData\Local\Temp\ccpehfH9.s:1529   .text:00001220 gpio_input
C:\Users\ldebo\AppData\Local\Temp\ccpehfH9.s:1559   .text:00001268 gpio_checkEvent
C:\Users\ldebo\AppData\Local\Temp\ccpehfH9.s:1588   .text:000012ac gpio_clearEvent
C:\Users\ldebo\AppData\Local\Temp\ccpehfH9.s:1616   .text:000012ec gpio_edgeDetect
C:\Users\ldebo\AppData\Local\Temp\ccpehfH9.s:1680   .text:000013b4 gpio_fixResistor
C:\Users\ldebo\AppData\Local\Temp\ccpehfH9.s:1772   .text:000014e8 timer_getTickCount
C:\Users\ldebo\AppData\Local\Temp\ccpehfH9.s:1804   .text:00001538 timer_wait
C:\Users\ldebo\AppData\Local\Temp\ccpehfH9.s:1849   .text:000015bc tick_difference
C:\Users\ldebo\AppData\Local\Temp\ccpehfH9.s:1863   .text:000015c8 mailbox_write
C:\Users\ldebo\AppData\Local\Temp\ccpehfH9.s:1893   .text:0000160c mailbox_read
C:\Users\ldebo\AppData\Local\Temp\ccpehfH9.s:1925   .text:00001658 mailbox_tag_message
C:\Users\ldebo\AppData\Local\Temp\ccpehfH9.s:2017   .text:00001778 TimerIrqSetup
C:\Users\ldebo\AppData\Local\Temp\ccpehfH9.s:2090   .text:00001870 set_Activity_LED
C:\Users\ldebo\AppData\Local\Temp\ccpehfH9.s:4252   .bss:00000000 .LANCHOR1
C:\Users\ldebo\AppData\Local\Temp\ccpehfH9.s:4245   .data:00000000 .LANCHOR2
C:\Users\ldebo\AppData\Local\Temp\ccpehfH9.s:2203   .text:000019e8 ARM_setmaxspeed
C:\Users\ldebo\AppData\Local\Temp\ccpehfH9.s:4285   .rodata.str1.4:00000038 .LC4
C:\Users\ldebo\AppData\Local\Temp\ccpehfH9.s:2264   .text:00001aa0 displaySmartStart
C:\Users\ldebo\AppData\Local\Temp\ccpehfH9.s:4287   .rodata.str1.4:00000054 .LC5
C:\Users\ldebo\AppData\Local\Temp\ccpehfH9.s:4291   .rodata.str1.4:0000009c .LC6
C:\Users\ldebo\AppData\Local\Temp\ccpehfH9.s:2322   .text:00001b54 Embedded_Console_WriteChar
ARM GAS  C:\Users\ldebo\AppData\Local\Temp\ccpehfH9.s 			page 79


C:\Users\ldebo\AppData\Local\Temp\ccpehfH9.s:2382   .text:00001c10 WriteText
C:\Users\ldebo\AppData\Local\Temp\ccpehfH9.s:2452   .text:00001cec SetDCPenColor
C:\Users\ldebo\AppData\Local\Temp\ccpehfH9.s:2468   .text:00001d00 SetDCBrushColor
C:\Users\ldebo\AppData\Local\Temp\ccpehfH9.s:2484   .text:00001d14 MoveToEx
C:\Users\ldebo\AppData\Local\Temp\ccpehfH9.s:2509   .text:00001d4c LineTo
C:\Users\ldebo\AppData\Local\Temp\ccpehfH9.s:2563   .text:00001de8 TextOut
C:\Users\ldebo\AppData\Local\Temp\ccpehfH9.s:2602   .text:00001e54 TransparentTextOut
C:\Users\ldebo\AppData\Local\Temp\ccpehfH9.s:2640   .text:00001eb8 BmpOut
C:\Users\ldebo\AppData\Local\Temp\ccpehfH9.s:2673   .text:00001f0c CvtBmpLine
C:\Users\ldebo\AppData\Local\Temp\ccpehfH9.s:2873   .text:000021c8 Rectangle
C:\Users\ldebo\AppData\Local\Temp\ccpehfH9.s:2898   .text:000021fc PiConsole_Init
C:\Users\ldebo\AppData\Local\Temp\ccpehfH9.s:4294   .rodata.str1.4:000000dc .LC7
C:\Users\ldebo\AppData\Local\Temp\ccpehfH9.s:3095   .text:000024b8 GetConsoleDC
C:\Users\ldebo\AppData\Local\Temp\ccpehfH9.s:3104   .text:000024c0 $d
C:\Users\ldebo\AppData\Local\Temp\ccpehfH9.s:3106   .text:000024c4 $a
C:\Users\ldebo\AppData\Local\Temp\ccpehfH9.s:3112   .text:000024c4 GetConsole_FrameBuffer
C:\Users\ldebo\AppData\Local\Temp\ccpehfH9.s:3127   .text:000024d4 GetConsole_Width
C:\Users\ldebo\AppData\Local\Temp\ccpehfH9.s:3142   .text:000024e4 GetConsole_Height
C:\Users\ldebo\AppData\Local\Temp\ccpehfH9.s:3157   .text:000024f4 WhereXY
C:\Users\ldebo\AppData\Local\Temp\ccpehfH9.s:3179   .text:00002520 GotoXY
C:\Users\ldebo\AppData\Local\Temp\ccpehfH9.s:3195   .text:00002534 _sbrk
C:\Users\ldebo\AppData\Local\Temp\ccpehfH9.s:4260   .bss:00000004 console
C:\Users\ldebo\AppData\Local\Temp\ccpehfH9.s:4270   .rodata:00001000 BitFontEnd
C:\Users\ldebo\AppData\Local\Temp\ccpehfH9.s:3214   .rodata:00000000 $d
C:\Users\ldebo\AppData\Local\Temp\ccpehfH9.s:3218   .rodata:00000000 BitFont
C:\Users\ldebo\AppData\Local\Temp\ccpehfH9.s:4244   .data:00000000 $d
C:\Users\ldebo\AppData\Local\Temp\ccpehfH9.s:4248   .data:00000000 ActivityGPIOPort
C:\Users\ldebo\AppData\Local\Temp\ccpehfH9.s:4251   .bss:00000000 $d
C:\Users\ldebo\AppData\Local\Temp\ccpehfH9.s:4255   .bss:00000000 ModelCheckHasRun
C:\Users\ldebo\AppData\Local\Temp\ccpehfH9.s:4264   .bss:0000004c heap_end.6850
C:\Users\ldebo\AppData\Local\Temp\ccpehfH9.s:4273   .rodata.str1.4:00000000 $d

UNDEFINED SYMBOLS
memcpy
ARMaddrToGPUaddr
RPi_IO_Base_Addr
RPi_CpuId
__aeabi_uldivmod
setTimerIrqAddress
RPi_CompileMode
RPi_CoresReady
strlen
GPUaddrToARMaddr
_end
ARM GAS  C:\Users\ldebo\AppData\Local\Temp\ccpehfH9.s 			page 1


   1              		.arch armv8-a
   2              		.eabi_attribute 28, 1
   3              		.eabi_attribute 20, 1
   4              		.eabi_attribute 21, 1
   5              		.eabi_attribute 23, 3
   6              		.eabi_attribute 24, 1
   7              		.eabi_attribute 25, 1
   8              		.eabi_attribute 26, 1
   9              		.eabi_attribute 30, 2
  10              		.eabi_attribute 34, 0
  11              		.eabi_attribute 18, 4
  12              		.file	"emb-stdio.c"
  13              		.text
  14              		.align	2
  15              		.syntax unified
  16              		.arm
  17              		.fpu neon-vfpv4
  18              		.type	number, %function
  19              	number:
  20              		@ args = 8, pretend = 0, frame = 80
  21              		@ frame_needed = 0, uses_anonymous_args = 0
  22 0000 F04F2DE9 		push	{r4, r5, r6, r7, r8, r9, r10, fp, lr}
  23 0004 02C042E2 		sub	ip, r2, #2
  24 0008 54D04DE2 		sub	sp, sp, #84
  25 000c 7C809DE5 		ldr	r8, [sp, #124]
  26 0010 100018E3 		tst	r8, #16
  27 0014 20A008E2 		and	r10, r8, #32
  28 0018 0180C813 		bicne	r8, r8, #1
  29 001c 0E005CE3 		cmp	ip, #14
  30 0020 7500008A 		bhi	.L24
  31 0024 010018E3 		tst	r8, #1
  32 0028 20B0A003 		moveq	fp, #32
  33 002c 30B0A013 		movne	fp, #48
  34 0030 02C018E2 		ands	ip, r8, #2
  35 0034 0800000A 		beq	.L27
  36 0038 000051E3 		cmp	r1, #0
  37 003c 690000BA 		blt	.L50
  38 0040 040018E3 		tst	r8, #4
  39 0044 6300001A 		bne	.L51
  40 0048 08C018E2 		ands	ip, r8, #8
  41 004c 20C0A013 		movne	ip, #32
  42 0050 01304312 		subne	r3, r3, #1
  43 0054 04C08D15 		strne	ip, [sp, #4]
  44 0058 0000001A 		bne	.L5
  45              	.L27:
  46 005c 04C08DE5 		str	ip, [sp, #4]
  47              	.L5:
  48 0060 40C018E2 		ands	ip, r8, #64
  49 0064 00C08DE5 		str	ip, [sp]
  50 0068 0400000A 		beq	.L8
  51 006c 100052E3 		cmp	r2, #16
  52 0070 02304302 		subeq	r3, r3, #2
  53 0074 0100000A 		beq	.L8
  54 0078 080052E3 		cmp	r2, #8
  55 007c 01304302 		subeq	r3, r3, #1
  56              	.L8:
  57 0080 000051E3 		cmp	r1, #0
ARM GAS  C:\Users\ldebo\AppData\Local\Temp\ccpehfH9.s 			page 2


  58 0084 4400001A 		bne	.L10
  59 0088 0170A0E3 		mov	r7, #1
  60 008c 3010A0E3 		mov	r1, #48
  61 0090 07E0A0E1 		mov	lr, r7
  62 0094 0C10CDE5 		strb	r1, [sp, #12]
  63              	.L11:
  64 0098 78109DE5 		ldr	r1, [sp, #120]
  65 009c 010057E1 		cmp	r7, r1
  66 00a0 0710A0A1 		movge	r1, r7
  67 00a4 110018E3 		tst	r8, #17
  68 00a8 013043E0 		sub	r3, r3, r1
  69 00ac 0800001A 		bne	.L13
  70 00b0 000053E3 		cmp	r3, #0
  71 00b4 01C043E2 		sub	ip, r3, #1
  72 00b8 590000DA 		ble	.L29
  73 00bc 033080E0 		add	r3, r0, r3
  74 00c0 20C0A0E3 		mov	ip, #32
  75              	.L14:
  76 00c4 01C0C0E4 		strb	ip, [r0], #1
  77 00c8 000053E1 		cmp	r3, r0
  78 00cc FCFFFF1A 		bne	.L14
  79 00d0 0030E0E3 		mvn	r3, #0
  80              	.L13:
  81 00d4 04C09DE5 		ldr	ip, [sp, #4]
  82 00d8 00005CE3 		cmp	ip, #0
  83 00dc 00C0C015 		strbne	ip, [r0]
  84 00e0 01008012 		addne	r0, r0, #1
  85 00e4 00C09DE5 		ldr	ip, [sp]
  86 00e8 00005CE3 		cmp	ip, #0
  87 00ec 0600000A 		beq	.L16
  88 00f0 080052E3 		cmp	r2, #8
  89 00f4 3020A003 		moveq	r2, #48
  90 00f8 0020C005 		strbeq	r2, [r0]
  91 00fc 01008002 		addeq	r0, r0, #1
  92 0100 0100000A 		beq	.L16
  93 0104 100052E3 		cmp	r2, #16
  94 0108 3E00000A 		beq	.L52
  95              	.L16:
  96 010c 100018E3 		tst	r8, #16
  97 0110 0700001A 		bne	.L18
  98 0114 000053E3 		cmp	r3, #0
  99 0118 012043E2 		sub	r2, r3, #1
 100 011c 420000DA 		ble	.L30
 101 0120 033080E0 		add	r3, r0, r3
 102              	.L19:
 103 0124 01B0C0E4 		strb	fp, [r0], #1
 104 0128 030050E1 		cmp	r0, r3
 105 012c FCFFFF1A 		bne	.L19
 106 0130 0030E0E3 		mvn	r3, #0
 107              	.L18:
 108 0134 010057E1 		cmp	r7, r1
 109 0138 050000AA 		bge	.L20
 110 013c 072041E0 		sub	r2, r1, r7
 111 0140 3010A0E3 		mov	r1, #48
 112 0144 022080E0 		add	r2, r0, r2
 113              	.L21:
 114 0148 0110C0E4 		strb	r1, [r0], #1
ARM GAS  C:\Users\ldebo\AppData\Local\Temp\ccpehfH9.s 			page 3


 115 014c 000052E1 		cmp	r2, r0
 116 0150 FCFFFF1A 		bne	.L21
 117              	.L20:
 118 0154 0C508DE2 		add	r5, sp, #12
 119 0158 011040E2 		sub	r1, r0, #1
 120 015c 0E2085E0 		add	r2, r5, lr
 121              	.L22:
 122 0160 014072E5 		ldrb	r4, [r2, #-1]!	@ zero_extendqisi2
 123 0164 05C042E0 		sub	ip, r2, r5
 124 0168 0140E1E5 		strb	r4, [r1, #1]!
 125 016c 00005CE3 		cmp	ip, #0
 126 0170 FAFFFFCA 		bgt	.L22
 127 0174 000053E3 		cmp	r3, #0
 128 0178 0E0080E0 		add	r0, r0, lr
 129 017c 040000DA 		ble	.L1
 130 0180 033080E0 		add	r3, r0, r3
 131 0184 2020A0E3 		mov	r2, #32
 132              	.L23:
 133 0188 0120C0E4 		strb	r2, [r0], #1
 134 018c 000053E1 		cmp	r3, r0
 135 0190 FCFFFF1A 		bne	.L23
 136              	.L1:
 137 0194 54D08DE2 		add	sp, sp, #84
 138              		@ sp needed
 139 0198 F08FBDE8 		pop	{r4, r5, r6, r7, r8, r9, r10, fp, pc}
 140              	.L10:
 141 019c 009000E3 		movw	r9, #:lower16:.LANCHOR0
 142 01a0 009040E3 		movt	r9, #:upper16:.LANCHOR0
 143 01a4 0B508DE2 		add	r5, sp, #11
 144 01a8 0040A0E3 		mov	r4, #0
 145              	.L12:
 146 01ac 11F21CE7 		sdiv	ip, r1, r2
 147 01b0 01E084E2 		add	lr, r4, #1
 148 01b4 0E40A0E1 		mov	r4, lr
 149 01b8 0E70A0E1 		mov	r7, lr
 150 01bc 921C66E0 		mls	r6, r2, ip, r1
 151 01c0 00105CE2 		subs	r1, ip, #0
 152 01c4 06C0D9E7 		ldrb	ip, [r9, r6]	@ zero_extendqisi2
 153 01c8 0CC08AE1 		orr	ip, r10, ip
 154 01cc 01C0E5E5 		strb	ip, [r5, #1]!
 155 01d0 F5FFFF1A 		bne	.L12
 156 01d4 AFFFFFEA 		b	.L11
 157              	.L51:
 158 01d8 2BC0A0E3 		mov	ip, #43
 159 01dc 013043E2 		sub	r3, r3, #1
 160 01e0 04C08DE5 		str	ip, [sp, #4]
 161 01e4 9DFFFFEA 		b	.L5
 162              	.L50:
 163 01e8 2DC0A0E3 		mov	ip, #45
 164 01ec 001061E2 		rsb	r1, r1, #0
 165 01f0 013043E2 		sub	r3, r3, #1
 166 01f4 04C08DE5 		str	ip, [sp, #4]
 167 01f8 98FFFFEA 		b	.L5
 168              	.L24:
 169 01fc 0000A0E3 		mov	r0, #0
 170 0200 54D08DE2 		add	sp, sp, #84
 171              		@ sp needed
ARM GAS  C:\Users\ldebo\AppData\Local\Temp\ccpehfH9.s 			page 4


 172 0204 F08FBDE8 		pop	{r4, r5, r6, r7, r8, r9, r10, fp, pc}
 173              	.L52:
 174 0208 0020A0E1 		mov	r2, r0
 175 020c 30C0A0E3 		mov	ip, #48
 176 0210 58A08AE3 		orr	r10, r10, #88
 177 0214 02C0C2E4 		strb	ip, [r2], #2
 178 0218 01A0C0E5 		strb	r10, [r0, #1]
 179 021c 0200A0E1 		mov	r0, r2
 180 0220 B9FFFFEA 		b	.L16
 181              	.L29:
 182 0224 0C30A0E1 		mov	r3, ip
 183 0228 A9FFFFEA 		b	.L13
 184              	.L30:
 185 022c 0230A0E1 		mov	r3, r2
 186 0230 BFFFFFEA 		b	.L18
 187              		.size	number, .-number
 188              		.align	2
 189              		.syntax unified
 190              		.arm
 191              		.fpu neon-vfpv4
 192              		.type	NumStr, %function
 193              	NumStr:
 194              		@ args = 0, pretend = 0, frame = 280
 195              		@ frame_needed = 0, uses_anonymous_args = 0
 196 0234 000051E3 		cmp	r1, #0
 197 0238 00005013 		cmpne	r0, #0
 198 023c F04F2DE9 		push	{r4, r5, r6, r7, r8, r9, r10, fp, lr}
 199 0240 0050A0E1 		mov	r5, r0
 200 0244 068B2DED 		vpush.64	{d8, d9, d10}
 201 0248 47DF4DE2 		sub	sp, sp, #284
 202 024c 0300001A 		bne	.L108
 203 0250 0500A0E1 		mov	r0, r5
 204 0254 47DF8DE2 		add	sp, sp, #284
 205              		@ sp needed
 206 0258 068BBDEC 		vldm	sp!, {d8-d10}
 207 025c F08FBDE8 		pop	{r4, r5, r6, r7, r8, r9, r10, fp, pc}
 208              	.L108:
 209 0260 C00BB5EE 		vcmpe.f64	d0, #0
 210 0264 0080A0E3 		mov	r8, #0
 211 0268 0080C0E5 		strb	r8, [r0]
 212 026c 08008DE2 		add	r0, sp, #8
 213 0270 10FAF1EE 		vmrs	APSR_nzcv, FPSCR
 214 0274 0130A043 		movmi	r3, #1
 215 0278 400BB14E 		vnegmi.f64	d0, d0
 216 027c 04308D45 		strmi	r3, [sp, #4]
 217 0280 04808D55 		strpl	r8, [sp, #4]
 218 0284 FEFFFFEB 		bl	modf
 219 0288 021BDDED 		vldr.64	d17, [sp, #8]
 220 028c 408BB0EE 		vmov.f64	d8, d0
 221 0290 401BF5EE 		vcmp.f64	d17, #0
 222 0294 10FAF1EE 		vmrs	APSR_nzcv, FPSCR
 223 0298 1800001A 		bne	.L109
 224 029c C00BB5EE 		vcmpe.f64	d0, #0
 225 02a0 10FAF1EE 		vmrs	APSR_nzcv, FPSCR
 226 02a4 A70000DA 		ble	.L62
 227 02a8 043BF2EE 		vmov.f64	d19, #1.0e+1
 228 02ac 002BF7EE 		vmov.f64	d18, #1.0e+0
ARM GAS  C:\Users\ldebo\AppData\Local\Temp\ccpehfH9.s 			page 5


 229 02b0 231B60EE 		vmul.f64	d17, d0, d19
 230 02b4 E21BF4EE 		vcmpe.f64	d17, d18
 231 02b8 041BCDED 		vstr.64	d17, [sp, #16]
 232 02bc 10FAF1EE 		vmrs	APSR_nzcv, FPSCR
 233 02c0 A000005A 		bpl	.L62
 234 02c4 00B0A0E3 		mov	fp, #0
 235 02c8 000000EA 		b	.L65
 236              	.L85:
 237 02cc 601BF0EE 		vmov.f64	d17, d16
 238              	.L65:
 239 02d0 A30B61EE 		vmul.f64	d16, d17, d19
 240 02d4 01B04BE2 		sub	fp, fp, #1
 241 02d8 E20BF4EE 		vcmpe.f64	d16, d18
 242 02dc 10FAF1EE 		vmrs	APSR_nzcv, FPSCR
 243 02e0 F9FFFF4A 		bmi	.L85
 244 02e4 18608DE2 		add	r6, sp, #24
 245 02e8 040BCDED 		vstr.64	d16, [sp, #16]
 246 02ec 618BB0EE 		vmov.f64	d8, d17
 247 02f0 06A0A0E1 		mov	r10, r6
 248 02f4 0070A0E3 		mov	r7, #0
 249 02f8 7F100BE2 		and	r1, fp, #127
 250 02fc 260000EA 		b	.L59
 251              	.L109:
 252 0300 98908DE2 		add	r9, sp, #152
 253 0304 00B0A0E3 		mov	fp, #0
 254 0308 0940A0E1 		mov	r4, r9
 255 030c 04ABB2EE 		vmov.f64	d10, #1.0e+1
 256 0310 989B9FED 		vldr.64	d9, .L113
 257 0314 000000EA 		b	.L58
 258              	.L83:
 259 0318 0240A0E1 		mov	r4, r2
 260              	.L58:
 261 031c 8A0B81EE 		vdiv.f64	d0, d17, d10
 262 0320 08008DE2 		add	r0, sp, #8
 263 0324 FEFFFFEB 		bl	modf
 264 0328 090B70EE 		vadd.f64	d16, d0, d9
 265 032c 021BDDED 		vldr.64	d17, [sp, #8]
 266 0330 01B08BE2 		add	fp, fp, #1
 267 0334 7F100BE2 		and	r1, fp, #127
 268 0338 012044E2 		sub	r2, r4, #1
 269 033c 040B8DED 		vstr.64	d0, [sp, #16]
 270 0340 8A0B60EE 		vmul.f64	d16, d16, d10
 271 0344 7170EFE6 		uxtb	r7, r1
 272 0348 401BF5EE 		vcmp.f64	d17, #0
 273 034c E07BFDEE 		vcvt.s32.f64	s15, d16
 274 0350 10FAF1EE 		vmrs	APSR_nzcv, FPSCR
 275 0354 903A17EE 		vmov	r3, s15	@ int
 276 0358 303083E2 		add	r3, r3, #48
 277 035c 7330EFE6 		uxtb	r3, r3
 278 0360 013044E5 		strb	r3, [r4, #-1]
 279 0364 EBFFFF1A 		bne	.L83
 280 0368 090052E1 		cmp	r2, r9
 281 036c 18608DE2 		add	r6, sp, #24
 282 0370 7C00002A 		bcs	.L84
 283 0374 0600A0E1 		mov	r0, r6
 284 0378 97C08DE2 		add	ip, sp, #151
 285 037c 000000EA 		b	.L61
ARM GAS  C:\Users\ldebo\AppData\Local\Temp\ccpehfH9.s 			page 6


 286              	.L60:
 287 0380 0130F2E5 		ldrb	r3, [r2, #1]!	@ zero_extendqisi2
 288              	.L61:
 289 0384 02005CE1 		cmp	ip, r2
 290 0388 0130C0E4 		strb	r3, [r0], #1
 291 038c FBFFFF1A 		bne	.L60
 292 0390 99208DE2 		add	r2, sp, #153
 293 0394 042042E0 		sub	r2, r2, r4
 294 0398 02A086E0 		add	r10, r6, r2
 295              	.L59:
 296 039c 04309DE5 		ldr	r3, [sp, #4]
 297 03a0 9F83CDE7 		bfc	r8, #7, #7
 298 03a4 1387CEE7 		bfi	r8, r3, #14, #1
 299 03a8 020918E3 		tst	r8, #32768
 300 03ac 3A00001A 		bne	.L110
 301 03b0 96308DE2 		add	r3, sp, #150
 302 03b4 7140EFE6 		uxtb	r4, r1
 303 03b8 0BB083E0 		add	fp, r3, fp
 304 03bc 06005BE1 		cmp	fp, r6
 305 03c0 0030A033 		movcc	r3, #0
 306 03c4 1830CD35 		strbcc	r3, [sp, #24]
 307 03c8 5700002A 		bcs	.L111
 308              	.L69:
 309 03cc 04309DE5 		ldr	r3, [sp, #4]
 310 03d0 9483CDE7 		bfi	r8, r4, #7, #7
 311 03d4 1387CEE7 		bfi	r8, r3, #14, #1
 312 03d8 5834E7E7 		ubfx	r3, r8, #8, #8
 313 03dc 40C013E2 		ands	ip, r3, #64
 314 03e0 2D20A013 		movne	r2, #45
 315 03e4 0230A013 		movne	r3, #2
 316 03e8 0020C515 		strbne	r2, [r5]
 317 03ec 01C0A013 		movne	ip, #1
 318 03f0 0130A003 		moveq	r3, #1
 319 03f4 FE0D18E3 		tst	r8, #16256
 320 03f8 2400000A 		beq	.L72
 321 03fc 000054E3 		cmp	r4, #0
 322 0400 0C30A001 		moveq	r3, ip
 323 0404 1B00000A 		beq	.L74
 324 0408 01204CE2 		sub	r2, ip, #1
 325 040c 010044E2 		sub	r0, r4, #1
 326 0410 022085E0 		add	r2, r5, r2
 327 0414 000086E0 		add	r0, r6, r0
 328 0418 013046E2 		sub	r3, r6, #1
 329              	.L76:
 330 041c 0110F3E5 		ldrb	r1, [r3, #1]!	@ zero_extendqisi2
 331 0420 030050E1 		cmp	r0, r3
 332 0424 0110E2E5 		strb	r1, [r2, #1]!
 333 0428 FBFFFF1A 		bne	.L76
 334 042c 04308CE0 		add	r3, ip, r4
 335              	.L75:
 336 0430 000054E3 		cmp	r4, #0
 337 0434 0F00000A 		beq	.L74
 338 0438 070054E1 		cmp	r4, r7
 339 043c 2E20A0E3 		mov	r2, #46
 340 0440 0320C5E7 		strb	r2, [r5, r3]
 341 0444 010083E2 		add	r0, r3, #1
 342 0448 032085E0 		add	r2, r5, r3
ARM GAS  C:\Users\ldebo\AppData\Local\Temp\ccpehfH9.s 			page 7


 343 044c 4700002A 		bcs	.L87
 344 0450 013044E2 		sub	r3, r4, #1
 345 0454 011047E2 		sub	r1, r7, #1
 346 0458 033086E0 		add	r3, r6, r3
 347 045c 016086E0 		add	r6, r6, r1
 348              	.L77:
 349 0460 0110F3E5 		ldrb	r1, [r3, #1]!	@ zero_extendqisi2
 350 0464 060053E1 		cmp	r3, r6
 351 0468 0110E2E5 		strb	r1, [r2, #1]!
 352 046c FBFFFF1A 		bne	.L77
 353 0470 043047E0 		sub	r3, r7, r4
 354 0474 003083E0 		add	r3, r3, r0
 355              	.L74:
 356 0478 0020A0E3 		mov	r2, #0
 357 047c 0320E5E7 		strb	r2, [r5, r3]!
 358 0480 0500A0E1 		mov	r0, r5
 359 0484 47DF8DE2 		add	sp, sp, #284
 360              		@ sp needed
 361 0488 068BBDEC 		vldm	sp!, {d8-d10}
 362 048c F08FBDE8 		pop	{r4, r5, r6, r7, r8, r9, r10, fp, pc}
 363              	.L72:
 364 0490 3020A0E3 		mov	r2, #48
 365 0494 0C20C5E7 		strb	r2, [r5, ip]
 366 0498 E4FFFFEA 		b	.L75
 367              	.L110:
 368 049c 98908DE2 		add	r9, sp, #152
 369 04a0 96B08DE2 		add	fp, sp, #150
 370 04a4 0B005AE1 		cmp	r10, fp
 371 04a8 09005A91 		cmpls	r10, r9
 372 04ac 7140EFE6 		uxtb	r4, r1
 373 04b0 0190A033 		movcc	r9, #1
 374 04b4 0090A023 		movcs	r9, #0
 375              	.L78:
 376 04b8 000059E3 		cmp	r9, #0
 377 04bc 1700000A 		beq	.L67
 378              	.L81:
 379 04c0 2E9B9FED 		vldr.64	d9, .L113+8
 380 04c4 C98BB4EE 		vcmpe.f64	d8, d9
 381 04c8 10FAF1EE 		vmrs	APSR_nzcv, FPSCR
 382 04cc 98908DC2 		addgt	r9, sp, #152
 383 04d0 04ABB2CE 		vmovgt.f64	d10, #1.0e+1
 384 04d4 030000CA 		bgt	.L70
 385 04d8 100000EA 		b	.L67
 386              	.L112:
 387 04dc C90BB4EE 		vcmpe.f64	d0, d9
 388 04e0 10FAF1EE 		vmrs	APSR_nzcv, FPSCR
 389 04e4 0D0000DA 		ble	.L67
 390              	.L70:
 391 04e8 0A0B28EE 		vmul.f64	d0, d8, d10
 392 04ec 10008DE2 		add	r0, sp, #16
 393 04f0 FEFFFFEB 		bl	modf
 394 04f4 040BDDED 		vldr.64	d16, [sp, #16]
 395 04f8 013087E2 		add	r3, r7, #1
 396 04fc 408BB0EE 		vmov.f64	d8, d0
 397 0500 7F7003E2 		and	r7, r3, #127
 398 0504 E07BFDEE 		vcvt.s32.f64	s15, d16
 399 0508 903A17EE 		vmov	r3, s15	@ int
ARM GAS  C:\Users\ldebo\AppData\Local\Temp\ccpehfH9.s 			page 8


 400 050c 303083E2 		add	r3, r3, #48
 401 0510 0130CAE4 		strb	r3, [r10], #1
 402 0514 0B005AE1 		cmp	r10, fp
 403 0518 09005A91 		cmpls	r10, r9
 404 051c EEFFFF3A 		bcc	.L112
 405              	.L67:
 406 0520 0030A0E3 		mov	r3, #0
 407 0524 0030CAE5 		strb	r3, [r10]
 408 0528 A7FFFFEA 		b	.L69
 409              	.L111:
 410 052c 98908DE2 		add	r9, sp, #152
 411 0530 09005AE1 		cmp	r10, r9
 412 0534 0190A033 		movcc	r9, #1
 413 0538 0090A023 		movcs	r9, #0
 414 053c 0A005BE1 		cmp	fp, r10
 415 0540 0090A033 		movcc	r9, #0
 416 0544 DBFFFFEA 		b	.L78
 417              	.L62:
 418 0548 04309DE5 		ldr	r3, [sp, #4]
 419 054c 18608DE2 		add	r6, sp, #24
 420 0550 0070A0E3 		mov	r7, #0
 421 0554 06A0A0E1 		mov	r10, r6
 422 0558 1387CEE7 		bfi	r8, r3, #14, #1
 423 055c 0740A0E1 		mov	r4, r7
 424 0560 96B08DE2 		add	fp, sp, #150
 425 0564 D5FFFFEA 		b	.L81
 426              	.L84:
 427 0568 06A0A0E1 		mov	r10, r6
 428 056c 8AFFFFEA 		b	.L59
 429              	.L87:
 430 0570 0030A0E1 		mov	r3, r0
 431 0574 BFFFFFEA 		b	.L74
 432              	.L114:
 433              		.align	3
 434              	.L113:
 435 0578 B81E85EB 		.word	-343597384
 436 057c 51B89E3F 		.word	1067366481
 437 0580 00000000 		.word	0
 438 0584 0000B03C 		.word	1018167296
 439              		.size	NumStr, .-NumStr
 440              		.align	2
 441              		.global	do_div
 442              		.syntax unified
 443              		.arm
 444              		.fpu neon-vfpv4
 445              		.type	do_div, %function
 446              	do_div:
 447              		@ args = 0, pretend = 0, frame = 0
 448              		@ frame_needed = 0, uses_anonymous_args = 0
 449              		@ link register save eliminated.
 450 0588 002090E5 		ldr	r2, [r0]
 451 058c 12F113E7 		sdiv	r3, r2, r1
 452 0590 003080E5 		str	r3, [r0]
 453 0594 912360E0 		mls	r0, r1, r3, r2
 454 0598 1EFF2FE1 		bx	lr
 455              		.size	do_div, .-do_div
 456              		.align	2
ARM GAS  C:\Users\ldebo\AppData\Local\Temp\ccpehfH9.s 			page 9


 457              		.global	vsscanf
 458              		.syntax unified
 459              		.arm
 460              		.fpu neon-vfpv4
 461              		.type	vsscanf, %function
 462              	vsscanf:
 463              		@ args = 0, pretend = 0, frame = 0
 464              		@ frame_needed = 0, uses_anonymous_args = 0
 465              		@ link register save eliminated.
 466 059c 000050E3 		cmp	r0, #0
 467 05a0 00005103 		cmpeq	r1, #0
 468 05a4 0110A013 		movne	r1, #1
 469 05a8 0010A003 		moveq	r1, #0
 470 05ac 0100001A 		bne	.L118
 471 05b0 0030D1E5 		ldrb	r3, [r1]	@ zero_extendqisi2
 472 05b4 F000F0E7 		.inst	0xe7f000f0
 473              	.L118:
 474 05b8 0000A0E3 		mov	r0, #0
 475 05bc 1EFF2FE1 		bx	lr
 476              		.size	vsscanf, .-vsscanf
 477              		.align	2
 478              		.global	sscanf
 479              		.syntax unified
 480              		.arm
 481              		.fpu neon-vfpv4
 482              		.type	sscanf, %function
 483              	sscanf:
 484              		@ args = 4, pretend = 12, frame = 8
 485              		@ frame_needed = 0, uses_anonymous_args = 1
 486 05c0 0E002DE9 		push	{r1, r2, r3}
 487 05c4 003050E2 		subs	r3, r0, #0
 488 05c8 0300A001 		moveq	r0, r3
 489 05cc 04E02DE5 		str	lr, [sp, #-4]!
 490 05d0 08D04DE2 		sub	sp, sp, #8
 491 05d4 0400000A 		beq	.L119
 492 05d8 10308DE2 		add	r3, sp, #16
 493 05dc 0C109DE5 		ldr	r1, [sp, #12]
 494 05e0 0320A0E1 		mov	r2, r3
 495 05e4 04308DE5 		str	r3, [sp, #4]
 496 05e8 FEFFFFEB 		bl	vsscanf
 497              	.L119:
 498 05ec 08D08DE2 		add	sp, sp, #8
 499              		@ sp needed
 500 05f0 04E09DE4 		ldr	lr, [sp], #4
 501 05f4 0CD08DE2 		add	sp, sp, #12
 502 05f8 1EFF2FE1 		bx	lr
 503              		.size	sscanf, .-sscanf
 504              		.align	2
 505              		.global	Init_EmbStdio
 506              		.syntax unified
 507              		.arm
 508              		.fpu neon-vfpv4
 509              		.type	Init_EmbStdio, %function
 510              	Init_EmbStdio:
 511              		@ args = 0, pretend = 0, frame = 0
 512              		@ frame_needed = 0, uses_anonymous_args = 0
 513              		@ link register save eliminated.
ARM GAS  C:\Users\ldebo\AppData\Local\Temp\ccpehfH9.s 			page 10


 514 05fc 003000E3 		movw	r3, #:lower16:.LANCHOR1
 515 0600 003040E3 		movt	r3, #:upper16:.LANCHOR1
 516 0604 002093E5 		ldr	r2, [r3]
 517 0608 000083E5 		str	r0, [r3]
 518 060c 0200A0E1 		mov	r0, r2
 519 0610 1EFF2FE1 		bx	lr
 520              		.size	Init_EmbStdio, .-Init_EmbStdio
 521              		.align	2
 522              		.global	vsnprintf
 523              		.syntax unified
 524              		.arm
 525              		.fpu neon-vfpv4
 526              		.type	vsnprintf, %function
 527              	vsnprintf:
 528              		@ args = 0, pretend = 0, frame = 8
 529              		@ frame_needed = 0, uses_anonymous_args = 0
 530 0614 F04F2DE9 		push	{r4, r5, r6, r7, r8, r9, r10, fp, lr}
 531 0618 0060A0E1 		mov	r6, r0
 532 061c 0000D2E5 		ldrb	r0, [r2]	@ zero_extendqisi2
 533 0620 14D04DE2 		sub	sp, sp, #20
 534 0624 000050E3 		cmp	r0, #0
 535 0628 08108DE5 		str	r1, [sp, #8]
 536 062c 2601000A 		beq	.L125
 537 0630 0240A0E1 		mov	r4, r2
 538 0634 0380A0E1 		mov	r8, r3
 539 0638 0690A0E1 		mov	r9, r6
 540 063c 00A0A0E3 		mov	r10, #0
 541 0640 25B0A0E3 		mov	fp, #37
 542 0644 050000EA 		b	.L191
 543              	.L236:
 544 0648 0000C6E5 		strb	r0, [r6]
 545 064c 016086E2 		add	r6, r6, #1
 546 0650 0100D4E5 		ldrb	r0, [r4, #1]	@ zero_extendqisi2
 547              	.L128:
 548 0654 000050E3 		cmp	r0, #0
 549 0658 014084E2 		add	r4, r4, #1
 550 065c 1901000A 		beq	.L184
 551              	.L191:
 552 0660 250050E3 		cmp	r0, #37
 553 0664 0050A003 		moveq	r5, #0
 554 0668 F6FFFF1A 		bne	.L236
 555              	.L127:
 556 066c 0110D4E5 		ldrb	r1, [r4, #1]	@ zero_extendqisi2
 557 0670 013084E2 		add	r3, r4, #1
 558 0674 202041E2 		sub	r2, r1, #32
 559 0678 100052E3 		cmp	r2, #16
 560 067c 02F19F97 		ldrls	pc, [pc, r2, asl #2]
 561 0680 1B0000EA 		b	.L129
 562              	.L131:
 563 0684 EC060000 		.word	.L130
 564 0688 F4060000 		.word	.L129
 565 068c F4060000 		.word	.L129
 566 0690 D4060000 		.word	.L132
 567 0694 F4060000 		.word	.L129
 568 0698 F4060000 		.word	.L129
 569 069c F4060000 		.word	.L129
 570 06a0 F4060000 		.word	.L129
ARM GAS  C:\Users\ldebo\AppData\Local\Temp\ccpehfH9.s 			page 11


 571 06a4 F4060000 		.word	.L129
 572 06a8 F4060000 		.word	.L129
 573 06ac F4060000 		.word	.L129
 574 06b0 E4060000 		.word	.L133
 575 06b4 F4060000 		.word	.L129
 576 06b8 C8060000 		.word	.L134
 577 06bc F4060000 		.word	.L129
 578 06c0 F4060000 		.word	.L129
 579 06c4 DC060000 		.word	.L135
 580              	.L134:
 581 06c8 105085E3 		orr	r5, r5, #16
 582              	.L136:
 583 06cc 0340A0E1 		mov	r4, r3
 584 06d0 E5FFFFEA 		b	.L127
 585              	.L132:
 586 06d4 405085E3 		orr	r5, r5, #64
 587 06d8 FBFFFFEA 		b	.L136
 588              	.L135:
 589 06dc 015085E3 		orr	r5, r5, #1
 590 06e0 F9FFFFEA 		b	.L136
 591              	.L133:
 592 06e4 045085E3 		orr	r5, r5, #4
 593 06e8 F7FFFFEA 		b	.L136
 594              	.L130:
 595 06ec 085085E3 		orr	r5, r5, #8
 596 06f0 F5FFFFEA 		b	.L136
 597              	.L129:
 598 06f4 302041E2 		sub	r2, r1, #48
 599 06f8 090052E3 		cmp	r2, #9
 600 06fc 6E00008A 		bhi	.L237
 601 0700 0070A0E3 		mov	r7, #0
 602              	.L193:
 603 0704 0A20A0E3 		mov	r2, #10
 604 0708 921727E0 		mla	r7, r2, r7, r1
 605 070c 0110F3E5 		ldrb	r1, [r3, #1]!	@ zero_extendqisi2
 606 0710 302041E2 		sub	r2, r1, #48
 607 0714 307047E2 		sub	r7, r7, #48
 608 0718 090052E3 		cmp	r2, #9
 609 071c F8FFFF9A 		bls	.L193
 610              	.L140:
 611 0720 2E0051E3 		cmp	r1, #46
 612 0724 00C0E013 		mvnne	ip, #0
 613 0728 7000000A 		beq	.L238
 614              	.L141:
 615 072c FB2001E2 		and	r2, r1, #251
 616 0730 680052E3 		cmp	r2, #104
 617 0734 7D00000A 		beq	.L144
 618 0738 4C0051E3 		cmp	r1, #76
 619 073c 74005113 		cmpne	r1, #116
 620 0740 EF0001E2 		and	r0, r1, #239
 621 0744 0120A003 		moveq	r2, #1
 622 0748 0020A013 		movne	r2, #0
 623 074c 6A0050E3 		cmp	r0, #106
 624 0750 01208203 		orreq	r2, r2, #1
 625 0754 000052E3 		cmp	r2, #0
 626 0758 D100001A 		bne	.L145
 627 075c 251041E2 		sub	r1, r1, #37
ARM GAS  C:\Users\ldebo\AppData\Local\Temp\ccpehfH9.s 			page 12


 628 0760 530051E3 		cmp	r1, #83
 629 0764 01F19F97 		ldrls	pc, [pc, r1, asl #2]
 630 0768 D00000EA 		b	.L201
 631              	.L148:
 632 076c 840C0000 		.word	.L202
 633 0770 B00A0000 		.word	.L201
 634 0774 B00A0000 		.word	.L201
 635 0778 B00A0000 		.word	.L201
 636 077c B00A0000 		.word	.L201
 637 0780 B00A0000 		.word	.L201
 638 0784 B00A0000 		.word	.L201
 639 0788 B00A0000 		.word	.L201
 640 078c B00A0000 		.word	.L201
 641 0790 B00A0000 		.word	.L201
 642 0794 B00A0000 		.word	.L201
 643 0798 B00A0000 		.word	.L201
 644 079c B00A0000 		.word	.L201
 645 07a0 B00A0000 		.word	.L201
 646 07a4 B00A0000 		.word	.L201
 647 07a8 B00A0000 		.word	.L201
 648 07ac B00A0000 		.word	.L201
 649 07b0 B00A0000 		.word	.L201
 650 07b4 B00A0000 		.word	.L201
 651 07b8 B00A0000 		.word	.L201
 652 07bc B00A0000 		.word	.L201
 653 07c0 B00A0000 		.word	.L201
 654 07c4 B00A0000 		.word	.L201
 655 07c8 B00A0000 		.word	.L201
 656 07cc B00A0000 		.word	.L201
 657 07d0 B00A0000 		.word	.L201
 658 07d4 B00A0000 		.word	.L201
 659 07d8 B00A0000 		.word	.L201
 660 07dc 840D0000 		.word	.L149
 661 07e0 B00A0000 		.word	.L201
 662 07e4 B00A0000 		.word	.L201
 663 07e8 B00A0000 		.word	.L201
 664 07ec 840D0000 		.word	.L149
 665 07f0 840D0000 		.word	.L149
 666 07f4 840D0000 		.word	.L149
 667 07f8 B00A0000 		.word	.L201
 668 07fc B00A0000 		.word	.L201
 669 0800 B00A0000 		.word	.L201
 670 0804 B00A0000 		.word	.L201
 671 0808 B00A0000 		.word	.L201
 672 080c B00A0000 		.word	.L201
 673 0810 B00A0000 		.word	.L201
 674 0814 B00A0000 		.word	.L201
 675 0818 B00A0000 		.word	.L201
 676 081c B00A0000 		.word	.L201
 677 0820 B00A0000 		.word	.L201
 678 0824 B00A0000 		.word	.L201
 679 0828 B00A0000 		.word	.L201
 680 082c B00A0000 		.word	.L201
 681 0830 B00A0000 		.word	.L201
 682 0834 B00A0000 		.word	.L201
 683 0838 100E0000 		.word	.L203
 684 083c B00A0000 		.word	.L201
ARM GAS  C:\Users\ldebo\AppData\Local\Temp\ccpehfH9.s 			page 13


 685 0840 B00A0000 		.word	.L201
 686 0844 B00A0000 		.word	.L201
 687 0848 B00A0000 		.word	.L201
 688 084c B00A0000 		.word	.L201
 689 0850 B00A0000 		.word	.L201
 690 0854 B00A0000 		.word	.L201
 691 0858 B00A0000 		.word	.L201
 692 085c 840D0000 		.word	.L149
 693 0860 B00A0000 		.word	.L201
 694 0864 100C0000 		.word	.L204
 695 0868 F00A0000 		.word	.L205
 696 086c 840D0000 		.word	.L149
 697 0870 840D0000 		.word	.L149
 698 0874 840D0000 		.word	.L149
 699 0878 B00A0000 		.word	.L201
 700 087c F00A0000 		.word	.L205
 701 0880 B00A0000 		.word	.L201
 702 0884 B00A0000 		.word	.L201
 703 0888 B00A0000 		.word	.L201
 704 088c B00A0000 		.word	.L201
 705 0890 080E0000 		.word	.L206
 706 0894 1C0E0000 		.word	.L154
 707 0898 D40B0000 		.word	.L207
 708 089c B00A0000 		.word	.L201
 709 08a0 B00A0000 		.word	.L201
 710 08a4 3C0B0000 		.word	.L208
 711 08a8 B00A0000 		.word	.L201
 712 08ac FC0D0000 		.word	.L209
 713 08b0 B00A0000 		.word	.L201
 714 08b4 B00A0000 		.word	.L201
 715 08b8 740D0000 		.word	.L158
 716              	.L237:
 717 08bc 2A0051E3 		cmp	r1, #42
 718 08c0 0070E013 		mvnne	r7, #0
 719 08c4 95FFFF1A 		bne	.L140
 720 08c8 007098E5 		ldr	r7, [r8]
 721 08cc 023084E2 		add	r3, r4, #2
 722 08d0 0210D4E5 		ldrb	r1, [r4, #2]	@ zero_extendqisi2
 723 08d4 048088E2 		add	r8, r8, #4
 724 08d8 000057E3 		cmp	r7, #0
 725 08dc 007067B2 		rsblt	r7, r7, #0
 726 08e0 105085B3 		orrlt	r5, r5, #16
 727 08e4 2E0051E3 		cmp	r1, #46
 728 08e8 00C0E013 		mvnne	ip, #0
 729 08ec 8EFFFF1A 		bne	.L141
 730              	.L238:
 731 08f0 0110D3E5 		ldrb	r1, [r3, #1]	@ zero_extendqisi2
 732 08f4 012083E2 		add	r2, r3, #1
 733 08f8 300041E2 		sub	r0, r1, #48
 734 08fc 090050E3 		cmp	r0, #9
 735 0900 7500008A 		bhi	.L239
 736 0904 00C0A0E3 		mov	ip, #0
 737              	.L195:
 738 0908 0A30A0E3 		mov	r3, #10
 739 090c 931C2CE0 		mla	ip, r3, ip, r1
 740 0910 0110D2E5 		ldrb	r1, [r2, #1]	@ zero_extendqisi2
 741 0914 013082E2 		add	r3, r2, #1
ARM GAS  C:\Users\ldebo\AppData\Local\Temp\ccpehfH9.s 			page 14


 742 0918 302041E2 		sub	r2, r1, #48
 743 091c 30C04CE2 		sub	ip, ip, #48
 744 0920 090052E3 		cmp	r2, #9
 745 0924 0320A0E1 		mov	r2, r3
 746 0928 F6FFFF9A 		bls	.L195
 747 092c 7EFFFFEA 		b	.L141
 748              	.L144:
 749 0930 0120D3E5 		ldrb	r2, [r3, #1]	@ zero_extendqisi2
 750 0934 0100A0E1 		mov	r0, r1
 751 0938 010052E1 		cmp	r2, r1
 752 093c FE00000A 		beq	.L240
 753              	.L198:
 754 0940 252042E2 		sub	r2, r2, #37
 755 0944 014083E2 		add	r4, r3, #1
 756 0948 530052E3 		cmp	r2, #83
 757 094c 02F19F97 		ldrls	pc, [pc, r2, asl #2]
 758 0950 570000EA 		b	.L146
 759              	.L159:
 760 0954 880C0000 		.word	.L147
 761 0958 B40A0000 		.word	.L146
 762 095c B40A0000 		.word	.L146
 763 0960 B40A0000 		.word	.L146
 764 0964 B40A0000 		.word	.L146
 765 0968 B40A0000 		.word	.L146
 766 096c B40A0000 		.word	.L146
 767 0970 B40A0000 		.word	.L146
 768 0974 B40A0000 		.word	.L146
 769 0978 B40A0000 		.word	.L146
 770 097c B40A0000 		.word	.L146
 771 0980 B40A0000 		.word	.L146
 772 0984 B40A0000 		.word	.L146
 773 0988 B40A0000 		.word	.L146
 774 098c B40A0000 		.word	.L146
 775 0990 B40A0000 		.word	.L146
 776 0994 B40A0000 		.word	.L146
 777 0998 B40A0000 		.word	.L146
 778 099c B40A0000 		.word	.L146
 779 09a0 B40A0000 		.word	.L146
 780 09a4 B40A0000 		.word	.L146
 781 09a8 B40A0000 		.word	.L146
 782 09ac B40A0000 		.word	.L146
 783 09b0 B40A0000 		.word	.L146
 784 09b4 B40A0000 		.word	.L146
 785 09b8 B40A0000 		.word	.L146
 786 09bc B40A0000 		.word	.L146
 787 09c0 B40A0000 		.word	.L146
 788 09c4 E80C0000 		.word	.L160
 789 09c8 B40A0000 		.word	.L146
 790 09cc B40A0000 		.word	.L146
 791 09d0 B40A0000 		.word	.L146
 792 09d4 E80C0000 		.word	.L160
 793 09d8 E80C0000 		.word	.L160
 794 09dc E80C0000 		.word	.L160
 795 09e0 B40A0000 		.word	.L146
 796 09e4 B40A0000 		.word	.L146
 797 09e8 B40A0000 		.word	.L146
 798 09ec B40A0000 		.word	.L146
ARM GAS  C:\Users\ldebo\AppData\Local\Temp\ccpehfH9.s 			page 15


 799 09f0 B40A0000 		.word	.L146
 800 09f4 B40A0000 		.word	.L146
 801 09f8 B40A0000 		.word	.L146
 802 09fc B40A0000 		.word	.L146
 803 0a00 B40A0000 		.word	.L146
 804 0a04 B40A0000 		.word	.L146
 805 0a08 B40A0000 		.word	.L146
 806 0a0c B40A0000 		.word	.L146
 807 0a10 B40A0000 		.word	.L146
 808 0a14 B40A0000 		.word	.L146
 809 0a18 B40A0000 		.word	.L146
 810 0a1c B40A0000 		.word	.L146
 811 0a20 E00C0000 		.word	.L161
 812 0a24 B40A0000 		.word	.L146
 813 0a28 B40A0000 		.word	.L146
 814 0a2c B40A0000 		.word	.L146
 815 0a30 B40A0000 		.word	.L146
 816 0a34 B40A0000 		.word	.L146
 817 0a38 B40A0000 		.word	.L146
 818 0a3c B40A0000 		.word	.L146
 819 0a40 B40A0000 		.word	.L146
 820 0a44 E80C0000 		.word	.L160
 821 0a48 B40A0000 		.word	.L146
 822 0a4c 180C0000 		.word	.L151
 823 0a50 F80A0000 		.word	.L152
 824 0a54 E80C0000 		.word	.L160
 825 0a58 E80C0000 		.word	.L160
 826 0a5c E80C0000 		.word	.L160
 827 0a60 B40A0000 		.word	.L146
 828 0a64 F80A0000 		.word	.L152
 829 0a68 B40A0000 		.word	.L146
 830 0a6c B40A0000 		.word	.L146
 831 0a70 B40A0000 		.word	.L146
 832 0a74 B40A0000 		.word	.L146
 833 0a78 C00C0000 		.word	.L162
 834 0a7c 980C0000 		.word	.L210
 835 0a80 D80B0000 		.word	.L155
 836 0a84 B40A0000 		.word	.L146
 837 0a88 B40A0000 		.word	.L146
 838 0a8c 400B0000 		.word	.L156
 839 0a90 B40A0000 		.word	.L146
 840 0a94 FC0A0000 		.word	.L228
 841 0a98 B40A0000 		.word	.L146
 842 0a9c B40A0000 		.word	.L146
 843 0aa0 300D0000 		.word	.L165
 844              	.L145:
 845 0aa4 0100A0E1 		mov	r0, r1
 846 0aa8 0120D3E5 		ldrb	r2, [r3, #1]	@ zero_extendqisi2
 847 0aac A3FFFFEA 		b	.L198
 848              	.L201:
 849 0ab0 0340A0E1 		mov	r4, r3
 850              	.L146:
 851 0ab4 00B0C6E5 		strb	fp, [r6]
 852 0ab8 0030D4E5 		ldrb	r3, [r4]	@ zero_extendqisi2
 853 0abc 000053E3 		cmp	r3, #0
 854 0ac0 A100001A 		bne	.L241
 855 0ac4 016086E2 		add	r6, r6, #1
ARM GAS  C:\Users\ldebo\AppData\Local\Temp\ccpehfH9.s 			page 16


 856              	.L184:
 857 0ac8 090046E0 		sub	r0, r6, r9
 858              	.L125:
 859 0acc 0030A0E3 		mov	r3, #0
 860 0ad0 0030C6E5 		strb	r3, [r6]
 861 0ad4 14D08DE2 		add	sp, sp, #20
 862              		@ sp needed
 863 0ad8 F08FBDE8 		pop	{r4, r5, r6, r7, r8, r9, r10, fp, pc}
 864              	.L239:
 865 0adc 2A0051E3 		cmp	r1, #42
 866 0ae0 BF00000A 		beq	.L194
 867 0ae4 0230A0E1 		mov	r3, r2
 868 0ae8 00C0A0E3 		mov	ip, #0
 869 0aec 0EFFFFEA 		b	.L141
 870              	.L205:
 871 0af0 0340A0E1 		mov	r4, r3
 872 0af4 0000E0E3 		mvn	r0, #0
 873              	.L152:
 874 0af8 025085E3 		orr	r5, r5, #2
 875              	.L228:
 876 0afc 0A20A0E3 		mov	r2, #10
 877              	.L163:
 878 0b00 6C0050E3 		cmp	r0, #108
 879 0b04 6600000A 		beq	.L242
 880              	.L179:
 881 0b08 680050E3 		cmp	r0, #104
 882 0b0c AD00000A 		beq	.L243
 883              	.L150:
 884 0b10 000098E5 		ldr	r0, [r8]
 885 0b14 048088E2 		add	r8, r8, #4
 886              	.L186:
 887 0b18 0010A0E1 		mov	r1, r0
 888 0b1c 04508DE5 		str	r5, [sp, #4]
 889 0b20 0600A0E1 		mov	r0, r6
 890 0b24 0730A0E1 		mov	r3, r7
 891 0b28 00C08DE5 		str	ip, [sp]
 892 0b2c 33FDFFEB 		bl	number
 893 0b30 0060A0E1 		mov	r6, r0
 894              	.L230:
 895 0b34 0100D4E5 		ldrb	r0, [r4, #1]	@ zero_extendqisi2
 896 0b38 C5FEFFEA 		b	.L128
 897              	.L208:
 898 0b3c 0340A0E1 		mov	r4, r3
 899              	.L156:
 900 0b40 003098E5 		ldr	r3, [r8]
 901 0b44 0C10A0E1 		mov	r1, ip
 902 0b48 048088E2 		add	r8, r8, #4
 903 0b4c 0300A0E1 		mov	r0, r3
 904 0b50 0C308DE5 		str	r3, [sp, #12]
 905 0b54 FEFFFFEB 		bl	strnlen
 906 0b58 100015E3 		tst	r5, #16
 907 0b5c 0C309DE5 		ldr	r3, [sp, #12]
 908 0b60 0900001A 		bne	.L172
 909 0b64 000057E1 		cmp	r7, r0
 910 0b68 012047E2 		sub	r2, r7, #1
 911 0b6c AD0000DA 		ble	.L212
 912 0b70 002047E0 		sub	r2, r7, r0
ARM GAS  C:\Users\ldebo\AppData\Local\Temp\ccpehfH9.s 			page 17


 913 0b74 2010A0E3 		mov	r1, #32
 914 0b78 022086E0 		add	r2, r6, r2
 915              	.L173:
 916 0b7c 0110C6E4 		strb	r1, [r6], #1
 917 0b80 020056E1 		cmp	r6, r2
 918 0b84 FCFFFF1A 		bne	.L173
 919 0b88 017040E2 		sub	r7, r0, #1
 920              	.L172:
 921 0b8c 000050E3 		cmp	r0, #0
 922 0b90 060000DA 		ble	.L174
 923 0b94 012046E2 		sub	r2, r6, #1
 924 0b98 00C083E0 		add	ip, r3, r0
 925              	.L175:
 926 0b9c 0110D3E4 		ldrb	r1, [r3], #1	@ zero_extendqisi2
 927 0ba0 0C0053E1 		cmp	r3, ip
 928 0ba4 0110E2E5 		strb	r1, [r2, #1]!
 929 0ba8 FBFFFF1A 		bne	.L175
 930 0bac 006086E0 		add	r6, r6, r0
 931              	.L174:
 932 0bb0 000057E1 		cmp	r7, r0
 933 0bb4 DEFFFFDA 		ble	.L230
 934 0bb8 003047E0 		sub	r3, r7, r0
 935 0bbc 2020A0E3 		mov	r2, #32
 936 0bc0 033086E0 		add	r3, r6, r3
 937              	.L177:
 938 0bc4 0120C6E4 		strb	r2, [r6], #1
 939 0bc8 030056E1 		cmp	r6, r3
 940 0bcc FCFFFF1A 		bne	.L177
 941 0bd0 D7FFFFEA 		b	.L230
 942              	.L207:
 943 0bd4 0340A0E1 		mov	r4, r3
 944              	.L155:
 945 0bd8 010077E3 		cmn	r7, #1
 946 0bdc 001098E5 		ldr	r1, [r8]
 947 0be0 01508503 		orreq	r5, r5, #1
 948 0be4 0870A003 		moveq	r7, #8
 949 0be8 0600A0E1 		mov	r0, r6
 950 0bec 0730A0E1 		mov	r3, r7
 951 0bf0 04508DE5 		str	r5, [sp, #4]
 952 0bf4 1020A0E3 		mov	r2, #16
 953 0bf8 00C08DE5 		str	ip, [sp]
 954 0bfc 048088E2 		add	r8, r8, #4
 955 0c00 FEFCFFEB 		bl	number
 956 0c04 0060A0E1 		mov	r6, r0
 957 0c08 0100D4E5 		ldrb	r0, [r4, #1]	@ zero_extendqisi2
 958 0c0c 90FEFFEA 		b	.L128
 959              	.L204:
 960 0c10 0340A0E1 		mov	r4, r3
 961 0c14 0000E0E3 		mvn	r0, #0
 962              	.L151:
 963 0c18 100015E3 		tst	r5, #16
 964 0c1c 0800001A 		bne	.L166
 965 0c20 017047E2 		sub	r7, r7, #1
 966 0c24 000057E3 		cmp	r7, #0
 967 0c28 050000DA 		ble	.L166
 968 0c2c 073086E0 		add	r3, r6, r7
 969 0c30 2020A0E3 		mov	r2, #32
ARM GAS  C:\Users\ldebo\AppData\Local\Temp\ccpehfH9.s 			page 18


 970              	.L167:
 971 0c34 0120C6E4 		strb	r2, [r6], #1
 972 0c38 030056E1 		cmp	r6, r3
 973 0c3c FCFFFF1A 		bne	.L167
 974 0c40 0070A0E3 		mov	r7, #0
 975              	.L166:
 976 0c44 003098E5 		ldr	r3, [r8]
 977 0c48 6C0050E3 		cmp	r0, #108
 978 0c4c 048088E2 		add	r8, r8, #4
 979 0c50 0030C615 		strbne	r3, [r6]
 980 0c54 01608612 		addne	r6, r6, #1
 981 0c58 00308605 		streq	r3, [r6]
 982 0c5c 04608602 		addeq	r6, r6, #4
 983 0c60 010057E3 		cmp	r7, #1
 984 0c64 013047C2 		subgt	r3, r7, #1
 985 0c68 2020A0C3 		movgt	r2, #32
 986 0c6c 033086C0 		addgt	r3, r6, r3
 987 0c70 AFFFFFDA 		ble	.L230
 988              	.L171:
 989 0c74 0120C6E4 		strb	r2, [r6], #1
 990 0c78 030056E1 		cmp	r6, r3
 991 0c7c FCFFFF1A 		bne	.L171
 992 0c80 ABFFFFEA 		b	.L230
 993              	.L202:
 994 0c84 0340A0E1 		mov	r4, r3
 995              	.L147:
 996 0c88 00B0C6E5 		strb	fp, [r6]
 997 0c8c 016086E2 		add	r6, r6, #1
 998 0c90 0100D4E5 		ldrb	r0, [r4, #1]	@ zero_extendqisi2
 999 0c94 6EFEFFEA 		b	.L128
 1000              	.L210:
 1001 0c98 6C0050E3 		cmp	r0, #108
 1002 0c9c 0820A0E3 		mov	r2, #8
 1003 0ca0 98FFFF1A 		bne	.L179
 1004              	.L242:
 1005 0ca4 00005AE3 		cmp	r10, #0
 1006 0ca8 98FFFF0A 		beq	.L150
 1007 0cac 073088E2 		add	r3, r8, #7
 1008 0cb0 0730C3E3 		bic	r3, r3, #7
 1009 0cb4 088083E2 		add	r8, r3, #8
 1010 0cb8 D000C3E1 		ldrd	r0, [r3]
 1011 0cbc 95FFFFEA 		b	.L186
 1012              	.L162:
 1013 0cc0 6C0051E3 		cmp	r1, #108
 1014 0cc4 2400000A 		beq	.L244
 1015              	.L153:
 1016 0cc8 003098E5 		ldr	r3, [r8]
 1017 0ccc 092046E0 		sub	r2, r6, r9
 1018 0cd0 048088E2 		add	r8, r8, #4
 1019 0cd4 002083E5 		str	r2, [r3]
 1020 0cd8 0100D4E5 		ldrb	r0, [r4, #1]	@ zero_extendqisi2
 1021 0cdc 5CFEFFEA 		b	.L128
 1022              	.L161:
 1023 0ce0 1020A0E3 		mov	r2, #16
 1024 0ce4 85FFFFEA 		b	.L163
 1025              	.L160:
 1026 0ce8 4C0051E3 		cmp	r1, #76
ARM GAS  C:\Users\ldebo\AppData\Local\Temp\ccpehfH9.s 			page 19


 1027 0cec 0100000A 		beq	.L181
 1028 0cf0 6C0051E3 		cmp	r1, #108
 1029 0cf4 0B00001A 		bne	.L231
 1030              	.L181:
 1031 0cf8 072088E2 		add	r2, r8, #7
 1032 0cfc 0C308DE5 		str	r3, [sp, #12]
 1033 0d00 0720C2E3 		bic	r2, r2, #7
 1034 0d04 08309DE5 		ldr	r3, [sp, #8]
 1035 0d08 091046E0 		sub	r1, r6, r9
 1036 0d0c 0600A0E1 		mov	r0, r6
 1037 0d10 011043E0 		sub	r1, r3, r1
 1038 0d14 088082E2 		add	r8, r2, #8
 1039 0d18 000B92ED 		vldr.64	d0, [r2]
 1040 0d1c 44FDFFEB 		bl	NumStr
 1041 0d20 0C309DE5 		ldr	r3, [sp, #12]
 1042 0d24 0060A0E1 		mov	r6, r0
 1043              	.L231:
 1044 0d28 0200D3E5 		ldrb	r0, [r3, #2]	@ zero_extendqisi2
 1045 0d2c 48FEFFEA 		b	.L128
 1046              	.L165:
 1047 0d30 205085E3 		orr	r5, r5, #32
 1048 0d34 1020A0E3 		mov	r2, #16
 1049 0d38 70FFFFEA 		b	.L163
 1050              	.L240:
 1051 0d3c 01A0A0E3 		mov	r10, #1
 1052 0d40 0220D3E5 		ldrb	r2, [r3, #2]	@ zero_extendqisi2
 1053 0d44 0A3083E0 		add	r3, r3, r10
 1054 0d48 FCFEFFEA 		b	.L198
 1055              	.L241:
 1056 0d4c 0130C6E5 		strb	r3, [r6, #1]
 1057 0d50 026086E2 		add	r6, r6, #2
 1058 0d54 0100D4E5 		ldrb	r0, [r4, #1]	@ zero_extendqisi2
 1059 0d58 3DFEFFEA 		b	.L128
 1060              	.L244:
 1061 0d5c 002098E5 		ldr	r2, [r8]
 1062 0d60 091046E0 		sub	r1, r6, r9
 1063 0d64 048088E2 		add	r8, r8, #4
 1064 0d68 001082E5 		str	r1, [r2]
 1065 0d6c 0200D3E5 		ldrb	r0, [r3, #2]	@ zero_extendqisi2
 1066 0d70 37FEFFEA 		b	.L128
 1067              	.L158:
 1068 0d74 205085E3 		orr	r5, r5, #32
 1069 0d78 0340A0E1 		mov	r4, r3
 1070 0d7c 1020A0E3 		mov	r2, #16
 1071 0d80 62FFFFEA 		b	.L150
 1072              	.L149:
 1073 0d84 072088E2 		add	r2, r8, #7
 1074 0d88 08009DE5 		ldr	r0, [sp, #8]
 1075 0d8c 0720C2E3 		bic	r2, r2, #7
 1076 0d90 091046E0 		sub	r1, r6, r9
 1077 0d94 011040E0 		sub	r1, r0, r1
 1078 0d98 0600A0E1 		mov	r0, r6
 1079 0d9c 0340A0E1 		mov	r4, r3
 1080 0da0 0C308DE5 		str	r3, [sp, #12]
 1081 0da4 000B92ED 		vldr.64	d0, [r2]
 1082 0da8 088082E2 		add	r8, r2, #8
 1083 0dac C00BB7EE 		vcvt.f32.f64	s0, d0
ARM GAS  C:\Users\ldebo\AppData\Local\Temp\ccpehfH9.s 			page 20


 1084 0db0 C00AB7EE 		vcvt.f64.f32	d0, s0
 1085 0db4 1EFDFFEB 		bl	NumStr
 1086 0db8 0C309DE5 		ldr	r3, [sp, #12]
 1087 0dbc 0060A0E1 		mov	r6, r0
 1088 0dc0 0100D3E5 		ldrb	r0, [r3, #1]	@ zero_extendqisi2
 1089 0dc4 22FEFFEA 		b	.L128
 1090              	.L243:
 1091 0dc8 00005AE3 		cmp	r10, #0
 1092 0dcc 048088E2 		add	r8, r8, #4
 1093 0dd0 04005815 		ldrbne	r0, [r8, #-4]	@ zero_extendqisi2
 1094 0dd4 B4005801 		ldrheq	r0, [r8, #-4]
 1095 0dd8 020015E3 		tst	r5, #2
 1096 0ddc 7000BF16 		sxthne	r0, r0
 1097 0de0 4CFFFFEA 		b	.L186
 1098              	.L194:
 1099 0de4 00C098E5 		ldr	ip, [r8]
 1100 0de8 023083E2 		add	r3, r3, #2
 1101 0dec 0010D3E5 		ldrb	r1, [r3]	@ zero_extendqisi2
 1102 0df0 048088E2 		add	r8, r8, #4
 1103 0df4 CCCFCCE1 		bic	ip, ip, ip, asr #31
 1104 0df8 4BFEFFEA 		b	.L141
 1105              	.L209:
 1106 0dfc 0340A0E1 		mov	r4, r3
 1107 0e00 0A20A0E3 		mov	r2, #10
 1108 0e04 41FFFFEA 		b	.L150
 1109              	.L206:
 1110 0e08 0340A0E1 		mov	r4, r3
 1111 0e0c ADFFFFEA 		b	.L153
 1112              	.L203:
 1113 0e10 0340A0E1 		mov	r4, r3
 1114 0e14 1020A0E3 		mov	r2, #16
 1115 0e18 3CFFFFEA 		b	.L150
 1116              	.L154:
 1117 0e1c 0340A0E1 		mov	r4, r3
 1118 0e20 0820A0E3 		mov	r2, #8
 1119 0e24 39FFFFEA 		b	.L150
 1120              	.L212:
 1121 0e28 0270A0E1 		mov	r7, r2
 1122 0e2c 56FFFFEA 		b	.L172
 1123              		.size	vsnprintf, .-vsnprintf
 1124              		.align	2
 1125              		.global	printf
 1126              		.syntax unified
 1127              		.arm
 1128              		.fpu neon-vfpv4
 1129              		.type	printf, %function
 1130              	printf:
 1131              		@ args = 4, pretend = 16, frame = 520
 1132              		@ frame_needed = 0, uses_anonymous_args = 1
 1133 0e30 0F002DE9 		push	{r0, r1, r2, r3}
 1134 0e34 021CA0E3 		mov	r1, #512
 1135 0e38 F0402DE9 		push	{r4, r5, r6, r7, lr}
 1136 0e3c 006000E3 		movw	r6, #:lower16:.LANCHOR1
 1137 0e40 006040E3 		movt	r6, #:upper16:.LANCHOR1
 1138 0e44 83DF4DE2 		sub	sp, sp, #524
 1139 0e48 89CF8DE2 		add	ip, sp, #548
 1140 0e4c 08008DE2 		add	r0, sp, #8
ARM GAS  C:\Users\ldebo\AppData\Local\Temp\ccpehfH9.s 			page 21


 1141 0e50 0C30A0E1 		mov	r3, ip
 1142 0e54 20229DE5 		ldr	r2, [sp, #544]
 1143 0e58 04C08DE5 		str	ip, [sp, #4]
 1144 0e5c FEFFFFEB 		bl	vsnprintf
 1145 0e60 003096E5 		ldr	r3, [r6]
 1146 0e64 0070A0E1 		mov	r7, r0
 1147 0e68 000053E3 		cmp	r3, #0
 1148 0e6c 0B00000A 		beq	.L245
 1149 0e70 000050E3 		cmp	r0, #0
 1150 0e74 090000DA 		ble	.L245
 1151 0e78 015040E2 		sub	r5, r0, #1
 1152 0e7c 08208DE2 		add	r2, sp, #8
 1153 0e80 07408DE2 		add	r4, sp, #7
 1154 0e84 055082E0 		add	r5, r2, r5
 1155 0e88 000000EA 		b	.L248
 1156              	.L250:
 1157 0e8c 003096E5 		ldr	r3, [r6]
 1158              	.L248:
 1159 0e90 0100F4E5 		ldrb	r0, [r4, #1]!	@ zero_extendqisi2
 1160 0e94 33FF2FE1 		blx	r3
 1161 0e98 050054E1 		cmp	r4, r5
 1162 0e9c FAFFFF1A 		bne	.L250
 1163              	.L245:
 1164 0ea0 0700A0E1 		mov	r0, r7
 1165 0ea4 83DF8DE2 		add	sp, sp, #524
 1166              		@ sp needed
 1167 0ea8 F040BDE8 		pop	{r4, r5, r6, r7, lr}
 1168 0eac 10D08DE2 		add	sp, sp, #16
 1169 0eb0 1EFF2FE1 		bx	lr
 1170              		.size	printf, .-printf
 1171              		.align	2
 1172              		.global	sprintf
 1173              		.syntax unified
 1174              		.arm
 1175              		.fpu neon-vfpv4
 1176              		.type	sprintf, %function
 1177              	sprintf:
 1178              		@ args = 4, pretend = 12, frame = 8
 1179              		@ frame_needed = 0, uses_anonymous_args = 1
 1180 0eb4 0E002DE9 		push	{r1, r2, r3}
 1181 0eb8 011CA0E3 		mov	r1, #256
 1182 0ebc 04E02DE5 		str	lr, [sp, #-4]!
 1183 0ec0 08D04DE2 		sub	sp, sp, #8
 1184 0ec4 10C08DE2 		add	ip, sp, #16
 1185 0ec8 0C30A0E1 		mov	r3, ip
 1186 0ecc 0C209DE5 		ldr	r2, [sp, #12]
 1187 0ed0 04C08DE5 		str	ip, [sp, #4]
 1188 0ed4 FEFFFFEB 		bl	vsnprintf
 1189 0ed8 08D08DE2 		add	sp, sp, #8
 1190              		@ sp needed
 1191 0edc 04E09DE4 		ldr	lr, [sp], #4
 1192 0ee0 0CD08DE2 		add	sp, sp, #12
 1193 0ee4 1EFF2FE1 		bx	lr
 1194              		.size	sprintf, .-sprintf
 1195              		.align	2
 1196              		.global	snprintf
 1197              		.syntax unified
ARM GAS  C:\Users\ldebo\AppData\Local\Temp\ccpehfH9.s 			page 22


 1198              		.arm
 1199              		.fpu neon-vfpv4
 1200              		.type	snprintf, %function
 1201              	snprintf:
 1202              		@ args = 4, pretend = 8, frame = 8
 1203              		@ frame_needed = 0, uses_anonymous_args = 1
 1204 0ee8 0C002DE9 		push	{r2, r3}
 1205 0eec 04E02DE5 		str	lr, [sp, #-4]!
 1206 0ef0 0CD04DE2 		sub	sp, sp, #12
 1207 0ef4 14C08DE2 		add	ip, sp, #20
 1208 0ef8 0C30A0E1 		mov	r3, ip
 1209 0efc 10209DE5 		ldr	r2, [sp, #16]
 1210 0f00 04C08DE5 		str	ip, [sp, #4]
 1211 0f04 FEFFFFEB 		bl	vsnprintf
 1212 0f08 0CD08DE2 		add	sp, sp, #12
 1213              		@ sp needed
 1214 0f0c 04E09DE4 		ldr	lr, [sp], #4
 1215 0f10 08D08DE2 		add	sp, sp, #8
 1216 0f14 1EFF2FE1 		bx	lr
 1217              		.size	snprintf, .-snprintf
 1218              		.align	2
 1219              		.global	vprintf
 1220              		.syntax unified
 1221              		.arm
 1222              		.fpu neon-vfpv4
 1223              		.type	vprintf, %function
 1224              	vprintf:
 1225              		@ args = 0, pretend = 0, frame = 512
 1226              		@ frame_needed = 0, uses_anonymous_args = 0
 1227 0f18 F0402DE9 		push	{r4, r5, r6, r7, lr}
 1228 0f1c 006000E3 		movw	r6, #:lower16:.LANCHOR1
 1229 0f20 006040E3 		movt	r6, #:upper16:.LANCHOR1
 1230 0f24 81DF4DE2 		sub	sp, sp, #516
 1231 0f28 0130A0E1 		mov	r3, r1
 1232 0f2c 0020A0E1 		mov	r2, r0
 1233 0f30 021CA0E3 		mov	r1, #512
 1234 0f34 0D00A0E1 		mov	r0, sp
 1235 0f38 FEFFFFEB 		bl	vsnprintf
 1236 0f3c 003096E5 		ldr	r3, [r6]
 1237 0f40 0070A0E1 		mov	r7, r0
 1238 0f44 000053E3 		cmp	r3, #0
 1239 0f48 0A00000A 		beq	.L255
 1240 0f4c 000050E3 		cmp	r0, #0
 1241 0f50 080000DA 		ble	.L255
 1242 0f54 015040E2 		sub	r5, r0, #1
 1243 0f58 01404DE2 		sub	r4, sp, #1
 1244 0f5c 05508DE0 		add	r5, sp, r5
 1245 0f60 000000EA 		b	.L258
 1246              	.L260:
 1247 0f64 003096E5 		ldr	r3, [r6]
 1248              	.L258:
 1249 0f68 0100F4E5 		ldrb	r0, [r4, #1]!	@ zero_extendqisi2
 1250 0f6c 33FF2FE1 		blx	r3
 1251 0f70 050054E1 		cmp	r4, r5
 1252 0f74 FAFFFF1A 		bne	.L260
 1253              	.L255:
 1254 0f78 0700A0E1 		mov	r0, r7
ARM GAS  C:\Users\ldebo\AppData\Local\Temp\ccpehfH9.s 			page 23


 1255 0f7c 81DF8DE2 		add	sp, sp, #516
 1256              		@ sp needed
 1257 0f80 F080BDE8 		pop	{r4, r5, r6, r7, pc}
 1258              		.size	vprintf, .-vprintf
 1259              		.align	2
 1260              		.global	vsprintf
 1261              		.syntax unified
 1262              		.arm
 1263              		.fpu neon-vfpv4
 1264              		.type	vsprintf, %function
 1265              	vsprintf:
 1266              		@ args = 0, pretend = 0, frame = 0
 1267              		@ frame_needed = 0, uses_anonymous_args = 0
 1268              		@ link register save eliminated.
 1269 0f84 0230A0E1 		mov	r3, r2
 1270 0f88 0120A0E1 		mov	r2, r1
 1271 0f8c 011CA0E3 		mov	r1, #256
 1272 0f90 FEFFFFEA 		b	vsnprintf
 1273              		.size	vsprintf, .-vsprintf
 1274              		.section	.rodata
 1275              		.align	2
 1276              		.set	.LANCHOR0,. + 0
 1277              		.type	digits.7119, %object
 1278              		.size	digits.7119, 16
 1279              	digits.7119:
 1280 0000 30313233 		.ascii	"0123456789ABCDEF"
 1280      34353637 
 1280      38394142 
 1280      43444546 
 1281              		.bss
 1282              		.align	2
 1283              		.set	.LANCHOR1,. + 0
 1284              		.type	Console_WriteChar, %object
 1285              		.size	Console_WriteChar, 4
 1286              	Console_WriteChar:
 1287 0000 00000000 		.space	4
 1288              		.ident	"GCC: (GNU Tools for ARM Embedded Processors 6-2017-q2-update) 6.3.1 20170620 (release) [AR
ARM GAS  C:\Users\ldebo\AppData\Local\Temp\ccpehfH9.s 			page 24


DEFINED SYMBOLS
                            *ABS*:00000000 emb-stdio.c
C:\Users\ldebo\AppData\Local\Temp\ccpehfH9.s:14     .text:00000000 $a
C:\Users\ldebo\AppData\Local\Temp\ccpehfH9.s:19     .text:00000000 number
C:\Users\ldebo\AppData\Local\Temp\ccpehfH9.s:1276   .rodata:00000000 .LANCHOR0
C:\Users\ldebo\AppData\Local\Temp\ccpehfH9.s:193    .text:00000234 NumStr
C:\Users\ldebo\AppData\Local\Temp\ccpehfH9.s:435    .text:00000578 $d
C:\Users\ldebo\AppData\Local\Temp\ccpehfH9.s:440    .text:00000588 $a
C:\Users\ldebo\AppData\Local\Temp\ccpehfH9.s:446    .text:00000588 do_div
C:\Users\ldebo\AppData\Local\Temp\ccpehfH9.s:462    .text:0000059c vsscanf
C:\Users\ldebo\AppData\Local\Temp\ccpehfH9.s:483    .text:000005c0 sscanf
C:\Users\ldebo\AppData\Local\Temp\ccpehfH9.s:510    .text:000005fc Init_EmbStdio
C:\Users\ldebo\AppData\Local\Temp\ccpehfH9.s:1283   .bss:00000000 .LANCHOR1
C:\Users\ldebo\AppData\Local\Temp\ccpehfH9.s:527    .text:00000614 vsnprintf
C:\Users\ldebo\AppData\Local\Temp\ccpehfH9.s:563    .text:00000684 $d
C:\Users\ldebo\AppData\Local\Temp\ccpehfH9.s:581    .text:000006c8 $a
C:\Users\ldebo\AppData\Local\Temp\ccpehfH9.s:632    .text:0000076c $d
C:\Users\ldebo\AppData\Local\Temp\ccpehfH9.s:717    .text:000008bc $a
C:\Users\ldebo\AppData\Local\Temp\ccpehfH9.s:760    .text:00000954 $d
C:\Users\ldebo\AppData\Local\Temp\ccpehfH9.s:845    .text:00000aa4 $a
C:\Users\ldebo\AppData\Local\Temp\ccpehfH9.s:1130   .text:00000e30 printf
C:\Users\ldebo\AppData\Local\Temp\ccpehfH9.s:1177   .text:00000eb4 sprintf
C:\Users\ldebo\AppData\Local\Temp\ccpehfH9.s:1201   .text:00000ee8 snprintf
C:\Users\ldebo\AppData\Local\Temp\ccpehfH9.s:1224   .text:00000f18 vprintf
C:\Users\ldebo\AppData\Local\Temp\ccpehfH9.s:1265   .text:00000f84 vsprintf
C:\Users\ldebo\AppData\Local\Temp\ccpehfH9.s:1275   .rodata:00000000 $d
C:\Users\ldebo\AppData\Local\Temp\ccpehfH9.s:1279   .rodata:00000000 digits.7119
C:\Users\ldebo\AppData\Local\Temp\ccpehfH9.s:1282   .bss:00000000 $d
C:\Users\ldebo\AppData\Local\Temp\ccpehfH9.s:1286   .bss:00000000 Console_WriteChar

UNDEFINED SYMBOLS
modf
strnlen
