
kernel.elf:     file format elf64-littleaarch64


Disassembly of section .init:

0000000000080000 <_start>:
   80000:	1000000c 	adr	x12, 80000 <_start>
   80004:	58000f21 	ldr	x1, 801e8 <StartSecondarySpin+0x38>
   80008:	b900002c 	str	w12, [x1]
   8000c:	58000f20 	ldr	x0, 801f0 <StartSecondarySpin+0x40>
   80010:	58000f41 	ldr	x1, 801f8 <StartSecondarySpin+0x48>
   80014:	b9000020 	str	w0, [x1]
   80018:	d2800020 	mov	x0, #0x1                   	// #1
   8001c:	58000f21 	ldr	x1, 80200 <StartSecondarySpin+0x50>
   80020:	b9000020 	str	w0, [x1]
   80024:	d2801300 	mov	x0, #0x98                  	// #152
   80028:	58000f01 	ldr	x1, 80208 <StartSecondarySpin+0x58>
   8002c:	b9000020 	str	w0, [x1]
   80030:	d5380000 	mrs	x0, midr_el1
   80034:	58000ee1 	ldr	x1, 80210 <StartSecondarySpin+0x60>
   80038:	b9000020 	str	w0, [x1]
   8003c:	d53ce100 	mrs	x0, cnthctl_el2
   80040:	b2400400 	orr	x0, x0, #0x3
   80044:	d51ce100 	msr	cnthctl_el2, x0
   80048:	d51ce07f 	msr	cntvoff_el2, xzr
   8004c:	d538e100 	mrs	x0, cntkctl_el1
   80050:	b2400400 	orr	x0, x0, #0x3
   80054:	d518e100 	msr	cntkctl_el1, x0

0000000000080058 <multicore_start>:
   80058:	58000e02 	ldr	x2, 80218 <StartSecondarySpin+0x68>
   8005c:	58000e23 	ldr	x3, 80220 <StartSecondarySpin+0x70>
   80060:	58000e44 	ldr	x4, 80228 <StartSecondarySpin+0x78>
   80064:	d53800a6 	mrs	x6, mpidr_el1
   80068:	f24004c6 	ands	x6, x6, #0x3
   8006c:	540001c0 	b.eq	800a4 <set_stacks>  // b.none
   80070:	58000e02 	ldr	x2, 80230 <StartSecondarySpin+0x80>
   80074:	58000e23 	ldr	x3, 80238 <StartSecondarySpin+0x88>
   80078:	58000e44 	ldr	x4, 80240 <StartSecondarySpin+0x90>
   8007c:	f10004df 	cmp	x6, #0x1
   80080:	54000120 	b.eq	800a4 <set_stacks>  // b.none
   80084:	58000e22 	ldr	x2, 80248 <StartSecondarySpin+0x98>
   80088:	58000e43 	ldr	x3, 80250 <StartSecondarySpin+0xa0>
   8008c:	58000e64 	ldr	x4, 80258 <StartSecondarySpin+0xa8>
   80090:	f10008df 	cmp	x6, #0x2
   80094:	54000080 	b.eq	800a4 <set_stacks>  // b.none
   80098:	58000e42 	ldr	x2, 80260 <StartSecondarySpin+0xb0>
   8009c:	58000e63 	ldr	x3, 80268 <StartSecondarySpin+0xb8>
   800a0:	58000e84 	ldr	x4, 80270 <StartSecondarySpin+0xc0>

00000000000800a4 <set_stacks>:
   800a4:	9100005f 	mov	sp, x2
   800a8:	d51c4103 	msr	sp_el1, x3
   800ac:	d5184104 	msr	sp_el0, x4
   800b0:	d5380000 	mrs	x0, midr_el1
   800b4:	d53800a1 	mrs	x1, mpidr_el1
   800b8:	d51c0000 	msr	vpidr_el2, x0
   800bc:	d51c00a1 	msr	vmpidr_el2, x1
   800c0:	d2867fe0 	mov	x0, #0x33ff                	// #13311
   800c4:	d51c1140 	msr	cptr_el2, x0
   800c8:	d51c117f 	msr	hstr_el2, xzr
   800cc:	d2a00600 	mov	x0, #0x300000              	// #3145728
   800d0:	d5181040 	msr	cpacr_el1, x0
   800d4:	d2b00000 	mov	x0, #0x80000000            	// #2147483648
   800d8:	d51c1100 	msr	hcr_el2, x0
   800dc:	d2810000 	mov	x0, #0x800                 	// #2048
   800e0:	f2a61a00 	movk	x0, #0x30d0, lsl #16
   800e4:	b27e0000 	orr	x0, x0, #0x4
   800e8:	b2740000 	orr	x0, x0, #0x1000
   800ec:	d5181000 	msr	sctlr_el1, x0
   800f0:	d28078a0 	mov	x0, #0x3c5                 	// #965
   800f4:	d51c4000 	msr	spsr_el2, x0
   800f8:	10000060 	adr	x0, 80104 <exit_el1>
   800fc:	d51c4020 	msr	elr_el2, x0
   80100:	d69f03e0 	eret

0000000000080104 <exit_el1>:
   80104:	d53800a6 	mrs	x6, mpidr_el1
   80108:	924004c6 	and	x6, x6, #0x3
   8010c:	b40000c6 	cbz	x6, 80124 <cpu0_exit_multicore_park>
   80110:	58000781 	ldr	x1, 80200 <StartSecondarySpin+0x50>
   80114:	b9400020 	ldr	w0, [x1]
   80118:	11000400 	add	w0, w0, #0x1
   8011c:	b9000020 	str	w0, [x1]
   80120:	14000024 	b	801b0 <StartSecondarySpin>

0000000000080124 <cpu0_exit_multicore_park>:
   80124:	58000aa0 	ldr	x0, 80278 <StartSecondarySpin+0xc8>
   80128:	d518c000 	msr	vbar_el1, x0
   8012c:	58000aa3 	ldr	x3, 80280 <StartSecondarySpin+0xd0>
   80130:	58000ac0 	ldr	x0, 80288 <StartSecondarySpin+0xd8>
   80134:	eb03001f 	cmp	x0, x3
   80138:	54000082 	b.cs	80148 <.bss_cleared>  // b.hs, b.nlast

000000000008013c <.bss_zero_loop>:
   8013c:	b800441f 	str	wzr, [x0], #4
   80140:	eb00007f 	cmp	x3, x0
   80144:	54ffffc8 	b.hi	8013c <.bss_zero_loop>  // b.pmore

0000000000080148 <.bss_cleared>:
   80148:	d2801c01 	mov	x1, #0xe0                  	// #224
   8014c:	58000a22 	ldr	x2, 80290 <StartSecondarySpin+0xe0>
   80150:	f9000022 	str	x2, [x1]
   80154:	d503209f 	sev
   80158:	58000543 	ldr	x3, 80200 <StartSecondarySpin+0x50>

000000000008015c <.WaitCore1ACK>:
   8015c:	b9400061 	ldr	w1, [x3]
   80160:	7100083f 	cmp	w1, #0x2
   80164:	54ffffc1 	b.ne	8015c <.WaitCore1ACK>  // b.any
   80168:	d2801d01 	mov	x1, #0xe8                  	// #232
   8016c:	58000922 	ldr	x2, 80290 <StartSecondarySpin+0xe0>
   80170:	f9000022 	str	x2, [x1]
   80174:	d503209f 	sev
   80178:	58000443 	ldr	x3, 80200 <StartSecondarySpin+0x50>

000000000008017c <.WaitCore2ACK>:
   8017c:	b9400061 	ldr	w1, [x3]
   80180:	71000c3f 	cmp	w1, #0x3
   80184:	54ffffc1 	b.ne	8017c <.WaitCore2ACK>  // b.any
   80188:	d2801e01 	mov	x1, #0xf0                  	// #240
   8018c:	58000822 	ldr	x2, 80290 <StartSecondarySpin+0xe0>
   80190:	f9000022 	str	x2, [x1]
   80194:	d503209f 	sev
   80198:	58000343 	ldr	x3, 80200 <StartSecondarySpin+0x50>

000000000008019c <.WaitCore3ACK>:
   8019c:	b9400061 	ldr	w1, [x3]
   801a0:	7100103f 	cmp	w1, #0x4
   801a4:	54ffffc1 	b.ne	8019c <.WaitCore3ACK>  // b.any
   801a8:	140007da 	b	82110 <main>

00000000000801ac <hang>:
   801ac:	14000000 	b	801ac <hang>

00000000000801b0 <StartSecondarySpin>:
   801b0:	d503205f 	wfe
   801b4:	d2801982 	mov	x2, #0xcc                  	// #204
   801b8:	f2a80002 	movk	x2, #0x4000, lsl #16
   801bc:	d53800a0 	mrs	x0, mpidr_el1
   801c0:	d37c0c00 	ubfiz	x0, x0, #4, #4
   801c4:	b8626801 	ldr	w1, [x0, x2]
   801c8:	34ffff41 	cbz	w1, 801b0 <StartSecondarySpin>
   801cc:	b8226801 	str	w1, [x0, x2]
   801d0:	2a0103e1 	mov	w1, w1
   801d4:	d5033fbf 	dmb	sy
   801d8:	d63f0020 	blr	x1
   801dc:	d5033fbf 	dmb	sy
   801e0:	17fffff4 	b	801b0 <StartSecondarySpin>
   801e4:	00000000 	.inst	0x00000000 ; undefined
   801e8:	00088844 	.word	0x00088844
   801ec:	00000000 	.word	0x00000000
   801f0:	3f000000 	.word	0x3f000000
   801f4:	00000000 	.word	0x00000000
   801f8:	00088840 	.word	0x00088840
   801fc:	00000000 	.word	0x00000000
   80200:	00088848 	.word	0x00088848
   80204:	00000000 	.word	0x00000000
   80208:	00088854 	.word	0x00088854
   8020c:	00000000 	.word	0x00000000
   80210:	00088850 	.word	0x00088850
   80214:	00000000 	.word	0x00000000
   80218:	00096200 	.word	0x00096200
   8021c:	00000000 	.word	0x00000000
   80220:	00095200 	.word	0x00095200
   80224:	00000000 	.word	0x00000000
   80228:	00091200 	.word	0x00091200
   8022c:	00000000 	.word	0x00000000
   80230:	00097600 	.word	0x00097600
   80234:	00000000 	.word	0x00000000
   80238:	00096600 	.word	0x00096600
   8023c:	00000000 	.word	0x00000000
   80240:	00096400 	.word	0x00096400
   80244:	00000000 	.word	0x00000000
   80248:	00098a00 	.word	0x00098a00
   8024c:	00000000 	.word	0x00000000
   80250:	00097a00 	.word	0x00097a00
   80254:	00000000 	.word	0x00000000
   80258:	00097800 	.word	0x00097800
   8025c:	00000000 	.word	0x00000000
   80260:	00099e00 	.word	0x00099e00
   80264:	00000000 	.word	0x00000000
   80268:	00098e00 	.word	0x00098e00
   8026c:	00000000 	.word	0x00000000
   80270:	00098c00 	.word	0x00098c00
   80274:	00000000 	.word	0x00000000
   80278:	00081800 	.word	0x00081800
   8027c:	00000000 	.word	0x00000000
   80280:	00091000 	.word	0x00091000
   80284:	00000000 	.word	0x00000000
   80288:	00089000 	.word	0x00089000
   8028c:	00000000 	.word	0x00000000
   80290:	00080058 	.word	0x00080058
   80294:	00000000 	.word	0x00000000

Disassembly of section .text:

0000000000080800 <setTimerIrqAddress>:
   80800:	d50342df 	msr	daifset, #0x2
   80804:	580000a1 	ldr	x1, 80818 <setTimerIrqAddress+0x18>
   80808:	f9400022 	ldr	x2, [x1]
   8080c:	f9000020 	str	x0, [x1]
   80810:	aa0203e0 	mov	x0, x2
   80814:	d65f03c0 	ret
   80818:	00088858 	.word	0x00088858
   8081c:	00000000 	.word	0x00000000

0000000000080820 <ARMaddrToGPUaddr>:
   80820:	d2b80001 	mov	x1, #0xc0000000            	// #3221225472
   80824:	aa010000 	orr	x0, x0, x1
   80828:	d65f03c0 	ret

000000000008082c <GPUaddrToARMaddr>:
   8082c:	d2b80001 	mov	x1, #0xc0000000            	// #3221225472
   80830:	8a210000 	bic	x0, x0, x1
   80834:	d65f03c0 	ret

0000000000080838 <PUT32>:
   80838:	b9000001 	str	w1, [x0]
   8083c:	d65f03c0 	ret

0000000000080840 <GetCoreID>:
   80840:	d53800a0 	mrs	x0, mpidr_el1
   80844:	92400400 	and	x0, x0, #0x3
   80848:	d65f03c0 	ret

000000000008084c <CoreExecute>:
   8084c:	d5033fbf 	dmb	sy
   80850:	90000042 	adrp	x2, 88000 <BitFont+0x948>
   80854:	b9484842 	ldr	w2, [x2, #2120]
   80858:	12001c00 	and	w0, w0, #0xff
   8085c:	6b02001f 	cmp	w0, w2
   80860:	54000122 	b.cs	80884 <CoreExecuteFail>  // b.hs, b.nlast
   80864:	d37e1c00 	ubfiz	x0, x0, #2, #8
   80868:	d2801182 	mov	x2, #0x8c                  	// #140
   8086c:	f2a80002 	movk	x2, #0x4000, lsl #16
   80870:	b8207841 	str	w1, [x2, x0, lsl #2]
   80874:	d503209f 	sev
   80878:	d5033fbf 	dmb	sy
   8087c:	52800020 	mov	w0, #0x1                   	// #1
   80880:	d65f03c0 	ret

0000000000080884 <CoreExecuteFail>:
   80884:	d5033fbf 	dmb	sy
   80888:	d2800000 	mov	x0, #0x0                   	// #0
   8088c:	d65f03c0 	ret

0000000000080890 <semaphore_inc>:
   80890:	52800022 	mov	w2, #0x1                   	// #1

0000000000080894 <.lockloop>:
   80894:	885ffc01 	ldaxr	w1, [x0]
   80898:	88037c02 	stxr	w3, w2, [x0]
   8089c:	35ffffc3 	cbnz	w3, 80894 <.lockloop>
   808a0:	35ffffa1 	cbnz	w1, 80894 <.lockloop>
   808a4:	d5033bbf 	dmb	ish
   808a8:	d65f03c0 	ret
	...

0000000000081000 <semaphore_dec>:
   81000:	089ffc1f 	stlrb	wzr, [x0]
   81004:	d5033bbf 	dmb	ish
   81008:	d65f03c0 	ret

000000000008100c <irq_handler>:
   8100c:	a9bf7bfd 	stp	x29, x30, [sp, #-16]!
   81010:	a9bf73fb 	stp	x27, x28, [sp, #-16]!
   81014:	a9bf6bf9 	stp	x25, x26, [sp, #-16]!
   81018:	a9bf63f7 	stp	x23, x24, [sp, #-16]!
   8101c:	a9bf5bf5 	stp	x21, x22, [sp, #-16]!
   81020:	a9bf53f3 	stp	x19, x20, [sp, #-16]!
   81024:	a9bf4bf1 	stp	x17, x18, [sp, #-16]!
   81028:	a9bf43ef 	stp	x15, x16, [sp, #-16]!
   8102c:	a9bf3bed 	stp	x13, x14, [sp, #-16]!
   81030:	a9bf33eb 	stp	x11, x12, [sp, #-16]!
   81034:	a9bf2be9 	stp	x9, x10, [sp, #-16]!
   81038:	a9bf23e7 	stp	x7, x8, [sp, #-16]!
   8103c:	a9bf1be5 	stp	x5, x6, [sp, #-16]!
   81040:	a9bf13e3 	stp	x3, x4, [sp, #-16]!
   81044:	a9bf0be1 	stp	x1, x2, [sp, #-16]!
   81048:	f81f0fe0 	str	x0, [sp, #-16]!
   8104c:	d5384001 	mrs	x1, spsr_el1
   81050:	d5384022 	mrs	x2, elr_el1
   81054:	a9bf0be1 	stp	x1, x2, [sp, #-16]!
   81058:	58007980 	ldr	x0, 81f88 <VectorTable+0x788>
   8105c:	b9400000 	ldr	w0, [x0]
   81060:	52964003 	mov	w3, #0xb200                	// #45568
   81064:	0b030001 	add	w1, w0, w3
   81068:	b9400022 	ldr	w2, [x1]
   8106c:	360000e2 	tbz	w2, #0, 81088 <.TimerIrqNotPending>
   81070:	52968002 	mov	w2, #0xb400                	// #46080
   81074:	0b020000 	add	w0, w0, w2
   81078:	b9000c02 	str	w2, [x0, #12]
   8107c:	b9400420 	ldr	w0, [x1, #4]
   81080:	121f7800 	and	w0, w0, #0xfffffffe
   81084:	b9000420 	str	w0, [x1, #4]

0000000000081088 <.TimerIrqNotPending>:
   81088:	d50342ff 	msr	daifclr, #0x2
   8108c:	58007820 	ldr	x0, 81f90 <VectorTable+0x790>
   81090:	f9400000 	ldr	x0, [x0]
   81094:	b4000060 	cbz	x0, 810a0 <no_irqset>
   81098:	d63f0000 	blr	x0
   8109c:	d50342df 	msr	daifset, #0x2

00000000000810a0 <no_irqset>:
   810a0:	a8c10be1 	ldp	x1, x2, [sp], #16
   810a4:	d5184022 	msr	elr_el1, x2
   810a8:	d5184001 	msr	spsr_el1, x1
   810ac:	f84107e0 	ldr	x0, [sp], #16
   810b0:	a8c10be1 	ldp	x1, x2, [sp], #16
   810b4:	a8c113e3 	ldp	x3, x4, [sp], #16
   810b8:	a8c11be5 	ldp	x5, x6, [sp], #16
   810bc:	a8c123e7 	ldp	x7, x8, [sp], #16
   810c0:	a8c12be9 	ldp	x9, x10, [sp], #16
   810c4:	a8c133eb 	ldp	x11, x12, [sp], #16
   810c8:	a8c13bed 	ldp	x13, x14, [sp], #16
   810cc:	a8c143ef 	ldp	x15, x16, [sp], #16
   810d0:	a8c14bf1 	ldp	x17, x18, [sp], #16
   810d4:	a8c153f3 	ldp	x19, x20, [sp], #16
   810d8:	a8c15bf5 	ldp	x21, x22, [sp], #16
   810dc:	a8c163f7 	ldp	x23, x24, [sp], #16
   810e0:	a8c16bf9 	ldp	x25, x26, [sp], #16
   810e4:	a8c173fb 	ldp	x27, x28, [sp], #16
   810e8:	a8c17bfd 	ldp	x29, x30, [sp], #16
   810ec:	d69f03e0 	eret
   810f0:	d503201f 	nop
   810f4:	d503201f 	nop
   810f8:	d503201f 	nop
   810fc:	d503201f 	nop
   81100:	d503201f 	nop
   81104:	d503201f 	nop
   81108:	d503201f 	nop
   8110c:	d503201f 	nop
   81110:	d503201f 	nop
   81114:	d503201f 	nop
   81118:	d503201f 	nop
   8111c:	d503201f 	nop
   81120:	d503201f 	nop
   81124:	d503201f 	nop
   81128:	d503201f 	nop
   8112c:	d503201f 	nop
   81130:	d503201f 	nop
   81134:	d503201f 	nop
   81138:	d503201f 	nop
   8113c:	d503201f 	nop
   81140:	d503201f 	nop
   81144:	d503201f 	nop
   81148:	d503201f 	nop
   8114c:	d503201f 	nop
   81150:	d503201f 	nop
   81154:	d503201f 	nop
   81158:	d503201f 	nop
   8115c:	d503201f 	nop
   81160:	d503201f 	nop
   81164:	d503201f 	nop
   81168:	d503201f 	nop
   8116c:	d503201f 	nop
   81170:	d503201f 	nop
   81174:	d503201f 	nop
   81178:	d503201f 	nop
   8117c:	d503201f 	nop
   81180:	d503201f 	nop
   81184:	d503201f 	nop
   81188:	d503201f 	nop
   8118c:	d503201f 	nop
   81190:	d503201f 	nop
   81194:	d503201f 	nop
   81198:	d503201f 	nop
   8119c:	d503201f 	nop
   811a0:	d503201f 	nop
   811a4:	d503201f 	nop
   811a8:	d503201f 	nop
   811ac:	d503201f 	nop
   811b0:	d503201f 	nop
   811b4:	d503201f 	nop
   811b8:	d503201f 	nop
   811bc:	d503201f 	nop
   811c0:	d503201f 	nop
   811c4:	d503201f 	nop
   811c8:	d503201f 	nop
   811cc:	d503201f 	nop
   811d0:	d503201f 	nop
   811d4:	d503201f 	nop
   811d8:	d503201f 	nop
   811dc:	d503201f 	nop
   811e0:	d503201f 	nop
   811e4:	d503201f 	nop
   811e8:	d503201f 	nop
   811ec:	d503201f 	nop
   811f0:	d503201f 	nop
   811f4:	d503201f 	nop
   811f8:	d503201f 	nop
   811fc:	d503201f 	nop
   81200:	d503201f 	nop
   81204:	d503201f 	nop
   81208:	d503201f 	nop
   8120c:	d503201f 	nop
   81210:	d503201f 	nop
   81214:	d503201f 	nop
   81218:	d503201f 	nop
   8121c:	d503201f 	nop
   81220:	d503201f 	nop
   81224:	d503201f 	nop
   81228:	d503201f 	nop
   8122c:	d503201f 	nop
   81230:	d503201f 	nop
   81234:	d503201f 	nop
   81238:	d503201f 	nop
   8123c:	d503201f 	nop
   81240:	d503201f 	nop
   81244:	d503201f 	nop
   81248:	d503201f 	nop
   8124c:	d503201f 	nop
   81250:	d503201f 	nop
   81254:	d503201f 	nop
   81258:	d503201f 	nop
   8125c:	d503201f 	nop
   81260:	d503201f 	nop
   81264:	d503201f 	nop
   81268:	d503201f 	nop
   8126c:	d503201f 	nop
   81270:	d503201f 	nop
   81274:	d503201f 	nop
   81278:	d503201f 	nop
   8127c:	d503201f 	nop
   81280:	d503201f 	nop
   81284:	d503201f 	nop
   81288:	d503201f 	nop
   8128c:	d503201f 	nop
   81290:	d503201f 	nop
   81294:	d503201f 	nop
   81298:	d503201f 	nop
   8129c:	d503201f 	nop
   812a0:	d503201f 	nop
   812a4:	d503201f 	nop
   812a8:	d503201f 	nop
   812ac:	d503201f 	nop
   812b0:	d503201f 	nop
   812b4:	d503201f 	nop
   812b8:	d503201f 	nop
   812bc:	d503201f 	nop
   812c0:	d503201f 	nop
   812c4:	d503201f 	nop
   812c8:	d503201f 	nop
   812cc:	d503201f 	nop
   812d0:	d503201f 	nop
   812d4:	d503201f 	nop
   812d8:	d503201f 	nop
   812dc:	d503201f 	nop
   812e0:	d503201f 	nop
   812e4:	d503201f 	nop
   812e8:	d503201f 	nop
   812ec:	d503201f 	nop
   812f0:	d503201f 	nop
   812f4:	d503201f 	nop
   812f8:	d503201f 	nop
   812fc:	d503201f 	nop
   81300:	d503201f 	nop
   81304:	d503201f 	nop
   81308:	d503201f 	nop
   8130c:	d503201f 	nop
   81310:	d503201f 	nop
   81314:	d503201f 	nop
   81318:	d503201f 	nop
   8131c:	d503201f 	nop
   81320:	d503201f 	nop
   81324:	d503201f 	nop
   81328:	d503201f 	nop
   8132c:	d503201f 	nop
   81330:	d503201f 	nop
   81334:	d503201f 	nop
   81338:	d503201f 	nop
   8133c:	d503201f 	nop
   81340:	d503201f 	nop
   81344:	d503201f 	nop
   81348:	d503201f 	nop
   8134c:	d503201f 	nop
   81350:	d503201f 	nop
   81354:	d503201f 	nop
   81358:	d503201f 	nop
   8135c:	d503201f 	nop
   81360:	d503201f 	nop
   81364:	d503201f 	nop
   81368:	d503201f 	nop
   8136c:	d503201f 	nop
   81370:	d503201f 	nop
   81374:	d503201f 	nop
   81378:	d503201f 	nop
   8137c:	d503201f 	nop
   81380:	d503201f 	nop
   81384:	d503201f 	nop
   81388:	d503201f 	nop
   8138c:	d503201f 	nop
   81390:	d503201f 	nop
   81394:	d503201f 	nop
   81398:	d503201f 	nop
   8139c:	d503201f 	nop
   813a0:	d503201f 	nop
   813a4:	d503201f 	nop
   813a8:	d503201f 	nop
   813ac:	d503201f 	nop
   813b0:	d503201f 	nop
   813b4:	d503201f 	nop
   813b8:	d503201f 	nop
   813bc:	d503201f 	nop
   813c0:	d503201f 	nop
   813c4:	d503201f 	nop
   813c8:	d503201f 	nop
   813cc:	d503201f 	nop
   813d0:	d503201f 	nop
   813d4:	d503201f 	nop
   813d8:	d503201f 	nop
   813dc:	d503201f 	nop
   813e0:	d503201f 	nop
   813e4:	d503201f 	nop
   813e8:	d503201f 	nop
   813ec:	d503201f 	nop
   813f0:	d503201f 	nop
   813f4:	d503201f 	nop
   813f8:	d503201f 	nop
   813fc:	d503201f 	nop
   81400:	d503201f 	nop
   81404:	d503201f 	nop
   81408:	d503201f 	nop
   8140c:	d503201f 	nop
   81410:	d503201f 	nop
   81414:	d503201f 	nop
   81418:	d503201f 	nop
   8141c:	d503201f 	nop
   81420:	d503201f 	nop
   81424:	d503201f 	nop
   81428:	d503201f 	nop
   8142c:	d503201f 	nop
   81430:	d503201f 	nop
   81434:	d503201f 	nop
   81438:	d503201f 	nop
   8143c:	d503201f 	nop
   81440:	d503201f 	nop
   81444:	d503201f 	nop
   81448:	d503201f 	nop
   8144c:	d503201f 	nop
   81450:	d503201f 	nop
   81454:	d503201f 	nop
   81458:	d503201f 	nop
   8145c:	d503201f 	nop
   81460:	d503201f 	nop
   81464:	d503201f 	nop
   81468:	d503201f 	nop
   8146c:	d503201f 	nop
   81470:	d503201f 	nop
   81474:	d503201f 	nop
   81478:	d503201f 	nop
   8147c:	d503201f 	nop
   81480:	d503201f 	nop
   81484:	d503201f 	nop
   81488:	d503201f 	nop
   8148c:	d503201f 	nop
   81490:	d503201f 	nop
   81494:	d503201f 	nop
   81498:	d503201f 	nop
   8149c:	d503201f 	nop
   814a0:	d503201f 	nop
   814a4:	d503201f 	nop
   814a8:	d503201f 	nop
   814ac:	d503201f 	nop
   814b0:	d503201f 	nop
   814b4:	d503201f 	nop
   814b8:	d503201f 	nop
   814bc:	d503201f 	nop
   814c0:	d503201f 	nop
   814c4:	d503201f 	nop
   814c8:	d503201f 	nop
   814cc:	d503201f 	nop
   814d0:	d503201f 	nop
   814d4:	d503201f 	nop
   814d8:	d503201f 	nop
   814dc:	d503201f 	nop
   814e0:	d503201f 	nop
   814e4:	d503201f 	nop
   814e8:	d503201f 	nop
   814ec:	d503201f 	nop
   814f0:	d503201f 	nop
   814f4:	d503201f 	nop
   814f8:	d503201f 	nop
   814fc:	d503201f 	nop
   81500:	d503201f 	nop
   81504:	d503201f 	nop
   81508:	d503201f 	nop
   8150c:	d503201f 	nop
   81510:	d503201f 	nop
   81514:	d503201f 	nop
   81518:	d503201f 	nop
   8151c:	d503201f 	nop
   81520:	d503201f 	nop
   81524:	d503201f 	nop
   81528:	d503201f 	nop
   8152c:	d503201f 	nop
   81530:	d503201f 	nop
   81534:	d503201f 	nop
   81538:	d503201f 	nop
   8153c:	d503201f 	nop
   81540:	d503201f 	nop
   81544:	d503201f 	nop
   81548:	d503201f 	nop
   8154c:	d503201f 	nop
   81550:	d503201f 	nop
   81554:	d503201f 	nop
   81558:	d503201f 	nop
   8155c:	d503201f 	nop
   81560:	d503201f 	nop
   81564:	d503201f 	nop
   81568:	d503201f 	nop
   8156c:	d503201f 	nop
   81570:	d503201f 	nop
   81574:	d503201f 	nop
   81578:	d503201f 	nop
   8157c:	d503201f 	nop
   81580:	d503201f 	nop
   81584:	d503201f 	nop
   81588:	d503201f 	nop
   8158c:	d503201f 	nop
   81590:	d503201f 	nop
   81594:	d503201f 	nop
   81598:	d503201f 	nop
   8159c:	d503201f 	nop
   815a0:	d503201f 	nop
   815a4:	d503201f 	nop
   815a8:	d503201f 	nop
   815ac:	d503201f 	nop
   815b0:	d503201f 	nop
   815b4:	d503201f 	nop
   815b8:	d503201f 	nop
   815bc:	d503201f 	nop
   815c0:	d503201f 	nop
   815c4:	d503201f 	nop
   815c8:	d503201f 	nop
   815cc:	d503201f 	nop
   815d0:	d503201f 	nop
   815d4:	d503201f 	nop
   815d8:	d503201f 	nop
   815dc:	d503201f 	nop
   815e0:	d503201f 	nop
   815e4:	d503201f 	nop
   815e8:	d503201f 	nop
   815ec:	d503201f 	nop
   815f0:	d503201f 	nop
   815f4:	d503201f 	nop
   815f8:	d503201f 	nop
   815fc:	d503201f 	nop
   81600:	d503201f 	nop
   81604:	d503201f 	nop
   81608:	d503201f 	nop
   8160c:	d503201f 	nop
   81610:	d503201f 	nop
   81614:	d503201f 	nop
   81618:	d503201f 	nop
   8161c:	d503201f 	nop
   81620:	d503201f 	nop
   81624:	d503201f 	nop
   81628:	d503201f 	nop
   8162c:	d503201f 	nop
   81630:	d503201f 	nop
   81634:	d503201f 	nop
   81638:	d503201f 	nop
   8163c:	d503201f 	nop
   81640:	d503201f 	nop
   81644:	d503201f 	nop
   81648:	d503201f 	nop
   8164c:	d503201f 	nop
   81650:	d503201f 	nop
   81654:	d503201f 	nop
   81658:	d503201f 	nop
   8165c:	d503201f 	nop
   81660:	d503201f 	nop
   81664:	d503201f 	nop
   81668:	d503201f 	nop
   8166c:	d503201f 	nop
   81670:	d503201f 	nop
   81674:	d503201f 	nop
   81678:	d503201f 	nop
   8167c:	d503201f 	nop
   81680:	d503201f 	nop
   81684:	d503201f 	nop
   81688:	d503201f 	nop
   8168c:	d503201f 	nop
   81690:	d503201f 	nop
   81694:	d503201f 	nop
   81698:	d503201f 	nop
   8169c:	d503201f 	nop
   816a0:	d503201f 	nop
   816a4:	d503201f 	nop
   816a8:	d503201f 	nop
   816ac:	d503201f 	nop
   816b0:	d503201f 	nop
   816b4:	d503201f 	nop
   816b8:	d503201f 	nop
   816bc:	d503201f 	nop
   816c0:	d503201f 	nop
   816c4:	d503201f 	nop
   816c8:	d503201f 	nop
   816cc:	d503201f 	nop
   816d0:	d503201f 	nop
   816d4:	d503201f 	nop
   816d8:	d503201f 	nop
   816dc:	d503201f 	nop
   816e0:	d503201f 	nop
   816e4:	d503201f 	nop
   816e8:	d503201f 	nop
   816ec:	d503201f 	nop
   816f0:	d503201f 	nop
   816f4:	d503201f 	nop
   816f8:	d503201f 	nop
   816fc:	d503201f 	nop
   81700:	d503201f 	nop
   81704:	d503201f 	nop
   81708:	d503201f 	nop
   8170c:	d503201f 	nop
   81710:	d503201f 	nop
   81714:	d503201f 	nop
   81718:	d503201f 	nop
   8171c:	d503201f 	nop
   81720:	d503201f 	nop
   81724:	d503201f 	nop
   81728:	d503201f 	nop
   8172c:	d503201f 	nop
   81730:	d503201f 	nop
   81734:	d503201f 	nop
   81738:	d503201f 	nop
   8173c:	d503201f 	nop
   81740:	d503201f 	nop
   81744:	d503201f 	nop
   81748:	d503201f 	nop
   8174c:	d503201f 	nop
   81750:	d503201f 	nop
   81754:	d503201f 	nop
   81758:	d503201f 	nop
   8175c:	d503201f 	nop
   81760:	d503201f 	nop
   81764:	d503201f 	nop
   81768:	d503201f 	nop
   8176c:	d503201f 	nop
   81770:	d503201f 	nop
   81774:	d503201f 	nop
   81778:	d503201f 	nop
   8177c:	d503201f 	nop
   81780:	d503201f 	nop
   81784:	d503201f 	nop
   81788:	d503201f 	nop
   8178c:	d503201f 	nop
   81790:	d503201f 	nop
   81794:	d503201f 	nop
   81798:	d503201f 	nop
   8179c:	d503201f 	nop
   817a0:	d503201f 	nop
   817a4:	d503201f 	nop
   817a8:	d503201f 	nop
   817ac:	d503201f 	nop
   817b0:	d503201f 	nop
   817b4:	d503201f 	nop
   817b8:	d503201f 	nop
   817bc:	d503201f 	nop
   817c0:	d503201f 	nop
   817c4:	d503201f 	nop
   817c8:	d503201f 	nop
   817cc:	d503201f 	nop
   817d0:	d503201f 	nop
   817d4:	d503201f 	nop
   817d8:	d503201f 	nop
   817dc:	d503201f 	nop
   817e0:	d503201f 	nop
   817e4:	d503201f 	nop
   817e8:	d503201f 	nop
   817ec:	d503201f 	nop
   817f0:	d503201f 	nop
   817f4:	d503201f 	nop
   817f8:	d503201f 	nop
   817fc:	d503201f 	nop

0000000000081800 <VectorTable>:
   81800:	17fffa00 	b	80000 <_start>
   81804:	d503201f 	nop
   81808:	d503201f 	nop
   8180c:	d503201f 	nop
   81810:	d503201f 	nop
   81814:	d503201f 	nop
   81818:	d503201f 	nop
   8181c:	d503201f 	nop
   81820:	d503201f 	nop
   81824:	d503201f 	nop
   81828:	d503201f 	nop
   8182c:	d503201f 	nop
   81830:	d503201f 	nop
   81834:	d503201f 	nop
   81838:	d503201f 	nop
   8183c:	d503201f 	nop
   81840:	d503201f 	nop
   81844:	d503201f 	nop
   81848:	d503201f 	nop
   8184c:	d503201f 	nop
   81850:	d503201f 	nop
   81854:	d503201f 	nop
   81858:	d503201f 	nop
   8185c:	d503201f 	nop
   81860:	d503201f 	nop
   81864:	d503201f 	nop
   81868:	d503201f 	nop
   8186c:	d503201f 	nop
   81870:	d503201f 	nop
   81874:	d503201f 	nop
   81878:	d503201f 	nop
   8187c:	d503201f 	nop
   81880:	17fffa4b 	b	801ac <hang>
   81884:	d503201f 	nop
   81888:	d503201f 	nop
   8188c:	d503201f 	nop
   81890:	d503201f 	nop
   81894:	d503201f 	nop
   81898:	d503201f 	nop
   8189c:	d503201f 	nop
   818a0:	d503201f 	nop
   818a4:	d503201f 	nop
   818a8:	d503201f 	nop
   818ac:	d503201f 	nop
   818b0:	d503201f 	nop
   818b4:	d503201f 	nop
   818b8:	d503201f 	nop
   818bc:	d503201f 	nop
   818c0:	d503201f 	nop
   818c4:	d503201f 	nop
   818c8:	d503201f 	nop
   818cc:	d503201f 	nop
   818d0:	d503201f 	nop
   818d4:	d503201f 	nop
   818d8:	d503201f 	nop
   818dc:	d503201f 	nop
   818e0:	d503201f 	nop
   818e4:	d503201f 	nop
   818e8:	d503201f 	nop
   818ec:	d503201f 	nop
   818f0:	d503201f 	nop
   818f4:	d503201f 	nop
   818f8:	d503201f 	nop
   818fc:	d503201f 	nop
   81900:	17fffa2b 	b	801ac <hang>
   81904:	d503201f 	nop
   81908:	d503201f 	nop
   8190c:	d503201f 	nop
   81910:	d503201f 	nop
   81914:	d503201f 	nop
   81918:	d503201f 	nop
   8191c:	d503201f 	nop
   81920:	d503201f 	nop
   81924:	d503201f 	nop
   81928:	d503201f 	nop
   8192c:	d503201f 	nop
   81930:	d503201f 	nop
   81934:	d503201f 	nop
   81938:	d503201f 	nop
   8193c:	d503201f 	nop
   81940:	d503201f 	nop
   81944:	d503201f 	nop
   81948:	d503201f 	nop
   8194c:	d503201f 	nop
   81950:	d503201f 	nop
   81954:	d503201f 	nop
   81958:	d503201f 	nop
   8195c:	d503201f 	nop
   81960:	d503201f 	nop
   81964:	d503201f 	nop
   81968:	d503201f 	nop
   8196c:	d503201f 	nop
   81970:	d503201f 	nop
   81974:	d503201f 	nop
   81978:	d503201f 	nop
   8197c:	d503201f 	nop
   81980:	17fffa0b 	b	801ac <hang>
   81984:	d503201f 	nop
   81988:	d503201f 	nop
   8198c:	d503201f 	nop
   81990:	d503201f 	nop
   81994:	d503201f 	nop
   81998:	d503201f 	nop
   8199c:	d503201f 	nop
   819a0:	d503201f 	nop
   819a4:	d503201f 	nop
   819a8:	d503201f 	nop
   819ac:	d503201f 	nop
   819b0:	d503201f 	nop
   819b4:	d503201f 	nop
   819b8:	d503201f 	nop
   819bc:	d503201f 	nop
   819c0:	d503201f 	nop
   819c4:	d503201f 	nop
   819c8:	d503201f 	nop
   819cc:	d503201f 	nop
   819d0:	d503201f 	nop
   819d4:	d503201f 	nop
   819d8:	d503201f 	nop
   819dc:	d503201f 	nop
   819e0:	d503201f 	nop
   819e4:	d503201f 	nop
   819e8:	d503201f 	nop
   819ec:	d503201f 	nop
   819f0:	d503201f 	nop
   819f4:	d503201f 	nop
   819f8:	d503201f 	nop
   819fc:	d503201f 	nop
   81a00:	17fff9eb 	b	801ac <hang>
   81a04:	d503201f 	nop
   81a08:	d503201f 	nop
   81a0c:	d503201f 	nop
   81a10:	d503201f 	nop
   81a14:	d503201f 	nop
   81a18:	d503201f 	nop
   81a1c:	d503201f 	nop
   81a20:	d503201f 	nop
   81a24:	d503201f 	nop
   81a28:	d503201f 	nop
   81a2c:	d503201f 	nop
   81a30:	d503201f 	nop
   81a34:	d503201f 	nop
   81a38:	d503201f 	nop
   81a3c:	d503201f 	nop
   81a40:	d503201f 	nop
   81a44:	d503201f 	nop
   81a48:	d503201f 	nop
   81a4c:	d503201f 	nop
   81a50:	d503201f 	nop
   81a54:	d503201f 	nop
   81a58:	d503201f 	nop
   81a5c:	d503201f 	nop
   81a60:	d503201f 	nop
   81a64:	d503201f 	nop
   81a68:	d503201f 	nop
   81a6c:	d503201f 	nop
   81a70:	d503201f 	nop
   81a74:	d503201f 	nop
   81a78:	d503201f 	nop
   81a7c:	d503201f 	nop
   81a80:	17fffd63 	b	8100c <irq_handler>
   81a84:	d503201f 	nop
   81a88:	d503201f 	nop
   81a8c:	d503201f 	nop
   81a90:	d503201f 	nop
   81a94:	d503201f 	nop
   81a98:	d503201f 	nop
   81a9c:	d503201f 	nop
   81aa0:	d503201f 	nop
   81aa4:	d503201f 	nop
   81aa8:	d503201f 	nop
   81aac:	d503201f 	nop
   81ab0:	d503201f 	nop
   81ab4:	d503201f 	nop
   81ab8:	d503201f 	nop
   81abc:	d503201f 	nop
   81ac0:	d503201f 	nop
   81ac4:	d503201f 	nop
   81ac8:	d503201f 	nop
   81acc:	d503201f 	nop
   81ad0:	d503201f 	nop
   81ad4:	d503201f 	nop
   81ad8:	d503201f 	nop
   81adc:	d503201f 	nop
   81ae0:	d503201f 	nop
   81ae4:	d503201f 	nop
   81ae8:	d503201f 	nop
   81aec:	d503201f 	nop
   81af0:	d503201f 	nop
   81af4:	d503201f 	nop
   81af8:	d503201f 	nop
   81afc:	d503201f 	nop
   81b00:	17fff9ab 	b	801ac <hang>
   81b04:	d503201f 	nop
   81b08:	d503201f 	nop
   81b0c:	d503201f 	nop
   81b10:	d503201f 	nop
   81b14:	d503201f 	nop
   81b18:	d503201f 	nop
   81b1c:	d503201f 	nop
   81b20:	d503201f 	nop
   81b24:	d503201f 	nop
   81b28:	d503201f 	nop
   81b2c:	d503201f 	nop
   81b30:	d503201f 	nop
   81b34:	d503201f 	nop
   81b38:	d503201f 	nop
   81b3c:	d503201f 	nop
   81b40:	d503201f 	nop
   81b44:	d503201f 	nop
   81b48:	d503201f 	nop
   81b4c:	d503201f 	nop
   81b50:	d503201f 	nop
   81b54:	d503201f 	nop
   81b58:	d503201f 	nop
   81b5c:	d503201f 	nop
   81b60:	d503201f 	nop
   81b64:	d503201f 	nop
   81b68:	d503201f 	nop
   81b6c:	d503201f 	nop
   81b70:	d503201f 	nop
   81b74:	d503201f 	nop
   81b78:	d503201f 	nop
   81b7c:	d503201f 	nop
   81b80:	17fff98b 	b	801ac <hang>
   81b84:	d503201f 	nop
   81b88:	d503201f 	nop
   81b8c:	d503201f 	nop
   81b90:	d503201f 	nop
   81b94:	d503201f 	nop
   81b98:	d503201f 	nop
   81b9c:	d503201f 	nop
   81ba0:	d503201f 	nop
   81ba4:	d503201f 	nop
   81ba8:	d503201f 	nop
   81bac:	d503201f 	nop
   81bb0:	d503201f 	nop
   81bb4:	d503201f 	nop
   81bb8:	d503201f 	nop
   81bbc:	d503201f 	nop
   81bc0:	d503201f 	nop
   81bc4:	d503201f 	nop
   81bc8:	d503201f 	nop
   81bcc:	d503201f 	nop
   81bd0:	d503201f 	nop
   81bd4:	d503201f 	nop
   81bd8:	d503201f 	nop
   81bdc:	d503201f 	nop
   81be0:	d503201f 	nop
   81be4:	d503201f 	nop
   81be8:	d503201f 	nop
   81bec:	d503201f 	nop
   81bf0:	d503201f 	nop
   81bf4:	d503201f 	nop
   81bf8:	d503201f 	nop
   81bfc:	d503201f 	nop
   81c00:	17fff96b 	b	801ac <hang>
   81c04:	d503201f 	nop
   81c08:	d503201f 	nop
   81c0c:	d503201f 	nop
   81c10:	d503201f 	nop
   81c14:	d503201f 	nop
   81c18:	d503201f 	nop
   81c1c:	d503201f 	nop
   81c20:	d503201f 	nop
   81c24:	d503201f 	nop
   81c28:	d503201f 	nop
   81c2c:	d503201f 	nop
   81c30:	d503201f 	nop
   81c34:	d503201f 	nop
   81c38:	d503201f 	nop
   81c3c:	d503201f 	nop
   81c40:	d503201f 	nop
   81c44:	d503201f 	nop
   81c48:	d503201f 	nop
   81c4c:	d503201f 	nop
   81c50:	d503201f 	nop
   81c54:	d503201f 	nop
   81c58:	d503201f 	nop
   81c5c:	d503201f 	nop
   81c60:	d503201f 	nop
   81c64:	d503201f 	nop
   81c68:	d503201f 	nop
   81c6c:	d503201f 	nop
   81c70:	d503201f 	nop
   81c74:	d503201f 	nop
   81c78:	d503201f 	nop
   81c7c:	d503201f 	nop
   81c80:	17fff94b 	b	801ac <hang>
   81c84:	d503201f 	nop
   81c88:	d503201f 	nop
   81c8c:	d503201f 	nop
   81c90:	d503201f 	nop
   81c94:	d503201f 	nop
   81c98:	d503201f 	nop
   81c9c:	d503201f 	nop
   81ca0:	d503201f 	nop
   81ca4:	d503201f 	nop
   81ca8:	d503201f 	nop
   81cac:	d503201f 	nop
   81cb0:	d503201f 	nop
   81cb4:	d503201f 	nop
   81cb8:	d503201f 	nop
   81cbc:	d503201f 	nop
   81cc0:	d503201f 	nop
   81cc4:	d503201f 	nop
   81cc8:	d503201f 	nop
   81ccc:	d503201f 	nop
   81cd0:	d503201f 	nop
   81cd4:	d503201f 	nop
   81cd8:	d503201f 	nop
   81cdc:	d503201f 	nop
   81ce0:	d503201f 	nop
   81ce4:	d503201f 	nop
   81ce8:	d503201f 	nop
   81cec:	d503201f 	nop
   81cf0:	d503201f 	nop
   81cf4:	d503201f 	nop
   81cf8:	d503201f 	nop
   81cfc:	d503201f 	nop
   81d00:	17fff92b 	b	801ac <hang>
   81d04:	d503201f 	nop
   81d08:	d503201f 	nop
   81d0c:	d503201f 	nop
   81d10:	d503201f 	nop
   81d14:	d503201f 	nop
   81d18:	d503201f 	nop
   81d1c:	d503201f 	nop
   81d20:	d503201f 	nop
   81d24:	d503201f 	nop
   81d28:	d503201f 	nop
   81d2c:	d503201f 	nop
   81d30:	d503201f 	nop
   81d34:	d503201f 	nop
   81d38:	d503201f 	nop
   81d3c:	d503201f 	nop
   81d40:	d503201f 	nop
   81d44:	d503201f 	nop
   81d48:	d503201f 	nop
   81d4c:	d503201f 	nop
   81d50:	d503201f 	nop
   81d54:	d503201f 	nop
   81d58:	d503201f 	nop
   81d5c:	d503201f 	nop
   81d60:	d503201f 	nop
   81d64:	d503201f 	nop
   81d68:	d503201f 	nop
   81d6c:	d503201f 	nop
   81d70:	d503201f 	nop
   81d74:	d503201f 	nop
   81d78:	d503201f 	nop
   81d7c:	d503201f 	nop
   81d80:	17fff90b 	b	801ac <hang>
   81d84:	d503201f 	nop
   81d88:	d503201f 	nop
   81d8c:	d503201f 	nop
   81d90:	d503201f 	nop
   81d94:	d503201f 	nop
   81d98:	d503201f 	nop
   81d9c:	d503201f 	nop
   81da0:	d503201f 	nop
   81da4:	d503201f 	nop
   81da8:	d503201f 	nop
   81dac:	d503201f 	nop
   81db0:	d503201f 	nop
   81db4:	d503201f 	nop
   81db8:	d503201f 	nop
   81dbc:	d503201f 	nop
   81dc0:	d503201f 	nop
   81dc4:	d503201f 	nop
   81dc8:	d503201f 	nop
   81dcc:	d503201f 	nop
   81dd0:	d503201f 	nop
   81dd4:	d503201f 	nop
   81dd8:	d503201f 	nop
   81ddc:	d503201f 	nop
   81de0:	d503201f 	nop
   81de4:	d503201f 	nop
   81de8:	d503201f 	nop
   81dec:	d503201f 	nop
   81df0:	d503201f 	nop
   81df4:	d503201f 	nop
   81df8:	d503201f 	nop
   81dfc:	d503201f 	nop
   81e00:	17fff8eb 	b	801ac <hang>
   81e04:	d503201f 	nop
   81e08:	d503201f 	nop
   81e0c:	d503201f 	nop
   81e10:	d503201f 	nop
   81e14:	d503201f 	nop
   81e18:	d503201f 	nop
   81e1c:	d503201f 	nop
   81e20:	d503201f 	nop
   81e24:	d503201f 	nop
   81e28:	d503201f 	nop
   81e2c:	d503201f 	nop
   81e30:	d503201f 	nop
   81e34:	d503201f 	nop
   81e38:	d503201f 	nop
   81e3c:	d503201f 	nop
   81e40:	d503201f 	nop
   81e44:	d503201f 	nop
   81e48:	d503201f 	nop
   81e4c:	d503201f 	nop
   81e50:	d503201f 	nop
   81e54:	d503201f 	nop
   81e58:	d503201f 	nop
   81e5c:	d503201f 	nop
   81e60:	d503201f 	nop
   81e64:	d503201f 	nop
   81e68:	d503201f 	nop
   81e6c:	d503201f 	nop
   81e70:	d503201f 	nop
   81e74:	d503201f 	nop
   81e78:	d503201f 	nop
   81e7c:	d503201f 	nop
   81e80:	17fff8cb 	b	801ac <hang>
   81e84:	d503201f 	nop
   81e88:	d503201f 	nop
   81e8c:	d503201f 	nop
   81e90:	d503201f 	nop
   81e94:	d503201f 	nop
   81e98:	d503201f 	nop
   81e9c:	d503201f 	nop
   81ea0:	d503201f 	nop
   81ea4:	d503201f 	nop
   81ea8:	d503201f 	nop
   81eac:	d503201f 	nop
   81eb0:	d503201f 	nop
   81eb4:	d503201f 	nop
   81eb8:	d503201f 	nop
   81ebc:	d503201f 	nop
   81ec0:	d503201f 	nop
   81ec4:	d503201f 	nop
   81ec8:	d503201f 	nop
   81ecc:	d503201f 	nop
   81ed0:	d503201f 	nop
   81ed4:	d503201f 	nop
   81ed8:	d503201f 	nop
   81edc:	d503201f 	nop
   81ee0:	d503201f 	nop
   81ee4:	d503201f 	nop
   81ee8:	d503201f 	nop
   81eec:	d503201f 	nop
   81ef0:	d503201f 	nop
   81ef4:	d503201f 	nop
   81ef8:	d503201f 	nop
   81efc:	d503201f 	nop
   81f00:	17fff8ab 	b	801ac <hang>
   81f04:	d503201f 	nop
   81f08:	d503201f 	nop
   81f0c:	d503201f 	nop
   81f10:	d503201f 	nop
   81f14:	d503201f 	nop
   81f18:	d503201f 	nop
   81f1c:	d503201f 	nop
   81f20:	d503201f 	nop
   81f24:	d503201f 	nop
   81f28:	d503201f 	nop
   81f2c:	d503201f 	nop
   81f30:	d503201f 	nop
   81f34:	d503201f 	nop
   81f38:	d503201f 	nop
   81f3c:	d503201f 	nop
   81f40:	d503201f 	nop
   81f44:	d503201f 	nop
   81f48:	d503201f 	nop
   81f4c:	d503201f 	nop
   81f50:	d503201f 	nop
   81f54:	d503201f 	nop
   81f58:	d503201f 	nop
   81f5c:	d503201f 	nop
   81f60:	d503201f 	nop
   81f64:	d503201f 	nop
   81f68:	d503201f 	nop
   81f6c:	d503201f 	nop
   81f70:	d503201f 	nop
   81f74:	d503201f 	nop
   81f78:	d503201f 	nop
   81f7c:	d503201f 	nop
   81f80:	17fff88b 	b	801ac <hang>
   81f84:	00000000 	.inst	0x00000000 ; undefined
   81f88:	00088840 	.word	0x00088840
   81f8c:	00000000 	.word	0x00000000
   81f90:	00088858 	.word	0x00088858
   81f94:	00000000 	.word	0x00000000

0000000000081f98 <Check_Semaphore>:
   81f98:	f81f0ffe 	str	x30, [sp, #-16]!
   81f9c:	97fffa29 	bl	80840 <GetCoreID>
   81fa0:	12001c01 	and	w1, w0, #0xff
   81fa4:	b0000042 	adrp	x2, 8a000 <table_loaded>
   81fa8:	d0000020 	adrp	x0, 87000 <init_page_table+0x2a8>
   81fac:	91112000 	add	x0, x0, #0x448
   81fb0:	b9400042 	ldr	w2, [x2]
   81fb4:	94000ea1 	bl	85a38 <printf>
   81fb8:	f84107fe 	ldr	x30, [sp], #16
   81fbc:	90000040 	adrp	x0, 89000 <__bss_start__>
   81fc0:	91000000 	add	x0, x0, #0x0
   81fc4:	17fffc0f 	b	81000 <semaphore_dec>

0000000000081fc8 <Core_SayHello>:
   81fc8:	a9be53f3 	stp	x19, x20, [sp, #-32]!
   81fcc:	90000053 	adrp	x19, 89000 <__bss_start__>
   81fd0:	91000273 	add	x19, x19, #0x0
   81fd4:	91001274 	add	x20, x19, #0x4
   81fd8:	f9000bfe 	str	x30, [sp, #16]
   81fdc:	aa1403e0 	mov	x0, x20
   81fe0:	97fffa2c 	bl	80890 <semaphore_inc>
   81fe4:	97fffa17 	bl	80840 <GetCoreID>
   81fe8:	12001c01 	and	w1, w0, #0xff
   81fec:	d0000022 	adrp	x2, 87000 <init_page_table+0x2a8>
   81ff0:	9111e040 	add	x0, x2, #0x478
   81ff4:	94000e91 	bl	85a38 <printf>
   81ff8:	b9400a61 	ldr	w1, [x19, #8]
   81ffc:	aa1403e0 	mov	x0, x20
   82000:	f9400bfe 	ldr	x30, [sp, #16]
   82004:	11000421 	add	w1, w1, #0x1
   82008:	b9000a61 	str	w1, [x19, #8]
   8200c:	a8c253f3 	ldp	x19, x20, [sp], #32
   82010:	17fffbfc 	b	81000 <semaphore_dec>
   82014:	d503201f 	nop

0000000000082018 <Core1_RunLED>:
   82018:	a9b953f3 	stp	x19, x20, [sp, #-112]!
   8201c:	d2800114 	mov	x20, #0x8                   	// #8
   82020:	f2c01054 	movk	x20, #0x82, lsl #32
   82024:	a9015bf5 	stp	x21, x22, [sp, #16]
   82028:	910143f3 	add	x19, sp, #0x50
   8202c:	d2900835 	mov	x21, #0x8041                	// #32833
   82030:	a90263f7 	stp	x23, x24, [sp, #32]
   82034:	f2a00075 	movk	x21, #0x3, lsl #16
   82038:	d2884817 	mov	x23, #0x4240                	// #16960
   8203c:	2a1303f8 	mov	w24, w19
   82040:	a9036bf9 	stp	x25, x26, [sp, #48]
   82044:	f2a001f7 	movk	x23, #0xf, lsl #16
   82048:	b000003a 	adrp	x26, 87000 <init_page_table+0x2a8>
   8204c:	b0000039 	adrp	x25, 87000 <init_page_table+0x2a8>
   82050:	d2800416 	mov	x22, #0x20                  	// #32
   82054:	f2c00115 	movk	x21, #0x8, lsl #32
   82058:	f90023fe 	str	x30, [sp, #64]
   8205c:	d503201f 	nop
   82060:	aa1703e0 	mov	x0, x23
   82064:	9400068b 	bl	83a90 <timer_wait>
   82068:	d2800020 	mov	x0, #0x1                   	// #1
   8206c:	a90557f6 	stp	x22, x21, [sp, #80]
   82070:	a90603f4 	stp	x20, x0, [sp, #96]
   82074:	d50b7e33 	dc	civac, x19
   82078:	2a1803e1 	mov	w1, w24
   8207c:	52800100 	mov	w0, #0x8                   	// #8
   82080:	9400069c 	bl	83af0 <mailbox_write>
   82084:	52800100 	mov	w0, #0x8                   	// #8
   82088:	940006aa 	bl	83b30 <mailbox_read>
   8208c:	91124340 	add	x0, x26, #0x490
   82090:	94000e6a 	bl	85a38 <printf>
   82094:	aa1703e0 	mov	x0, x23
   82098:	9400067e 	bl	83a90 <timer_wait>
   8209c:	a90557f6 	stp	x22, x21, [sp, #80]
   820a0:	a9067ff4 	stp	x20, xzr, [sp, #96]
   820a4:	d50b7e33 	dc	civac, x19
   820a8:	2a1803e1 	mov	w1, w24
   820ac:	52800100 	mov	w0, #0x8                   	// #8
   820b0:	94000690 	bl	83af0 <mailbox_write>
   820b4:	52800100 	mov	w0, #0x8                   	// #8
   820b8:	9400069e 	bl	83b30 <mailbox_read>
   820bc:	91128320 	add	x0, x25, #0x4a0
   820c0:	94000e5e 	bl	85a38 <printf>
   820c4:	17ffffe7 	b	82060 <Core1_RunLED+0x48>

00000000000820c8 <set_ACT_LED>:
   820c8:	a9bf7bf3 	stp	x19, x30, [sp, #-16]!
   820cc:	52900823 	mov	w3, #0x8041                	// #32833
   820d0:	52800113 	mov	w19, #0x8                   	// #8
   820d4:	12001c00 	and	w0, w0, #0xff
   820d8:	52800404 	mov	w4, #0x20                  	// #32
   820dc:	72a00063 	movk	w3, #0x3, lsl #16
   820e0:	52801042 	mov	w2, #0x82                  	// #130
   820e4:	29007c24 	stp	w4, wzr, [x1]
   820e8:	29014c23 	stp	w3, w19, [x1, #8]
   820ec:	29020833 	stp	w19, w2, [x1, #16]
   820f0:	29037c20 	stp	w0, wzr, [x1, #24]
   820f4:	d50b7e21 	dc	civac, x1
   820f8:	2a1303e0 	mov	w0, w19
   820fc:	9400067d 	bl	83af0 <mailbox_write>
   82100:	2a1303e0 	mov	w0, w19
   82104:	a8c17bf3 	ldp	x19, x30, [sp], #16
   82108:	1400068a 	b	83b30 <mailbox_read>
   8210c:	00000000 	.inst	0x00000000 ; undefined

0000000000082110 <main>:
   82110:	a9bc53f3 	stp	x19, x20, [sp, #-64]!
   82114:	d0000000 	adrp	x0, 84000 <ARM_setmaxspeed+0x58>
   82118:	f0000013 	adrp	x19, 85000 <_doprnt+0x10>
   8211c:	91130000 	add	x0, x0, #0x4c0
   82120:	9128e273 	add	x19, x19, #0xa38
   82124:	a9015bf5 	stp	x21, x22, [sp, #16]
   82128:	a90263f7 	stp	x23, x24, [sp, #32]
   8212c:	52800037 	mov	w23, #0x1                   	// #1
   82130:	f9001bfe 	str	x30, [sp, #48]
   82134:	94000e3b 	bl	85a20 <Init_EmbStdio>
   82138:	aa1303e3 	mov	x3, x19
   8213c:	52800002 	mov	w2, #0x0                   	// #0
   82140:	52800001 	mov	w1, #0x0                   	// #0
   82144:	52800000 	mov	w0, #0x0                   	// #0
   82148:	94000ab2 	bl	84c10 <PiConsole_Init>
   8214c:	b0000035 	adrp	x21, 87000 <init_page_table+0x2a8>
   82150:	aa1303e0 	mov	x0, x19
   82154:	940007bf 	bl	84050 <displaySmartStart>
   82158:	aa1303e0 	mov	x0, x19
   8215c:	94000793 	bl	83fa8 <ARM_setmaxspeed>
   82160:	940012fe 	bl	86d58 <init_page_table>
   82164:	910822b5 	add	x21, x21, #0x208
   82168:	90000040 	adrp	x0, 8a000 <table_loaded>
   8216c:	91000014 	add	x20, x0, #0x0
   82170:	f0000036 	adrp	x22, 89000 <__bss_start__>
   82174:	910002d3 	add	x19, x22, #0x0
   82178:	b9000017 	str	w23, [x0]
   8217c:	94001423 	bl	87208 <mmu_init>
   82180:	aa1403e0 	mov	x0, x20
   82184:	97fff9c3 	bl	80890 <semaphore_inc>
   82188:	b0000020 	adrp	x0, 87000 <init_page_table+0x2a8>
   8218c:	9112c000 	add	x0, x0, #0x4b0
   82190:	94000e2a 	bl	85a38 <printf>
   82194:	52800018 	mov	w24, #0x0                   	// #0
   82198:	aa1503e1 	mov	x1, x21
   8219c:	2a1703e0 	mov	w0, w23
   821a0:	97fff9ab 	bl	8084c <CoreExecute>
   821a4:	aa1403e0 	mov	x0, x20
   821a8:	97fff9ba 	bl	80890 <semaphore_inc>
   821ac:	b0000020 	adrp	x0, 87000 <init_page_table+0x2a8>
   821b0:	91134000 	add	x0, x0, #0x4d0
   821b4:	94000e21 	bl	85a38 <printf>
   821b8:	aa1503e1 	mov	x1, x21
   821bc:	52800040 	mov	w0, #0x2                   	// #2
   821c0:	97fff9a3 	bl	8084c <CoreExecute>
   821c4:	aa1403e0 	mov	x0, x20
   821c8:	97fff9b2 	bl	80890 <semaphore_inc>
   821cc:	b0000020 	adrp	x0, 87000 <init_page_table+0x2a8>
   821d0:	9113c000 	add	x0, x0, #0x4f0
   821d4:	94000e19 	bl	85a38 <printf>
   821d8:	aa1503e1 	mov	x1, x21
   821dc:	52800060 	mov	w0, #0x3                   	// #3
   821e0:	97fff99b 	bl	8084c <CoreExecute>
   821e4:	f0fffff5 	adrp	x21, 81000 <semaphore_dec>
   821e8:	aa1403e0 	mov	x0, x20
   821ec:	913e62b5 	add	x21, x21, #0xf98
   821f0:	97fff9a8 	bl	80890 <semaphore_inc>
   821f4:	b0000020 	adrp	x0, 87000 <init_page_table+0x2a8>
   821f8:	91144000 	add	x0, x0, #0x510
   821fc:	94000e0f 	bl	85a38 <printf>
   82200:	aa1403e0 	mov	x0, x20
   82204:	97fffb7f 	bl	81000 <semaphore_dec>
   82208:	aa1403e0 	mov	x0, x20
   8220c:	97fff9a1 	bl	80890 <semaphore_inc>
   82210:	b0000020 	adrp	x0, 87000 <init_page_table+0x2a8>
   82214:	9114e000 	add	x0, x0, #0x538
   82218:	94000e08 	bl	85a38 <printf>
   8221c:	2a1403e2 	mov	w2, w20
   82220:	d360fe81 	lsr	x1, x20, #32
   82224:	b0000020 	adrp	x0, 87000 <init_page_table+0x2a8>
   82228:	9115e000 	add	x0, x0, #0x578
   8222c:	94000e03 	bl	85a38 <printf>
   82230:	aa1303e0 	mov	x0, x19
   82234:	97fff997 	bl	80890 <semaphore_inc>
   82238:	aa1503e1 	mov	x1, x21
   8223c:	2a1703e0 	mov	w0, w23
   82240:	97fff983 	bl	8084c <CoreExecute>
   82244:	aa1303e0 	mov	x0, x19
   82248:	97fff992 	bl	80890 <semaphore_inc>
   8224c:	aa1503e1 	mov	x1, x21
   82250:	52800040 	mov	w0, #0x2                   	// #2
   82254:	97fff97e 	bl	8084c <CoreExecute>
   82258:	aa1303e0 	mov	x0, x19
   8225c:	97fff98d 	bl	80890 <semaphore_inc>
   82260:	aa1503e1 	mov	x1, x21
   82264:	52800060 	mov	w0, #0x3                   	// #3
   82268:	97fff979 	bl	8084c <CoreExecute>
   8226c:	aa1303e0 	mov	x0, x19
   82270:	97fff988 	bl	80890 <semaphore_inc>
   82274:	aa1403e0 	mov	x0, x20
   82278:	97fffb62 	bl	81000 <semaphore_dec>
   8227c:	b0000020 	adrp	x0, 87000 <init_page_table+0x2a8>
   82280:	91168000 	add	x0, x0, #0x5a0
   82284:	94000ded 	bl	85a38 <printf>
   82288:	b0000034 	adrp	x20, 87000 <init_page_table+0x2a8>
   8228c:	aa1303e0 	mov	x0, x19
   82290:	97fffb5c 	bl	81000 <semaphore_dec>
   82294:	aa1303e0 	mov	x0, x19
   82298:	97fff97e 	bl	80890 <semaphore_inc>
   8229c:	aa1503e1 	mov	x1, x21
   822a0:	2a1703e0 	mov	w0, w23
   822a4:	97fff96a 	bl	8084c <CoreExecute>
   822a8:	91110294 	add	x20, x20, #0x440
   822ac:	aa1303e0 	mov	x0, x19
   822b0:	97fff978 	bl	80890 <semaphore_inc>
   822b4:	aa1503e1 	mov	x1, x21
   822b8:	52800040 	mov	w0, #0x2                   	// #2
   822bc:	97fff964 	bl	8084c <CoreExecute>
   822c0:	aa1303e0 	mov	x0, x19
   822c4:	97fff973 	bl	80890 <semaphore_inc>
   822c8:	aa1503e1 	mov	x1, x21
   822cc:	52800060 	mov	w0, #0x3                   	// #3
   822d0:	97fff95f 	bl	8084c <CoreExecute>
   822d4:	aa1303e0 	mov	x0, x19
   822d8:	97fff96e 	bl	80890 <semaphore_inc>
   822dc:	aa1303e0 	mov	x0, x19
   822e0:	97fffb48 	bl	81000 <semaphore_dec>
   822e4:	b0000020 	adrp	x0, 87000 <init_page_table+0x2a8>
   822e8:	91174000 	add	x0, x0, #0x5d0
   822ec:	94000dd3 	bl	85a38 <printf>
   822f0:	91001260 	add	x0, x19, #0x4
   822f4:	f0fffff3 	adrp	x19, 81000 <semaphore_dec>
   822f8:	97fff966 	bl	80890 <semaphore_inc>
   822fc:	913f2273 	add	x19, x19, #0xfc8
   82300:	aa1303e1 	mov	x1, x19
   82304:	2a1703e0 	mov	w0, w23
   82308:	97fff951 	bl	8084c <CoreExecute>
   8230c:	aa1303e1 	mov	x1, x19
   82310:	52800040 	mov	w0, #0x2                   	// #2
   82314:	97fff94e 	bl	8084c <CoreExecute>
   82318:	aa1303e1 	mov	x1, x19
   8231c:	52800060 	mov	w0, #0x3                   	// #3
   82320:	97fff94b 	bl	8084c <CoreExecute>
   82324:	b0000033 	adrp	x19, 87000 <init_page_table+0x2a8>
   82328:	b0000020 	adrp	x0, 87000 <init_page_table+0x2a8>
   8232c:	9117e000 	add	x0, x0, #0x5f8
   82330:	94000dc2 	bl	85a38 <printf>
   82334:	9118c273 	add	x19, x19, #0x630
   82338:	940005ca 	bl	83a60 <timer_getTickCount64>
   8233c:	91662415 	add	x21, x0, #0x989, lsl #12
   82340:	911a02b5 	add	x21, x21, #0x680
   82344:	14000007 	b	82360 <main+0x250>
   82348:	3878ca81 	ldrb	w1, [x20, w24, sxtw]
   8234c:	11000718 	add	w24, w24, #0x1
   82350:	12000718 	and	w24, w24, #0x3
   82354:	94000db9 	bl	85a38 <printf>
   82358:	d2986a00 	mov	x0, #0xc350                	// #50000
   8235c:	940005cd 	bl	83a90 <timer_wait>
   82360:	940005c0 	bl	83a60 <timer_getTickCount64>
   82364:	eb15001f 	cmp	x0, x21
   82368:	aa1303e0 	mov	x0, x19
   8236c:	54fffee3 	b.cc	82348 <main+0x238>  // b.lo, b.ul, b.last
   82370:	910002d3 	add	x19, x22, #0x0
   82374:	b0000020 	adrp	x0, 87000 <init_page_table+0x2a8>
   82378:	91190000 	add	x0, x0, #0x640
   8237c:	94000daf 	bl	85a38 <printf>
   82380:	91001260 	add	x0, x19, #0x4
   82384:	97fffb1f 	bl	81000 <semaphore_dec>
   82388:	b9400a60 	ldr	w0, [x19, #8]
   8238c:	71000c1f 	cmp	w0, #0x3
   82390:	54ffffc1 	b.ne	82388 <main+0x278>  // b.any
   82394:	b0000020 	adrp	x0, 87000 <init_page_table+0x2a8>
   82398:	91196000 	add	x0, x0, #0x658
   8239c:	94000da7 	bl	85a38 <printf>
   823a0:	b0000020 	adrp	x0, 87000 <init_page_table+0x2a8>
   823a4:	911a0000 	add	x0, x0, #0x680
   823a8:	94000da4 	bl	85a38 <printf>
   823ac:	90000001 	adrp	x1, 82000 <Core_SayHello+0x38>
   823b0:	52800020 	mov	w0, #0x1                   	// #1
   823b4:	91006021 	add	x1, x1, #0x18
   823b8:	97fff925 	bl	8084c <CoreExecute>
   823bc:	14000000 	b	823bc <main+0x2ac>

00000000000823c0 <SetPixel16>:
   823c0:	d10083ff 	sub	sp, sp, #0x20
   823c4:	531f7842 	lsl	w2, w2, #1
   823c8:	29401007 	ldp	w7, w4, [x0]
   823cc:	531f7821 	lsl	w1, w1, #1
   823d0:	b9000be3 	str	w3, [sp, #8]
   823d4:	530a3c65 	ubfx	w5, w3, #10, #6
   823d8:	53031c66 	ubfx	w6, w3, #3, #5
   823dc:	53135c63 	ubfx	w3, w3, #19, #5
   823e0:	b9401408 	ldr	w8, [x0, #20]
   823e4:	aa0480e4 	orr	x4, x7, x4, lsl #32
   823e8:	8b010081 	add	x1, x4, x1
   823ec:	2a0514c6 	orr	w6, w6, w5, lsl #5
   823f0:	b9400be0 	ldr	w0, [sp, #8]
   823f4:	1b087c42 	mul	w2, w2, w8
   823f8:	8b224024 	add	x4, x1, w2, uxtw
   823fc:	38224826 	strb	w6, [x1, w2, uxtw]
   82400:	39400481 	ldrb	w1, [x4, #1]
   82404:	121d7021 	and	w1, w1, #0xfffffff8
   82408:	2a450c25 	orr	w5, w1, w5, lsr #3
   8240c:	331d1065 	bfi	w5, w3, #3, #5
   82410:	39000485 	strb	w5, [x4, #1]
   82414:	910083ff 	add	sp, sp, #0x20
   82418:	d65f03c0 	ret
   8241c:	d503201f 	nop

0000000000082420 <ClearArea16>:
   82420:	b940140c 	ldr	w12, [x0, #20]
   82424:	531f7848 	lsl	w8, w2, #1
   82428:	2940240b 	ldp	w11, w9, [x0]
   8242c:	531f782a 	lsl	w10, w1, #1
   82430:	3940c806 	ldrb	w6, [x0, #50]
   82434:	6b020084 	subs	w4, w4, w2
   82438:	3940c007 	ldrb	w7, [x0, #48]
   8243c:	1b0c7d08 	mul	w8, w8, w12
   82440:	3940c405 	ldrb	w5, [x0, #49]
   82444:	aa098169 	orr	x9, x11, x9, lsl #32
   82448:	8b0a0129 	add	x9, x9, x10
   8244c:	53037cc6 	lsr	w6, w6, #3
   82450:	53037ce7 	lsr	w7, w7, #3
   82454:	8b284129 	add	x9, x9, w8, uxtw
   82458:	53027ca0 	lsr	w0, w5, #2
   8245c:	54000360 	b.eq	824c8 <ClearArea16+0xa8>  // b.none
   82460:	d37f7d8c 	ubfiz	x12, x12, #1, #32
   82464:	6b010063 	subs	w3, w3, w1
   82468:	54000300 	b.eq	824c8 <ClearArea16+0xa8>  // b.none
   8246c:	51000463 	sub	w3, w3, #0x1
   82470:	d280004b 	mov	x11, #0x2                   	// #2
   82474:	8b23456b 	add	x11, x11, w3, uxtw #1
   82478:	531b0808 	ubfiz	w8, w0, #5, #3
   8247c:	53037c03 	lsr	w3, w0, #3
   82480:	5280000a 	mov	w10, #0x0                   	// #0
   82484:	d503201f 	nop
   82488:	aa0903e1 	mov	x1, x9
   8248c:	8b090165 	add	x5, x11, x9
   82490:	39400420 	ldrb	w0, [x1, #1]
   82494:	2a0800e2 	orr	w2, w7, w8
   82498:	91000821 	add	x1, x1, #0x2
   8249c:	381fe022 	sturb	w2, [x1, #-2]
   824a0:	121d7000 	and	w0, w0, #0xfffffff8
   824a4:	eb05003f 	cmp	x1, x5
   824a8:	2a030000 	orr	w0, w0, w3
   824ac:	331d10c0 	bfi	w0, w6, #3, #5
   824b0:	381ff020 	sturb	w0, [x1, #-1]
   824b4:	54fffee1 	b.ne	82490 <ClearArea16+0x70>  // b.any
   824b8:	1100054a 	add	w10, w10, #0x1
   824bc:	8b0c0129 	add	x9, x9, x12
   824c0:	6b04015f 	cmp	w10, w4
   824c4:	54fffe21 	b.ne	82488 <ClearArea16+0x68>  // b.any
   824c8:	d65f03c0 	ret
   824cc:	d503201f 	nop

00000000000824d0 <VertLine16>:
   824d0:	29429005 	ldp	w5, w4, [x0, #20]
   824d4:	b9401c0c 	ldr	w12, [x0, #28]
   824d8:	2940240a 	ldp	w10, w9, [x0]
   824dc:	531f78a3 	lsl	w3, w5, #1
   824e0:	3940a807 	ldrb	w7, [x0, #42]
   824e4:	531f7884 	lsl	w4, w4, #1
   824e8:	3940a406 	ldrb	w6, [x0, #41]
   824ec:	3940a008 	ldrb	w8, [x0, #40]
   824f0:	1b0c7c63 	mul	w3, w3, w12
   824f4:	aa098149 	orr	x9, x10, x9, lsl #32
   824f8:	53037ce7 	lsr	w7, w7, #3
   824fc:	8b24c124 	add	x4, x9, w4, sxtw
   82500:	53027cc6 	lsr	w6, w6, #2
   82504:	53037d08 	lsr	w8, w8, #3
   82508:	8b234083 	add	x3, x4, w3, uxtw
   8250c:	34000281 	cbz	w1, 8255c <VertLine16+0x8c>
   82510:	d37f7ca5 	ubfiz	x5, x5, #1, #32
   82514:	531b08cb 	ubfiz	w11, w6, #5, #3
   82518:	7100045f 	cmp	w2, #0x1
   8251c:	53037cc6 	lsr	w6, w6, #3
   82520:	cb0503ea 	neg	x10, x5
   82524:	54000220 	b.eq	82568 <VertLine16+0x98>  // b.none
   82528:	52800005 	mov	w5, #0x0                   	// #0
   8252c:	d503201f 	nop
   82530:	39400464 	ldrb	w4, [x3, #1]
   82534:	2a0b0109 	orr	w9, w8, w11
   82538:	39000069 	strb	w9, [x3]
   8253c:	110004a5 	add	w5, w5, #0x1
   82540:	121d7084 	and	w4, w4, #0xfffffff8
   82544:	6b05003f 	cmp	w1, w5
   82548:	2a060084 	orr	w4, w4, w6
   8254c:	331d10e4 	bfi	w4, w7, #3, #5
   82550:	39000464 	strb	w4, [x3, #1]
   82554:	8b0a0063 	add	x3, x3, x10
   82558:	54fffec1 	b.ne	82530 <VertLine16+0x60>  // b.any
   8255c:	1b013041 	madd	w1, w2, w1, w12
   82560:	b9001c01 	str	w1, [x0, #28]
   82564:	d65f03c0 	ret
   82568:	52800009 	mov	w9, #0x0                   	// #0
   8256c:	d503201f 	nop
   82570:	39400464 	ldrb	w4, [x3, #1]
   82574:	2a0b010a 	orr	w10, w8, w11
   82578:	3900006a 	strb	w10, [x3]
   8257c:	11000529 	add	w9, w9, #0x1
   82580:	121d7084 	and	w4, w4, #0xfffffff8
   82584:	6b09003f 	cmp	w1, w9
   82588:	2a060084 	orr	w4, w4, w6
   8258c:	331d10e4 	bfi	w4, w7, #3, #5
   82590:	39000464 	strb	w4, [x3, #1]
   82594:	8b050063 	add	x3, x3, x5
   82598:	54fffec1 	b.ne	82570 <VertLine16+0xa0>  // b.any
   8259c:	1b013041 	madd	w1, w2, w1, w12
   825a0:	b9001c01 	str	w1, [x0, #28]
   825a4:	d65f03c0 	ret

00000000000825a8 <HorzLine16>:
   825a8:	2942b004 	ldp	w4, w12, [x0, #20]
   825ac:	b9401c06 	ldr	w6, [x0, #28]
   825b0:	2940140a 	ldp	w10, w5, [x0]
   825b4:	531f7884 	lsl	w4, w4, #1
   825b8:	3940a808 	ldrb	w8, [x0, #42]
   825bc:	531f7983 	lsl	w3, w12, #1
   825c0:	3940a407 	ldrb	w7, [x0, #41]
   825c4:	3940a009 	ldrb	w9, [x0, #40]
   825c8:	1b067c84 	mul	w4, w4, w6
   825cc:	aa058145 	orr	x5, x10, x5, lsl #32
   825d0:	53037d08 	lsr	w8, w8, #3
   825d4:	8b23c0a3 	add	x3, x5, w3, sxtw
   825d8:	53027ce7 	lsr	w7, w7, #2
   825dc:	53037d29 	lsr	w9, w9, #3
   825e0:	8b244064 	add	x4, x3, w4, uxtw
   825e4:	34000201 	cbz	w1, 82624 <HorzLine16+0x7c>
   825e8:	531b08ea 	ubfiz	w10, w7, #5, #3
   825ec:	937f7c4b 	sbfiz	x11, x2, #1, #32
   825f0:	53037ce7 	lsr	w7, w7, #3
   825f4:	52800005 	mov	w5, #0x0                   	// #0
   825f8:	39400483 	ldrb	w3, [x4, #1]
   825fc:	2a0a0126 	orr	w6, w9, w10
   82600:	39000086 	strb	w6, [x4]
   82604:	110004a5 	add	w5, w5, #0x1
   82608:	121d7063 	and	w3, w3, #0xfffffff8
   8260c:	6b05003f 	cmp	w1, w5
   82610:	2a070063 	orr	w3, w3, w7
   82614:	331d1103 	bfi	w3, w8, #3, #5
   82618:	39000483 	strb	w3, [x4, #1]
   8261c:	8b0b0084 	add	x4, x4, x11
   82620:	54fffec1 	b.ne	825f8 <HorzLine16+0x50>  // b.any
   82624:	1b013041 	madd	w1, w2, w1, w12
   82628:	b9001801 	str	w1, [x0, #24]
   8262c:	d65f03c0 	ret

0000000000082630 <DiagLine16>:
   82630:	2942c40d 	ldp	w13, w17, [x0, #20]
   82634:	6b02003f 	cmp	w1, w2
   82638:	b9401c10 	ldr	w16, [x0, #28]
   8263c:	1a829022 	csel	w2, w1, w2, ls  // ls = plast
   82640:	29401c08 	ldp	w8, w7, [x0]
   82644:	531f79a6 	lsl	w6, w13, #1
   82648:	3940a80b 	ldrb	w11, [x0, #42]
   8264c:	531f7a25 	lsl	w5, w17, #1
   82650:	3940a40a 	ldrb	w10, [x0, #41]
   82654:	3940a00c 	ldrb	w12, [x0, #40]
   82658:	1b107cc6 	mul	w6, w6, w16
   8265c:	aa078107 	orr	x7, x8, x7, lsl #32
   82660:	53037d6b 	lsr	w11, w11, #3
   82664:	8b25c0e5 	add	x5, x7, w5, sxtw
   82668:	53027d4a 	lsr	w10, w10, #2
   8266c:	53037d8c 	lsr	w12, w12, #3
   82670:	8b2640a6 	add	x6, x5, w6, uxtw
   82674:	34000321 	cbz	w1, 826d8 <DiagLine16+0xa8>
   82678:	1b047dad 	mul	w13, w13, w4
   8267c:	531b094e 	ubfiz	w14, w10, #5, #3
   82680:	937f7c6f 	sbfiz	x15, x3, #1, #32
   82684:	53037d4a 	lsr	w10, w10, #3
   82688:	52800008 	mov	w8, #0x0                   	// #0
   8268c:	52800007 	mov	w7, #0x0                   	// #0
   82690:	d37ff9ad 	lsl	x13, x13, #1
   82694:	d503201f 	nop
   82698:	394004c5 	ldrb	w5, [x6, #1]
   8269c:	2a0e0189 	orr	w9, w12, w14
   826a0:	390000c9 	strb	w9, [x6]
   826a4:	0b0200e7 	add	w7, w7, w2
   826a8:	121d70a5 	and	w5, w5, #0xfffffff8
   826ac:	11000508 	add	w8, w8, #0x1
   826b0:	2a0a00a5 	orr	w5, w5, w10
   826b4:	6b07003f 	cmp	w1, w7
   826b8:	331d1165 	bfi	w5, w11, #3, #5
   826bc:	390004c5 	strb	w5, [x6, #1]
   826c0:	8b0f00c6 	add	x6, x6, x15
   826c4:	54000068 	b.hi	826d0 <DiagLine16+0xa0>  // b.pmore
   826c8:	4b0100e7 	sub	w7, w7, w1
   826cc:	8b0d00c6 	add	x6, x6, x13
   826d0:	6b08003f 	cmp	w1, w8
   826d4:	54fffe21 	b.ne	82698 <DiagLine16+0x68>  // b.any
   826d8:	1b014461 	madd	w1, w3, w1, w17
   826dc:	1b024082 	madd	w2, w4, w2, w16
   826e0:	29030801 	stp	w1, w2, [x0, #24]
   826e4:	d65f03c0 	ret

00000000000826e8 <WriteChar16>:
   826e8:	a9bf7bf3 	stp	x19, x30, [sp, #-16]!
   826ec:	531e1c21 	ubfiz	w1, w1, #2, #8
   826f0:	2942cc0b 	ldp	w11, w19, [x0, #20]
   826f4:	b0000032 	adrp	x18, 87000 <init_page_table+0x2a8>
   826f8:	b9401c05 	ldr	w5, [x0, #28]
   826fc:	1100103e 	add	w30, w1, #0x4
   82700:	29400804 	ldp	w4, w2, [x0]
   82704:	531f7963 	lsl	w3, w11, #1
   82708:	3940a811 	ldrb	w17, [x0, #42]
   8270c:	911ae252 	add	x18, x18, #0x6b8
   82710:	3940a410 	ldrb	w16, [x0, #41]
   82714:	d37f7d6b 	ubfiz	x11, x11, #1, #32
   82718:	3940a00f 	ldrb	w15, [x0, #40]
   8271c:	1b057c63 	mul	w3, w3, w5
   82720:	3940b80e 	ldrb	w14, [x0, #46]
   82724:	aa028084 	orr	x4, x4, x2, lsl #32
   82728:	3940b40d 	ldrb	w13, [x0, #45]
   8272c:	531f7a62 	lsl	w2, w19, #1
   82730:	3940b00c 	ldrb	w12, [x0, #44]
   82734:	8b22c082 	add	x2, x4, w2, sxtw
   82738:	53037e31 	lsr	w17, w17, #3
   8273c:	53027e10 	lsr	w16, w16, #2
   82740:	53037def 	lsr	w15, w15, #3
   82744:	53037dce 	lsr	w14, w14, #3
   82748:	53027dad 	lsr	w13, w13, #2
   8274c:	53037d8c 	lsr	w12, w12, #3
   82750:	8b234043 	add	x3, x2, w3, uxtw
   82754:	b8615a46 	ldr	w6, [x18, w1, uxtw #2]
   82758:	52800005 	mov	w5, #0x0                   	// #0
   8275c:	d503201f 	nop
   82760:	2a0d03e2 	mov	w2, w13
   82764:	2a0e03ea 	mov	w10, w14
   82768:	2a0c03e4 	mov	w4, w12
   8276c:	120008a9 	and	w9, w5, #0x7
   82770:	36f80086 	tbz	w6, #31, 82780 <WriteChar16+0x98>
   82774:	2a1103ea 	mov	w10, w17
   82778:	2a1003e2 	mov	w2, w16
   8277c:	2a0f03e4 	mov	w4, w15
   82780:	937f7d28 	sbfiz	x8, x9, #1, #32
   82784:	2a021484 	orr	w4, w4, w2, lsl #5
   82788:	8b080067 	add	x7, x3, x8
   8278c:	71001d3f 	cmp	w9, #0x7
   82790:	110004a5 	add	w5, w5, #0x1
   82794:	8b0b0069 	add	x9, x3, x11
   82798:	38286864 	strb	w4, [x3, x8]
   8279c:	531f78c6 	lsl	w6, w6, #1
   827a0:	9a830123 	csel	x3, x9, x3, eq  // eq = none
   827a4:	710080bf 	cmp	w5, #0x20
   827a8:	394004e4 	ldrb	w4, [x7, #1]
   827ac:	121d7084 	and	w4, w4, #0xfffffff8
   827b0:	2a420c82 	orr	w2, w4, w2, lsr #3
   827b4:	331d1142 	bfi	w2, w10, #3, #5
   827b8:	390004e2 	strb	w2, [x7, #1]
   827bc:	54fffd21 	b.ne	82760 <WriteChar16+0x78>  // b.any
   827c0:	11000421 	add	w1, w1, #0x1
   827c4:	6b1e003f 	cmp	w1, w30
   827c8:	54fffc61 	b.ne	82754 <WriteChar16+0x6c>  // b.any
   827cc:	11002273 	add	w19, w19, #0x8
   827d0:	b9001813 	str	w19, [x0, #24]
   827d4:	a8c17bf3 	ldp	x19, x30, [sp], #16
   827d8:	d65f03c0 	ret
   827dc:	d503201f 	nop

00000000000827e0 <TransparentWriteChar16>:
   827e0:	2942c40a 	ldp	w10, w17, [x0, #20]
   827e4:	531e1c21 	ubfiz	w1, w1, #2, #8
   827e8:	b9401c05 	ldr	w5, [x0, #28]
   827ec:	b000002f 	adrp	x15, 87000 <init_page_table+0x2a8>
   827f0:	29401006 	ldp	w6, w4, [x0]
   827f4:	531f7943 	lsl	w3, w10, #1
   827f8:	3940a40b 	ldrb	w11, [x0, #41]
   827fc:	531f7a22 	lsl	w2, w17, #1
   82800:	3940a80d 	ldrb	w13, [x0, #42]
   82804:	11001030 	add	w16, w1, #0x4
   82808:	3940a00c 	ldrb	w12, [x0, #40]
   8280c:	1b057c63 	mul	w3, w3, w5
   82810:	aa0480c4 	orr	x4, x6, x4, lsl #32
   82814:	53027d6b 	lsr	w11, w11, #2
   82818:	8b22c082 	add	x2, x4, w2, sxtw
   8281c:	531b096e 	ubfiz	w14, w11, #5, #3
   82820:	911ae1ef 	add	x15, x15, #0x6b8
   82824:	53037dad 	lsr	w13, w13, #3
   82828:	53037d8c 	lsr	w12, w12, #3
   8282c:	53037d6b 	lsr	w11, w11, #3
   82830:	d37f7d4a 	ubfiz	x10, x10, #1, #32
   82834:	8b234043 	add	x3, x2, w3, uxtw
   82838:	b86159e4 	ldr	w4, [x15, w1, uxtw #2]
   8283c:	52800002 	mov	w2, #0x0                   	// #0
   82840:	12000846 	and	w6, w2, #0x7
   82844:	8b0a0067 	add	x7, x3, x10
   82848:	11000442 	add	w2, w2, #0x1
   8284c:	36f80144 	tbz	w4, #31, 82874 <TransparentWriteChar16+0x94>
   82850:	937f7cc5 	sbfiz	x5, x6, #1, #32
   82854:	2a0e0188 	orr	w8, w12, w14
   82858:	8b050069 	add	x9, x3, x5
   8285c:	38256868 	strb	w8, [x3, x5]
   82860:	39400525 	ldrb	w5, [x9, #1]
   82864:	121d70a5 	and	w5, w5, #0xfffffff8
   82868:	2a0b00a5 	orr	w5, w5, w11
   8286c:	331d11a5 	bfi	w5, w13, #3, #5
   82870:	39000525 	strb	w5, [x9, #1]
   82874:	71001cdf 	cmp	w6, #0x7
   82878:	531f7884 	lsl	w4, w4, #1
   8287c:	9a8300e3 	csel	x3, x7, x3, eq  // eq = none
   82880:	7100805f 	cmp	w2, #0x20
   82884:	54fffde1 	b.ne	82840 <TransparentWriteChar16+0x60>  // b.any
   82888:	11000421 	add	w1, w1, #0x1
   8288c:	6b01021f 	cmp	w16, w1
   82890:	54fffd41 	b.ne	82838 <TransparentWriteChar16+0x58>  // b.any
   82894:	11002231 	add	w17, w17, #0x8
   82898:	b9001811 	str	w17, [x0, #24]
   8289c:	d65f03c0 	ret

00000000000828a0 <PutImage16>:
   828a0:	29429409 	ldp	w9, w5, [x0, #20]
   828a4:	12001c84 	and	w4, w4, #0xff
   828a8:	b9401c08 	ldr	w8, [x0, #28]
   828ac:	29401c0a 	ldp	w10, w7, [x0]
   828b0:	531f7926 	lsl	w6, w9, #1
   828b4:	531f78a0 	lsl	w0, w5, #1
   828b8:	1b087cc6 	mul	w6, w6, w8
   828bc:	aa078145 	orr	x5, x10, x7, lsl #32
   828c0:	8b20c0a0 	add	x0, x5, w0, sxtw
   828c4:	8b264006 	add	x6, x0, w6, uxtw
   828c8:	340002e2 	cbz	w2, 82924 <PutImage16+0x84>
   828cc:	d37f7d29 	ubfiz	x9, x9, #1, #32
   828d0:	cb0903ea 	neg	x10, x9
   828d4:	34000281 	cbz	w1, 82924 <PutImage16+0x84>
   828d8:	51000428 	sub	w8, w1, #0x1
   828dc:	52800007 	mov	w7, #0x0                   	// #0
   828e0:	91000508 	add	x8, x8, #0x1
   828e4:	d37ff908 	lsl	x8, x8, #1
   828e8:	d2800000 	mov	x0, #0x0                   	// #0
   828ec:	d503201f 	nop
   828f0:	78607865 	ldrh	w5, [x3, x0, lsl #1]
   828f4:	782078c5 	strh	w5, [x6, x0, lsl #1]
   828f8:	91000400 	add	x0, x0, #0x1
   828fc:	6b00003f 	cmp	w1, w0
   82900:	54ffff88 	b.hi	828f0 <PutImage16+0x50>  // b.pmore
   82904:	7100009f 	cmp	w4, #0x0
   82908:	8b0a00c0 	add	x0, x6, x10
   8290c:	110004e7 	add	w7, w7, #0x1
   82910:	8b0900c6 	add	x6, x6, x9
   82914:	9a8000c6 	csel	x6, x6, x0, eq  // eq = none
   82918:	8b080063 	add	x3, x3, x8
   8291c:	6b07005f 	cmp	w2, w7
   82920:	54fffe41 	b.ne	828e8 <PutImage16+0x48>  // b.any
   82924:	d65f03c0 	ret

0000000000082928 <SetPixel24>:
   82928:	d10083ff 	sub	sp, sp, #0x20
   8292c:	0b020442 	add	w2, w2, w2, lsl #1
   82930:	29401007 	ldp	w7, w4, [x0]
   82934:	0b010421 	add	w1, w1, w1, lsl #1
   82938:	b9000be3 	str	w3, [sp, #8]
   8293c:	b9401408 	ldr	w8, [x0, #20]
   82940:	aa0480e4 	orr	x4, x7, x4, lsl #32
   82944:	394027e6 	ldrb	w6, [sp, #9]
   82948:	2a0303e0 	mov	w0, w3
   8294c:	39402be5 	ldrb	w5, [sp, #10]
   82950:	1b087c42 	mul	w2, w2, w8
   82954:	8b040042 	add	x2, x2, x4
   82958:	8b214044 	add	x4, x2, w1, uxtw
   8295c:	38214843 	strb	w3, [x2, w1, uxtw]
   82960:	39000486 	strb	w6, [x4, #1]
   82964:	39000885 	strb	w5, [x4, #2]
   82968:	910083ff 	add	sp, sp, #0x20
   8296c:	d65f03c0 	ret

0000000000082970 <ClearArea24>:
   82970:	29401409 	ldp	w9, w5, [x0]
   82974:	0b020447 	add	w7, w2, w2, lsl #1
   82978:	b9401406 	ldr	w6, [x0, #20]
   8297c:	0b010428 	add	w8, w1, w1, lsl #1
   82980:	6b020084 	subs	w4, w4, w2
   82984:	aa058125 	orr	x5, x9, x5, lsl #32
   82988:	8b0800a5 	add	x5, x5, x8
   8298c:	1b067ce7 	mul	w7, w7, w6
   82990:	8b0700a5 	add	x5, x5, x7
   82994:	54000340 	b.eq	829fc <ClearArea24+0x8c>  // b.none
   82998:	2a0603e8 	mov	w8, w6
   8299c:	6b010063 	subs	w3, w3, w1
   829a0:	8b080508 	add	x8, x8, x8, lsl #1
   829a4:	540002c0 	b.eq	829fc <ClearArea24+0x8c>  // b.none
   829a8:	51000463 	sub	w3, w3, #0x1
   829ac:	52800062 	mov	w2, #0x3                   	// #3
   829b0:	d2800067 	mov	x7, #0x3                   	// #3
   829b4:	9100c001 	add	x1, x0, #0x30
   829b8:	52800006 	mov	w6, #0x0                   	// #0
   829bc:	9ba21c67 	umaddl	x7, w3, w2, x7
   829c0:	aa0503e0 	mov	x0, x5
   829c4:	8b0500e3 	add	x3, x7, x5
   829c8:	91000c00 	add	x0, x0, #0x3
   829cc:	39400022 	ldrb	w2, [x1]
   829d0:	eb03001f 	cmp	x0, x3
   829d4:	381fd002 	sturb	w2, [x0, #-3]
   829d8:	39400422 	ldrb	w2, [x1, #1]
   829dc:	381fe002 	sturb	w2, [x0, #-2]
   829e0:	39400822 	ldrb	w2, [x1, #2]
   829e4:	381ff002 	sturb	w2, [x0, #-1]
   829e8:	54ffff01 	b.ne	829c8 <ClearArea24+0x58>  // b.any
   829ec:	110004c6 	add	w6, w6, #0x1
   829f0:	8b0800a5 	add	x5, x5, x8
   829f4:	6b0400df 	cmp	w6, w4
   829f8:	54fffe41 	b.ne	829c0 <ClearArea24+0x50>  // b.any
   829fc:	d65f03c0 	ret

0000000000082a00 <VertLine24>:
   82a00:	29429005 	ldp	w5, w4, [x0, #20]
   82a04:	29400c07 	ldp	w7, w3, [x0]
   82a08:	b9401c08 	ldr	w8, [x0, #28]
   82a0c:	0b0504a6 	add	w6, w5, w5, lsl #1
   82a10:	0b040484 	add	w4, w4, w4, lsl #1
   82a14:	aa0380e3 	orr	x3, x7, x3, lsl #32
   82a18:	8b24c063 	add	x3, x3, w4, sxtw
   82a1c:	1b087cc6 	mul	w6, w6, w8
   82a20:	8b060063 	add	x3, x3, x6
   82a24:	34000261 	cbz	w1, 82a70 <VertLine24+0x70>
   82a28:	2a0503e5 	mov	w5, w5
   82a2c:	9100a004 	add	x4, x0, #0x28
   82a30:	8b0504a5 	add	x5, x5, x5, lsl #1
   82a34:	7100045f 	cmp	w2, #0x1
   82a38:	cb0503e7 	neg	x7, x5
   82a3c:	54000200 	b.eq	82a7c <VertLine24+0x7c>  // b.none
   82a40:	52800005 	mov	w5, #0x0                   	// #0
   82a44:	d503201f 	nop
   82a48:	39400086 	ldrb	w6, [x4]
   82a4c:	110004a5 	add	w5, w5, #0x1
   82a50:	39000066 	strb	w6, [x3]
   82a54:	6b05003f 	cmp	w1, w5
   82a58:	39400486 	ldrb	w6, [x4, #1]
   82a5c:	39000466 	strb	w6, [x3, #1]
   82a60:	39400886 	ldrb	w6, [x4, #2]
   82a64:	39000866 	strb	w6, [x3, #2]
   82a68:	8b070063 	add	x3, x3, x7
   82a6c:	54fffee1 	b.ne	82a48 <VertLine24+0x48>  // b.any
   82a70:	1b012041 	madd	w1, w2, w1, w8
   82a74:	b9001c01 	str	w1, [x0, #28]
   82a78:	d65f03c0 	ret
   82a7c:	52800006 	mov	w6, #0x0                   	// #0
   82a80:	39400087 	ldrb	w7, [x4]
   82a84:	110004c6 	add	w6, w6, #0x1
   82a88:	39000067 	strb	w7, [x3]
   82a8c:	6b06003f 	cmp	w1, w6
   82a90:	39400487 	ldrb	w7, [x4, #1]
   82a94:	39000467 	strb	w7, [x3, #1]
   82a98:	39400887 	ldrb	w7, [x4, #2]
   82a9c:	39000867 	strb	w7, [x3, #2]
   82aa0:	8b050063 	add	x3, x3, x5
   82aa4:	54fffee1 	b.ne	82a80 <VertLine24+0x80>  // b.any
   82aa8:	1b012041 	madd	w1, w2, w1, w8
   82aac:	b9001c01 	str	w1, [x0, #28]
   82ab0:	d65f03c0 	ret
   82ab4:	d503201f 	nop

0000000000082ab8 <HorzLine24>:
   82ab8:	2942a003 	ldp	w3, w8, [x0, #20]
   82abc:	29401407 	ldp	w7, w5, [x0]
   82ac0:	b9401c06 	ldr	w6, [x0, #28]
   82ac4:	0b030463 	add	w3, w3, w3, lsl #1
   82ac8:	0b080504 	add	w4, w8, w8, lsl #1
   82acc:	aa0580e5 	orr	x5, x7, x5, lsl #32
   82ad0:	8b24c0a4 	add	x4, x5, w4, sxtw
   82ad4:	1b067c63 	mul	w3, w3, w6
   82ad8:	8b040063 	add	x3, x3, x4
   82adc:	340001e1 	cbz	w1, 82b18 <HorzLine24+0x60>
   82ae0:	93407c47 	sxtw	x7, w2
   82ae4:	9100a005 	add	x5, x0, #0x28
   82ae8:	8b0704e7 	add	x7, x7, x7, lsl #1
   82aec:	52800004 	mov	w4, #0x0                   	// #0
   82af0:	394000a6 	ldrb	w6, [x5]
   82af4:	11000484 	add	w4, w4, #0x1
   82af8:	39000066 	strb	w6, [x3]
   82afc:	6b04003f 	cmp	w1, w4
   82b00:	394004a6 	ldrb	w6, [x5, #1]
   82b04:	39000466 	strb	w6, [x3, #1]
   82b08:	394008a6 	ldrb	w6, [x5, #2]
   82b0c:	39000866 	strb	w6, [x3, #2]
   82b10:	8b070063 	add	x3, x3, x7
   82b14:	54fffee1 	b.ne	82af0 <HorzLine24+0x38>  // b.any
   82b18:	1b012041 	madd	w1, w2, w1, w8
   82b1c:	b9001801 	str	w1, [x0, #24]
   82b20:	d65f03c0 	ret
   82b24:	d503201f 	nop

0000000000082b28 <DiagLine24>:
   82b28:	2942b006 	ldp	w6, w12, [x0, #20]
   82b2c:	6b02003f 	cmp	w1, w2
   82b30:	29402009 	ldp	w9, w8, [x0]
   82b34:	1a829022 	csel	w2, w1, w2, ls  // ls = plast
   82b38:	b9401c0d 	ldr	w13, [x0, #28]
   82b3c:	0b0604c7 	add	w7, w6, w6, lsl #1
   82b40:	0b0c0585 	add	w5, w12, w12, lsl #1
   82b44:	aa088128 	orr	x8, x9, x8, lsl #32
   82b48:	8b25c105 	add	x5, x8, w5, sxtw
   82b4c:	1b0d7ce7 	mul	w7, w7, w13
   82b50:	8b0700a5 	add	x5, x5, x7
   82b54:	34000301 	cbz	w1, 82bb4 <DiagLine24+0x8c>
   82b58:	1b047cca 	mul	w10, w6, w4
   82b5c:	93407c6b 	sxtw	x11, w3
   82b60:	8b0b056b 	add	x11, x11, x11, lsl #1
   82b64:	9100a008 	add	x8, x0, #0x28
   82b68:	52800007 	mov	w7, #0x0                   	// #0
   82b6c:	52800006 	mov	w6, #0x0                   	// #0
   82b70:	8b0a054a 	add	x10, x10, x10, lsl #1
   82b74:	d503201f 	nop
   82b78:	39400109 	ldrb	w9, [x8]
   82b7c:	0b0200c6 	add	w6, w6, w2
   82b80:	390000a9 	strb	w9, [x5]
   82b84:	110004e7 	add	w7, w7, #0x1
   82b88:	6b06003f 	cmp	w1, w6
   82b8c:	39400509 	ldrb	w9, [x8, #1]
   82b90:	390004a9 	strb	w9, [x5, #1]
   82b94:	39400909 	ldrb	w9, [x8, #2]
   82b98:	390008a9 	strb	w9, [x5, #2]
   82b9c:	8b0b00a5 	add	x5, x5, x11
   82ba0:	54000068 	b.hi	82bac <DiagLine24+0x84>  // b.pmore
   82ba4:	4b0100c6 	sub	w6, w6, w1
   82ba8:	8b0a00a5 	add	x5, x5, x10
   82bac:	6b07003f 	cmp	w1, w7
   82bb0:	54fffe41 	b.ne	82b78 <DiagLine24+0x50>  // b.any
   82bb4:	1b013061 	madd	w1, w3, w1, w12
   82bb8:	1b023482 	madd	w2, w4, w2, w13
   82bbc:	29030801 	stp	w1, w2, [x0, #24]
   82bc0:	d65f03c0 	ret
   82bc4:	d503201f 	nop

0000000000082bc8 <WriteChar24>:
   82bc8:	2942b402 	ldp	w2, w13, [x0, #20]
   82bcc:	531e1c21 	ubfiz	w1, w1, #2, #8
   82bd0:	29401006 	ldp	w6, w4, [x0]
   82bd4:	b000002c 	adrp	x12, 87000 <init_page_table+0x2a8>
   82bd8:	b9401c05 	ldr	w5, [x0, #28]
   82bdc:	0b020443 	add	w3, w2, w2, lsl #1
   82be0:	2a0203eb 	mov	w11, w2
   82be4:	0b0d05a2 	add	w2, w13, w13, lsl #1
   82be8:	aa0480c4 	orr	x4, x6, x4, lsl #32
   82bec:	1100102e 	add	w14, w1, #0x4
   82bf0:	8b22c082 	add	x2, x4, w2, sxtw
   82bf4:	911ae18c 	add	x12, x12, #0x6b8
   82bf8:	1b057c63 	mul	w3, w3, w5
   82bfc:	8b0b056b 	add	x11, x11, x11, lsl #1
   82c00:	8b020063 	add	x3, x3, x2
   82c04:	b8615985 	ldr	w5, [x12, w1, uxtw #2]
   82c08:	52800004 	mov	w4, #0x0                   	// #0
   82c0c:	d503201f 	nop
   82c10:	12000886 	and	w6, w4, #0x7
   82c14:	8b0b006a 	add	x10, x3, x11
   82c18:	3940b009 	ldrb	w9, [x0, #44]
   82c1c:	11000484 	add	w4, w4, #0x1
   82c20:	3940b408 	ldrb	w8, [x0, #45]
   82c24:	93407cc2 	sxtw	x2, w6
   82c28:	3940b807 	ldrb	w7, [x0, #46]
   82c2c:	36f80085 	tbz	w5, #31, 82c3c <WriteChar24+0x74>
   82c30:	3940a009 	ldrb	w9, [x0, #40]
   82c34:	3940a408 	ldrb	w8, [x0, #41]
   82c38:	3940a807 	ldrb	w7, [x0, #42]
   82c3c:	8b020442 	add	x2, x2, x2, lsl #1
   82c40:	71001cdf 	cmp	w6, #0x7
   82c44:	8b020066 	add	x6, x3, x2
   82c48:	531f78a5 	lsl	w5, w5, #1
   82c4c:	38226869 	strb	w9, [x3, x2]
   82c50:	9a830143 	csel	x3, x10, x3, eq  // eq = none
   82c54:	390004c8 	strb	w8, [x6, #1]
   82c58:	7100809f 	cmp	w4, #0x20
   82c5c:	390008c7 	strb	w7, [x6, #2]
   82c60:	54fffd81 	b.ne	82c10 <WriteChar24+0x48>  // b.any
   82c64:	11000421 	add	w1, w1, #0x1
   82c68:	6b0e003f 	cmp	w1, w14
   82c6c:	54fffcc1 	b.ne	82c04 <WriteChar24+0x3c>  // b.any
   82c70:	110021ad 	add	w13, w13, #0x8
   82c74:	b900180d 	str	w13, [x0, #24]
   82c78:	d65f03c0 	ret
   82c7c:	d503201f 	nop

0000000000082c80 <TransparentWriteChar24>:
   82c80:	2942b402 	ldp	w2, w13, [x0, #20]
   82c84:	531e1c21 	ubfiz	w1, w1, #2, #8
   82c88:	29401006 	ldp	w6, w4, [x0]
   82c8c:	b000002c 	adrp	x12, 87000 <init_page_table+0x2a8>
   82c90:	b9401c05 	ldr	w5, [x0, #28]
   82c94:	0b020443 	add	w3, w2, w2, lsl #1
   82c98:	2a0203ea 	mov	w10, w2
   82c9c:	0b0d05a2 	add	w2, w13, w13, lsl #1
   82ca0:	aa0480c4 	orr	x4, x6, x4, lsl #32
   82ca4:	1100102e 	add	w14, w1, #0x4
   82ca8:	8b22c082 	add	x2, x4, w2, sxtw
   82cac:	911ae18c 	add	x12, x12, #0x6b8
   82cb0:	1b057c63 	mul	w3, w3, w5
   82cb4:	8b0a054a 	add	x10, x10, x10, lsl #1
   82cb8:	8b020063 	add	x3, x3, x2
   82cbc:	b8615984 	ldr	w4, [x12, w1, uxtw #2]
   82cc0:	52800002 	mov	w2, #0x0                   	// #0
   82cc4:	d503201f 	nop
   82cc8:	12000846 	and	w6, w2, #0x7
   82ccc:	8b0a0067 	add	x7, x3, x10
   82cd0:	11000442 	add	w2, w2, #0x1
   82cd4:	36f80144 	tbz	w4, #31, 82cfc <TransparentWriteChar24+0x7c>
   82cd8:	93407cc5 	sxtw	x5, w6
   82cdc:	3940a00b 	ldrb	w11, [x0, #40]
   82ce0:	8b0504a5 	add	x5, x5, x5, lsl #1
   82ce4:	8b050068 	add	x8, x3, x5
   82ce8:	3825686b 	strb	w11, [x3, x5]
   82cec:	3940a405 	ldrb	w5, [x0, #41]
   82cf0:	39000505 	strb	w5, [x8, #1]
   82cf4:	3940a805 	ldrb	w5, [x0, #42]
   82cf8:	39000905 	strb	w5, [x8, #2]
   82cfc:	71001cdf 	cmp	w6, #0x7
   82d00:	531f7884 	lsl	w4, w4, #1
   82d04:	9a8300e3 	csel	x3, x7, x3, eq  // eq = none
   82d08:	7100805f 	cmp	w2, #0x20
   82d0c:	54fffde1 	b.ne	82cc8 <TransparentWriteChar24+0x48>  // b.any
   82d10:	11000421 	add	w1, w1, #0x1
   82d14:	6b0101df 	cmp	w14, w1
   82d18:	54fffd21 	b.ne	82cbc <TransparentWriteChar24+0x3c>  // b.any
   82d1c:	110021ad 	add	w13, w13, #0x8
   82d20:	b900180d 	str	w13, [x0, #24]
   82d24:	d65f03c0 	ret

0000000000082d28 <PutImage24>:
   82d28:	29429407 	ldp	w7, w5, [x0, #20]
   82d2c:	12001c84 	and	w4, w4, #0xff
   82d30:	29401809 	ldp	w9, w6, [x0]
   82d34:	b9401c08 	ldr	w8, [x0, #28]
   82d38:	0b0704e0 	add	w0, w7, w7, lsl #1
   82d3c:	0b0504a5 	add	w5, w5, w5, lsl #1
   82d40:	aa068126 	orr	x6, x9, x6, lsl #32
   82d44:	8b25c0c6 	add	x6, x6, w5, sxtw
   82d48:	1b087c00 	mul	w0, w0, w8
   82d4c:	8b0000c6 	add	x6, x6, x0
   82d50:	340003e2 	cbz	w2, 82dcc <PutImage24+0xa4>
   82d54:	2a0703ea 	mov	w10, w7
   82d58:	8b0a054a 	add	x10, x10, x10, lsl #1
   82d5c:	cb0a03eb 	neg	x11, x10
   82d60:	34000361 	cbz	w1, 82dcc <PutImage24+0xa4>
   82d64:	51000428 	sub	w8, w1, #0x1
   82d68:	52800009 	mov	w9, #0x0                   	// #0
   82d6c:	91000508 	add	x8, x8, #0x1
   82d70:	8b080508 	add	x8, x8, x8, lsl #1
   82d74:	d503201f 	nop
   82d78:	d2800000 	mov	x0, #0x0                   	// #0
   82d7c:	d503201f 	nop
   82d80:	38606861 	ldrb	w1, [x3, x0]
   82d84:	8b000065 	add	x5, x3, x0
   82d88:	382068c1 	strb	w1, [x6, x0]
   82d8c:	8b0000c1 	add	x1, x6, x0
   82d90:	91000c00 	add	x0, x0, #0x3
   82d94:	394004a7 	ldrb	w7, [x5, #1]
   82d98:	eb08001f 	cmp	x0, x8
   82d9c:	39000427 	strb	w7, [x1, #1]
   82da0:	394008a5 	ldrb	w5, [x5, #2]
   82da4:	39000825 	strb	w5, [x1, #2]
   82da8:	54fffec1 	b.ne	82d80 <PutImage24+0x58>  // b.any
   82dac:	7100009f 	cmp	w4, #0x0
   82db0:	8b0b00c0 	add	x0, x6, x11
   82db4:	11000529 	add	w9, w9, #0x1
   82db8:	8b0a00c6 	add	x6, x6, x10
   82dbc:	9a8000c6 	csel	x6, x6, x0, eq  // eq = none
   82dc0:	8b080063 	add	x3, x3, x8
   82dc4:	6b09005f 	cmp	w2, w9
   82dc8:	54fffd81 	b.ne	82d78 <PutImage24+0x50>  // b.any
   82dcc:	d65f03c0 	ret

0000000000082dd0 <SetPixel32>:
   82dd0:	d10083ff 	sub	sp, sp, #0x20
   82dd4:	531e7442 	lsl	w2, w2, #2
   82dd8:	29401406 	ldp	w6, w5, [x0]
   82ddc:	b9000be3 	str	w3, [sp, #8]
   82de0:	b9401404 	ldr	w4, [x0, #20]
   82de4:	aa0580c5 	orr	x5, x6, x5, lsl #32
   82de8:	2a0303e0 	mov	w0, w3
   82dec:	1b047c44 	mul	w4, w2, w4
   82df0:	8b2440a4 	add	x4, x5, w4, uxtw
   82df4:	8b224082 	add	x2, x4, w2, uxtw
   82df8:	b8215843 	str	w3, [x2, w1, uxtw #2]
   82dfc:	910083ff 	add	sp, sp, #0x20
   82e00:	d65f03c0 	ret
   82e04:	d503201f 	nop

0000000000082e08 <ClearArea32>:
   82e08:	b9401406 	ldr	w6, [x0, #20]
   82e0c:	531e7445 	lsl	w5, w2, #2
   82e10:	6b020084 	subs	w4, w4, w2
   82e14:	29400807 	ldp	w7, w2, [x0]
   82e18:	1b067ca6 	mul	w6, w5, w6
   82e1c:	aa0280e2 	orr	x2, x7, x2, lsl #32
   82e20:	8b254045 	add	x5, x2, w5, uxtw
   82e24:	8b2640a6 	add	x6, x5, w6, uxtw
   82e28:	54000260 	b.eq	82e74 <ClearArea32+0x6c>  // b.none
   82e2c:	6b010063 	subs	w3, w3, w1
   82e30:	54000220 	b.eq	82e74 <ClearArea32+0x6c>  // b.none
   82e34:	51000463 	sub	w3, w3, #0x1
   82e38:	d2800088 	mov	x8, #0x4                   	// #4
   82e3c:	9100c005 	add	x5, x0, #0x30
   82e40:	8b234908 	add	x8, x8, w3, uxtw #2
   82e44:	52800007 	mov	w7, #0x0                   	// #0
   82e48:	aa0603e1 	mov	x1, x6
   82e4c:	8b060103 	add	x3, x8, x6
   82e50:	b94000a2 	ldr	w2, [x5]
   82e54:	b8004422 	str	w2, [x1], #4
   82e58:	eb01007f 	cmp	x3, x1
   82e5c:	54ffffa1 	b.ne	82e50 <ClearArea32+0x48>  // b.any
   82e60:	b9401401 	ldr	w1, [x0, #20]
   82e64:	110004e7 	add	w7, w7, #0x1
   82e68:	6b0400ff 	cmp	w7, w4
   82e6c:	8b0108c6 	add	x6, x6, x1, lsl #2
   82e70:	54fffec1 	b.ne	82e48 <ClearArea32+0x40>  // b.any
   82e74:	d65f03c0 	ret

0000000000082e78 <VertLine32>:
   82e78:	29429003 	ldp	w3, w4, [x0, #20]
   82e7c:	b9401c06 	ldr	w6, [x0, #28]
   82e80:	29401407 	ldp	w7, w5, [x0]
   82e84:	531e7463 	lsl	w3, w3, #2
   82e88:	531e7484 	lsl	w4, w4, #2
   82e8c:	1b067c63 	mul	w3, w3, w6
   82e90:	aa0580e5 	orr	x5, x7, x5, lsl #32
   82e94:	8b24c0a4 	add	x4, x5, w4, sxtw
   82e98:	8b234083 	add	x3, x4, w3, uxtw
   82e9c:	340001a1 	cbz	w1, 82ed0 <VertLine32+0x58>
   82ea0:	9100a006 	add	x6, x0, #0x28
   82ea4:	52800004 	mov	w4, #0x0                   	// #0
   82ea8:	7100045f 	cmp	w2, #0x1
   82eac:	54000180 	b.eq	82edc <VertLine32+0x64>  // b.none
   82eb0:	b94000c5 	ldr	w5, [x6]
   82eb4:	11000484 	add	w4, w4, #0x1
   82eb8:	b9000065 	str	w5, [x3]
   82ebc:	6b04003f 	cmp	w1, w4
   82ec0:	b9401405 	ldr	w5, [x0, #20]
   82ec4:	cb050863 	sub	x3, x3, x5, lsl #2
   82ec8:	54ffff41 	b.ne	82eb0 <VertLine32+0x38>  // b.any
   82ecc:	b9401c06 	ldr	w6, [x0, #28]
   82ed0:	1b011841 	madd	w1, w2, w1, w6
   82ed4:	b9001c01 	str	w1, [x0, #28]
   82ed8:	d65f03c0 	ret
   82edc:	b94000c5 	ldr	w5, [x6]
   82ee0:	11000484 	add	w4, w4, #0x1
   82ee4:	b9000065 	str	w5, [x3]
   82ee8:	6b04003f 	cmp	w1, w4
   82eec:	b9401405 	ldr	w5, [x0, #20]
   82ef0:	8b050863 	add	x3, x3, x5, lsl #2
   82ef4:	54fffec0 	b.eq	82ecc <VertLine32+0x54>  // b.none
   82ef8:	b94000c5 	ldr	w5, [x6]
   82efc:	11000484 	add	w4, w4, #0x1
   82f00:	b9000065 	str	w5, [x3]
   82f04:	6b04003f 	cmp	w1, w4
   82f08:	b9401405 	ldr	w5, [x0, #20]
   82f0c:	8b050863 	add	x3, x3, x5, lsl #2
   82f10:	54fffe61 	b.ne	82edc <VertLine32+0x64>  // b.any
   82f14:	17ffffee 	b	82ecc <VertLine32+0x54>

0000000000082f18 <HorzLine32>:
   82f18:	29429803 	ldp	w3, w6, [x0, #20]
   82f1c:	b9401c07 	ldr	w7, [x0, #28]
   82f20:	29401408 	ldp	w8, w5, [x0]
   82f24:	531e7463 	lsl	w3, w3, #2
   82f28:	531e74c4 	lsl	w4, w6, #2
   82f2c:	1b077c63 	mul	w3, w3, w7
   82f30:	aa058105 	orr	x5, x8, x5, lsl #32
   82f34:	8b24c0a4 	add	x4, x5, w4, sxtw
   82f38:	8b234083 	add	x3, x4, w3, uxtw
   82f3c:	34000181 	cbz	w1, 82f6c <HorzLine32+0x54>
   82f40:	937e7c47 	sbfiz	x7, x2, #2, #32
   82f44:	9100a006 	add	x6, x0, #0x28
   82f48:	52800004 	mov	w4, #0x0                   	// #0
   82f4c:	d503201f 	nop
   82f50:	b94000c5 	ldr	w5, [x6]
   82f54:	11000484 	add	w4, w4, #0x1
   82f58:	b9000065 	str	w5, [x3]
   82f5c:	6b04003f 	cmp	w1, w4
   82f60:	8b070063 	add	x3, x3, x7
   82f64:	54ffff61 	b.ne	82f50 <HorzLine32+0x38>  // b.any
   82f68:	b9401806 	ldr	w6, [x0, #24]
   82f6c:	1b011841 	madd	w1, w2, w1, w6
   82f70:	b9001801 	str	w1, [x0, #24]
   82f74:	d65f03c0 	ret

0000000000082f78 <DiagLine32>:
   82f78:	2942a405 	ldp	w5, w9, [x0, #20]
   82f7c:	6b02003f 	cmp	w1, w2
   82f80:	b9401c08 	ldr	w8, [x0, #28]
   82f84:	1a829022 	csel	w2, w1, w2, ls  // ls = plast
   82f88:	29401c0a 	ldp	w10, w7, [x0]
   82f8c:	531e74a5 	lsl	w5, w5, #2
   82f90:	531e7526 	lsl	w6, w9, #2
   82f94:	1b087ca5 	mul	w5, w5, w8
   82f98:	aa078147 	orr	x7, x10, x7, lsl #32
   82f9c:	8b26c0e6 	add	x6, x7, w6, sxtw
   82fa0:	8b2540c5 	add	x5, x6, w5, uxtw
   82fa4:	34000261 	cbz	w1, 82ff0 <DiagLine32+0x78>
   82fa8:	937e7c6a 	sbfiz	x10, x3, #2, #32
   82fac:	9100a009 	add	x9, x0, #0x28
   82fb0:	52800007 	mov	w7, #0x0                   	// #0
   82fb4:	52800006 	mov	w6, #0x0                   	// #0
   82fb8:	b9400128 	ldr	w8, [x9]
   82fbc:	0b0200c6 	add	w6, w6, w2
   82fc0:	b90000a8 	str	w8, [x5]
   82fc4:	110004e7 	add	w7, w7, #0x1
   82fc8:	6b06003f 	cmp	w1, w6
   82fcc:	8b0a00a5 	add	x5, x5, x10
   82fd0:	540000a8 	b.hi	82fe4 <DiagLine32+0x6c>  // b.pmore
   82fd4:	b9401408 	ldr	w8, [x0, #20]
   82fd8:	4b0100c6 	sub	w6, w6, w1
   82fdc:	1b087c88 	mul	w8, w4, w8
   82fe0:	8b0808a5 	add	x5, x5, x8, lsl #2
   82fe4:	6b07003f 	cmp	w1, w7
   82fe8:	54fffe81 	b.ne	82fb8 <DiagLine32+0x40>  // b.any
   82fec:	29432009 	ldp	w9, w8, [x0, #24]
   82ff0:	1b012461 	madd	w1, w3, w1, w9
   82ff4:	1b042042 	madd	w2, w2, w4, w8
   82ff8:	29030801 	stp	w1, w2, [x0, #24]
   82ffc:	d65f03c0 	ret

0000000000083000 <WriteChar32>:
   83000:	29428807 	ldp	w7, w2, [x0, #20]
   83004:	531e1c21 	ubfiz	w1, w1, #2, #8
   83008:	b9401c04 	ldr	w4, [x0, #28]
   8300c:	90000028 	adrp	x8, 87000 <init_page_table+0x2a8>
   83010:	29400c05 	ldp	w5, w3, [x0]
   83014:	531e74e7 	lsl	w7, w7, #2
   83018:	531e7442 	lsl	w2, w2, #2
   8301c:	d10043ff 	sub	sp, sp, #0x10
   83020:	11001029 	add	w9, w1, #0x4
   83024:	911ae108 	add	x8, x8, #0x6b8
   83028:	1b047ce7 	mul	w7, w7, w4
   8302c:	aa0380a3 	orr	x3, x5, x3, lsl #32
   83030:	8b22c062 	add	x2, x3, w2, sxtw
   83034:	8b274047 	add	x7, x2, w7, uxtw
   83038:	b8615903 	ldr	w3, [x8, w1, uxtw #2]
   8303c:	52800002 	mov	w2, #0x0                   	// #0
   83040:	1400000e 	b	83078 <WriteChar32+0x78>
   83044:	b9402c05 	ldr	w5, [x0, #44]
   83048:	b9000be5 	str	w5, [sp, #8]
   8304c:	2a0403e5 	mov	w5, w4
   83050:	b9400be6 	ldr	w6, [sp, #8]
   83054:	11000442 	add	w2, w2, #0x1
   83058:	71001c9f 	cmp	w4, #0x7
   8305c:	531f7863 	lsl	w3, w3, #1
   83060:	b82578e6 	str	w6, [x7, x5, lsl #2]
   83064:	54000061 	b.ne	83070 <WriteChar32+0x70>  // b.any
   83068:	b9401404 	ldr	w4, [x0, #20]
   8306c:	8b0408e7 	add	x7, x7, x4, lsl #2
   83070:	7100805f 	cmp	w2, #0x20
   83074:	540000c0 	b.eq	8308c <WriteChar32+0x8c>  // b.none
   83078:	12000844 	and	w4, w2, #0x7
   8307c:	36fffe43 	tbz	w3, #31, 83044 <WriteChar32+0x44>
   83080:	b9402805 	ldr	w5, [x0, #40]
   83084:	b9000be5 	str	w5, [sp, #8]
   83088:	17fffff1 	b	8304c <WriteChar32+0x4c>
   8308c:	11000421 	add	w1, w1, #0x1
   83090:	6b01013f 	cmp	w9, w1
   83094:	54fffd21 	b.ne	83038 <WriteChar32+0x38>  // b.any
   83098:	b9401801 	ldr	w1, [x0, #24]
   8309c:	11002021 	add	w1, w1, #0x8
   830a0:	b9001801 	str	w1, [x0, #24]
   830a4:	910043ff 	add	sp, sp, #0x10
   830a8:	d65f03c0 	ret
   830ac:	d503201f 	nop

00000000000830b0 <TransparentWriteChar32>:
   830b0:	29428806 	ldp	w6, w2, [x0, #20]
   830b4:	531e1c21 	ubfiz	w1, w1, #2, #8
   830b8:	b9401c04 	ldr	w4, [x0, #28]
   830bc:	90000028 	adrp	x8, 87000 <init_page_table+0x2a8>
   830c0:	29400c05 	ldp	w5, w3, [x0]
   830c4:	531e74c6 	lsl	w6, w6, #2
   830c8:	531e7442 	lsl	w2, w2, #2
   830cc:	11001029 	add	w9, w1, #0x4
   830d0:	911ae108 	add	x8, x8, #0x6b8
   830d4:	1b047cc6 	mul	w6, w6, w4
   830d8:	aa0380a3 	orr	x3, x5, x3, lsl #32
   830dc:	8b22c062 	add	x2, x3, w2, sxtw
   830e0:	8b264046 	add	x6, x2, w6, uxtw
   830e4:	b8615903 	ldr	w3, [x8, w1, uxtw #2]
   830e8:	52800002 	mov	w2, #0x0                   	// #0
   830ec:	d503201f 	nop
   830f0:	12000844 	and	w4, w2, #0x7
   830f4:	11000442 	add	w2, w2, #0x1
   830f8:	36f80083 	tbz	w3, #31, 83108 <TransparentWriteChar32+0x58>
   830fc:	2a0403e5 	mov	w5, w4
   83100:	b9402807 	ldr	w7, [x0, #40]
   83104:	b82578c7 	str	w7, [x6, x5, lsl #2]
   83108:	71001c9f 	cmp	w4, #0x7
   8310c:	531f7863 	lsl	w3, w3, #1
   83110:	54000061 	b.ne	8311c <TransparentWriteChar32+0x6c>  // b.any
   83114:	b9401404 	ldr	w4, [x0, #20]
   83118:	8b0408c6 	add	x6, x6, x4, lsl #2
   8311c:	7100805f 	cmp	w2, #0x20
   83120:	54fffe81 	b.ne	830f0 <TransparentWriteChar32+0x40>  // b.any
   83124:	11000421 	add	w1, w1, #0x1
   83128:	6b01013f 	cmp	w9, w1
   8312c:	54fffdc1 	b.ne	830e4 <TransparentWriteChar32+0x34>  // b.any
   83130:	b9401801 	ldr	w1, [x0, #24]
   83134:	11002021 	add	w1, w1, #0x8
   83138:	b9001801 	str	w1, [x0, #24]
   8313c:	d65f03c0 	ret

0000000000083140 <PutImage32>:
   83140:	29429406 	ldp	w6, w5, [x0, #20]
   83144:	12001c84 	and	w4, w4, #0xff
   83148:	b9401c08 	ldr	w8, [x0, #28]
   8314c:	29401c09 	ldp	w9, w7, [x0]
   83150:	531e74c6 	lsl	w6, w6, #2
   83154:	531e74a5 	lsl	w5, w5, #2
   83158:	1b087cc6 	mul	w6, w6, w8
   8315c:	aa078127 	orr	x7, x9, x7, lsl #32
   83160:	8b25c0e5 	add	x5, x7, w5, sxtw
   83164:	8b2640a6 	add	x6, x5, w6, uxtw
   83168:	340002e2 	cbz	w2, 831c4 <PutImage32+0x84>
   8316c:	340002c1 	cbz	w1, 831c4 <PutImage32+0x84>
   83170:	51000427 	sub	w7, w1, #0x1
   83174:	52800008 	mov	w8, #0x0                   	// #0
   83178:	910004e7 	add	x7, x7, #0x1
   8317c:	d37ef4e7 	lsl	x7, x7, #2
   83180:	d2800001 	mov	x1, #0x0                   	// #0
   83184:	d503201f 	nop
   83188:	b8616865 	ldr	w5, [x3, x1]
   8318c:	b82168c5 	str	w5, [x6, x1]
   83190:	91001021 	add	x1, x1, #0x4
   83194:	eb0100ff 	cmp	x7, x1
   83198:	54ffff81 	b.ne	83188 <PutImage32+0x48>  // b.any
   8319c:	b9401401 	ldr	w1, [x0, #20]
   831a0:	7100009f 	cmp	w4, #0x0
   831a4:	11000508 	add	w8, w8, #0x1
   831a8:	8b070063 	add	x3, x3, x7
   831ac:	d37ef421 	lsl	x1, x1, #2
   831b0:	cb0100c5 	sub	x5, x6, x1
   831b4:	8b0100c6 	add	x6, x6, x1
   831b8:	9a8500c6 	csel	x6, x6, x5, eq  // eq = none
   831bc:	6b08005f 	cmp	w2, w8
   831c0:	54fffe01 	b.ne	83180 <PutImage32+0x40>  // b.any
   831c4:	d65f03c0 	ret

00000000000831c8 <mailbox_tag_message.constprop.6>:
   831c8:	a9b27bf3 	stp	x19, x30, [sp, #-224]!
   831cc:	d2800407 	mov	x7, #0x20                  	// #32
   831d0:	aa0003f3 	mov	x19, x0
   831d4:	910383e1 	add	x1, sp, #0xe0
   831d8:	a90b8fe2 	stp	x2, x3, [sp, #184]
   831dc:	cb070028 	sub	x8, x1, x7
   831e0:	a90c97e4 	stp	x4, x5, [sp, #200]
   831e4:	f9006fe6 	str	x6, [sp, #216]
   831e8:	128001e1 	mov	w1, #0xfffffff0            	// #-16
   831ec:	b940cbe3 	ldr	w3, [sp, #200]
   831f0:	910383e6 	add	x6, sp, #0xe0
   831f4:	b9400104 	ldr	w4, [x8]
   831f8:	9102c3e5 	add	x5, sp, #0xb0
   831fc:	a9011be6 	stp	x6, x6, [sp, #16]
   83200:	2a0103e0 	mov	w0, w1
   83204:	f90013e5 	str	x5, [sp, #32]
   83208:	29057fe1 	stp	w1, wzr, [sp, #40]
   8320c:	aa0603e1 	mov	x1, x6
   83210:	f9001be7 	str	x7, [sp, #48]
   83214:	b9003be2 	str	w2, [sp, #56]
   83218:	aa0603e2 	mov	x2, x6
   8321c:	29078fe4 	stp	w4, w3, [sp, #60]
   83220:	b9004fff 	str	wzr, [sp, #76]
   83224:	37f80600 	tbnz	w0, #31, 832e4 <mailbox_tag_message.constprop.6+0x11c>
   83228:	910020c2 	add	x2, x6, #0x8
   8322c:	f9000be2 	str	x2, [sp, #16]
   83230:	b9400021 	ldr	w1, [x1]
   83234:	b90047e1 	str	w1, [sp, #68]
   83238:	36f800a0 	tbz	w0, #31, 8324c <mailbox_tag_message.constprop.6+0x84>
   8323c:	31001c1f 	cmn	w0, #0x7
   83240:	5400006a 	b.ge	8324c <mailbox_tag_message.constprop.6+0x84>  // b.tcont
   83244:	f9400fe2 	ldr	x2, [sp, #24]
   83248:	8b20c042 	add	x2, x2, w0, sxtw
   8324c:	b9400041 	ldr	w1, [x2]
   83250:	9100c3e0 	add	x0, sp, #0x30
   83254:	b9004be1 	str	w1, [sp, #72]
   83258:	97fff572 	bl	80820 <ARMaddrToGPUaddr>
   8325c:	121c6c00 	and	w0, w0, #0xfffffff0
   83260:	b0000021 	adrp	x1, 88000 <BitFont+0x948>
   83264:	321d0002 	orr	w2, w0, #0x8
   83268:	52971000 	mov	w0, #0xb880                	// #47232
   8326c:	b9484021 	ldr	w1, [x1, #2112]
   83270:	0b000021 	add	w1, w1, w0
   83274:	d503201f 	nop
   83278:	b9403820 	ldr	w0, [x1, #56]
   8327c:	37ffffe0 	tbnz	w0, #31, 83278 <mailbox_tag_message.constprop.6+0xb0>
   83280:	b9002022 	str	w2, [x1, #32]
   83284:	d503201f 	nop
   83288:	b9401820 	ldr	w0, [x1, #24]
   8328c:	37f7ffe0 	tbnz	w0, #30, 83288 <mailbox_tag_message.constprop.6+0xc0>
   83290:	b9400020 	ldr	w0, [x1]
   83294:	12000c00 	and	w0, w0, #0xf
   83298:	7100201f 	cmp	w0, #0x8
   8329c:	54ffff61 	b.ne	83288 <mailbox_tag_message.constprop.6+0xc0>  // b.any
   832a0:	b94037e2 	ldr	w2, [sp, #52]
   832a4:	52b00001 	mov	w1, #0x80000000            	// #-2147483648
   832a8:	52800000 	mov	w0, #0x0                   	// #0
   832ac:	6b01005f 	cmp	w2, w1
   832b0:	54000060 	b.eq	832bc <mailbox_tag_message.constprop.6+0xf4>  // b.none
   832b4:	a8ce7bf3 	ldp	x19, x30, [sp], #224
   832b8:	d65f03c0 	ret
   832bc:	b40000f3 	cbz	x19, 832d8 <mailbox_tag_message.constprop.6+0x110>
   832c0:	29470fe4 	ldp	w4, w3, [sp, #56]
   832c4:	29000e64 	stp	w4, w3, [x19]
   832c8:	294807e2 	ldp	w2, w1, [sp, #64]
   832cc:	29010662 	stp	w2, w1, [x19, #8]
   832d0:	b9404be0 	ldr	w0, [sp, #72]
   832d4:	b9001260 	str	w0, [x19, #16]
   832d8:	52800020 	mov	w0, #0x1                   	// #1
   832dc:	a8ce7bf3 	ldp	x19, x30, [sp], #224
   832e0:	d65f03c0 	ret
   832e4:	11002003 	add	w3, w0, #0x8
   832e8:	b9002be3 	str	w3, [sp, #40]
   832ec:	7100007f 	cmp	w3, #0x0
   832f0:	540000ad 	b.le	83304 <mailbox_tag_message.constprop.6+0x13c>
   832f4:	910020c2 	add	x2, x6, #0x8
   832f8:	2a0303e0 	mov	w0, w3
   832fc:	f9000be2 	str	x2, [sp, #16]
   83300:	17ffffcc 	b	83230 <mailbox_tag_message.constprop.6+0x68>
   83304:	f9400fe1 	ldr	x1, [sp, #24]
   83308:	8b20c021 	add	x1, x1, w0, sxtw
   8330c:	2a0303e0 	mov	w0, w3
   83310:	17ffffc8 	b	83230 <mailbox_tag_message.constprop.6+0x68>
   83314:	d503201f 	nop

0000000000083318 <mailbox_tag_message.constprop.7>:
   83318:	a9b37bf3 	stp	x19, x30, [sp, #-208]!
   8331c:	128000e6 	mov	w6, #0xfffffff8            	// #-8
   83320:	d2800381 	mov	x1, #0x1c                  	// #28
   83324:	aa0003f3 	mov	x19, x0
   83328:	9102c3e7 	add	x7, sp, #0xb0
   8332c:	f90013e7 	str	x7, [sp, #32]
   83330:	29057fe6 	stp	w6, wzr, [sp, #40]
   83334:	31001cdf 	cmn	w6, #0x7
   83338:	f9001be1 	str	x1, [sp, #48]
   8333c:	29070fe2 	stp	w2, w3, [sp, #56]
   83340:	b90043e4 	str	w4, [sp, #64]
   83344:	b9004bff 	str	wzr, [sp, #72]
   83348:	a90b0fe2 	stp	x2, x3, [sp, #176]
   8334c:	a90c17e4 	stp	x4, x5, [sp, #192]
   83350:	910343e5 	add	x5, sp, #0xd0
   83354:	a90117e5 	stp	x5, x5, [sp, #16]
   83358:	aa0503e0 	mov	x0, x5
   8335c:	5400004a 	b.ge	83364 <mailbox_tag_message.constprop.7+0x4c>  // b.tcont
   83360:	8b26c0a0 	add	x0, x5, w6, sxtw
   83364:	b9400001 	ldr	w1, [x0]
   83368:	9100c3e0 	add	x0, sp, #0x30
   8336c:	b90047e1 	str	w1, [sp, #68]
   83370:	97fff52c 	bl	80820 <ARMaddrToGPUaddr>
   83374:	121c6c00 	and	w0, w0, #0xfffffff0
   83378:	b0000021 	adrp	x1, 88000 <BitFont+0x948>
   8337c:	321d0002 	orr	w2, w0, #0x8
   83380:	52971000 	mov	w0, #0xb880                	// #47232
   83384:	b9484021 	ldr	w1, [x1, #2112]
   83388:	0b000021 	add	w1, w1, w0
   8338c:	d503201f 	nop
   83390:	b9403820 	ldr	w0, [x1, #56]
   83394:	37ffffe0 	tbnz	w0, #31, 83390 <mailbox_tag_message.constprop.7+0x78>
   83398:	b9002022 	str	w2, [x1, #32]
   8339c:	d503201f 	nop
   833a0:	b9401820 	ldr	w0, [x1, #24]
   833a4:	37f7ffe0 	tbnz	w0, #30, 833a0 <mailbox_tag_message.constprop.7+0x88>
   833a8:	b9400020 	ldr	w0, [x1]
   833ac:	12000c00 	and	w0, w0, #0xf
   833b0:	7100201f 	cmp	w0, #0x8
   833b4:	54ffff61 	b.ne	833a0 <mailbox_tag_message.constprop.7+0x88>  // b.any
   833b8:	b94037e2 	ldr	w2, [sp, #52]
   833bc:	52b00001 	mov	w1, #0x80000000            	// #-2147483648
   833c0:	52800000 	mov	w0, #0x0                   	// #0
   833c4:	6b01005f 	cmp	w2, w1
   833c8:	54000060 	b.eq	833d4 <mailbox_tag_message.constprop.7+0xbc>  // b.none
   833cc:	a8cd7bf3 	ldp	x19, x30, [sp], #208
   833d0:	d65f03c0 	ret
   833d4:	52800020 	mov	w0, #0x1                   	// #1
   833d8:	b4ffffb3 	cbz	x19, 833cc <mailbox_tag_message.constprop.7+0xb4>
   833dc:	29470fe4 	ldp	w4, w3, [sp, #56]
   833e0:	29000e64 	stp	w4, w3, [x19]
   833e4:	294807e2 	ldp	w2, w1, [sp, #64]
   833e8:	29010662 	stp	w2, w1, [x19, #8]
   833ec:	a8cd7bf3 	ldp	x19, x30, [sp], #208
   833f0:	d65f03c0 	ret
   833f4:	d503201f 	nop

00000000000833f8 <mailbox_tag_message.constprop.5>:
   833f8:	f8120ffe 	str	x30, [sp, #-224]!
   833fc:	d2800401 	mov	x1, #0x20                  	// #32
   83400:	910383e0 	add	x0, sp, #0xe0
   83404:	a90b8fe2 	stp	x2, x3, [sp, #184]
   83408:	cb010007 	sub	x7, x0, x1
   8340c:	a90c97e4 	stp	x4, x5, [sp, #200]
   83410:	f9006fe6 	str	x6, [sp, #216]
   83414:	128001e0 	mov	w0, #0xfffffff0            	// #-16
   83418:	b940cbe3 	ldr	w3, [sp, #200]
   8341c:	910383e6 	add	x6, sp, #0xe0
   83420:	b94000e4 	ldr	w4, [x7]
   83424:	9102c3e5 	add	x5, sp, #0xb0
   83428:	a9011be6 	stp	x6, x6, [sp, #16]
   8342c:	f90013e5 	str	x5, [sp, #32]
   83430:	29057fe0 	stp	w0, wzr, [sp, #40]
   83434:	f9001be1 	str	x1, [sp, #48]
   83438:	aa0603e1 	mov	x1, x6
   8343c:	b9003be2 	str	w2, [sp, #56]
   83440:	aa0603e2 	mov	x2, x6
   83444:	29078fe4 	stp	w4, w3, [sp, #60]
   83448:	b9004fff 	str	wzr, [sp, #76]
   8344c:	37f804a0 	tbnz	w0, #31, 834e0 <mailbox_tag_message.constprop.5+0xe8>
   83450:	910020c1 	add	x1, x6, #0x8
   83454:	f9000be1 	str	x1, [sp, #16]
   83458:	b9400042 	ldr	w2, [x2]
   8345c:	b90047e2 	str	w2, [sp, #68]
   83460:	36f800a0 	tbz	w0, #31, 83474 <mailbox_tag_message.constprop.5+0x7c>
   83464:	31001c1f 	cmn	w0, #0x7
   83468:	5400006a 	b.ge	83474 <mailbox_tag_message.constprop.5+0x7c>  // b.tcont
   8346c:	f9400fe1 	ldr	x1, [sp, #24]
   83470:	8b20c021 	add	x1, x1, w0, sxtw
   83474:	b9400021 	ldr	w1, [x1]
   83478:	9100c3e0 	add	x0, sp, #0x30
   8347c:	b9004be1 	str	w1, [sp, #72]
   83480:	97fff4e8 	bl	80820 <ARMaddrToGPUaddr>
   83484:	121c6c00 	and	w0, w0, #0xfffffff0
   83488:	b0000021 	adrp	x1, 88000 <BitFont+0x948>
   8348c:	321d0002 	orr	w2, w0, #0x8
   83490:	52971000 	mov	w0, #0xb880                	// #47232
   83494:	b9484021 	ldr	w1, [x1, #2112]
   83498:	0b000021 	add	w1, w1, w0
   8349c:	d503201f 	nop
   834a0:	b9403820 	ldr	w0, [x1, #56]
   834a4:	37ffffe0 	tbnz	w0, #31, 834a0 <mailbox_tag_message.constprop.5+0xa8>
   834a8:	b9002022 	str	w2, [x1, #32]
   834ac:	d503201f 	nop
   834b0:	b9401820 	ldr	w0, [x1, #24]
   834b4:	37f7ffe0 	tbnz	w0, #30, 834b0 <mailbox_tag_message.constprop.5+0xb8>
   834b8:	b9400020 	ldr	w0, [x1]
   834bc:	12000c00 	and	w0, w0, #0xf
   834c0:	7100201f 	cmp	w0, #0x8
   834c4:	54ffff61 	b.ne	834b0 <mailbox_tag_message.constprop.5+0xb8>  // b.any
   834c8:	b94037e1 	ldr	w1, [sp, #52]
   834cc:	52b00000 	mov	w0, #0x80000000            	// #-2147483648
   834d0:	f84e07fe 	ldr	x30, [sp], #224
   834d4:	6b00003f 	cmp	w1, w0
   834d8:	1a9f17e0 	cset	w0, eq  // eq = none
   834dc:	d65f03c0 	ret
   834e0:	11002003 	add	w3, w0, #0x8
   834e4:	b9002be3 	str	w3, [sp, #40]
   834e8:	7100007f 	cmp	w3, #0x0
   834ec:	540000ad 	b.le	83500 <mailbox_tag_message.constprop.5+0x108>
   834f0:	910020c1 	add	x1, x6, #0x8
   834f4:	2a0303e0 	mov	w0, w3
   834f8:	f9000be1 	str	x1, [sp, #16]
   834fc:	17ffffd7 	b	83458 <mailbox_tag_message.constprop.5+0x60>
   83500:	f9400fe2 	ldr	x2, [sp, #24]
   83504:	8b20c042 	add	x2, x2, w0, sxtw
   83508:	2a0303e0 	mov	w0, w3
   8350c:	17ffffd3 	b	83458 <mailbox_tag_message.constprop.5+0x60>

0000000000083510 <mailbox_tag_message.constprop.8>:
   83510:	a9b153f3 	stp	x19, x20, [sp, #-240]!
   83514:	d2800d08 	mov	x8, #0x68                  	// #104
   83518:	128005e1 	mov	w1, #0xffffffd0            	// #-48
   8351c:	aa0003f4 	mov	x20, x0
   83520:	910303f3 	add	x19, sp, #0xc0
   83524:	f9000bfe 	str	x30, [sp, #16]
   83528:	2a0103ea 	mov	w10, w1
   8352c:	9103c3ec 	add	x12, sp, #0xf0
   83530:	910303eb 	add	x11, sp, #0xc0
   83534:	a90233ec 	stp	x12, x12, [sp, #32]
   83538:	f8180e68 	str	x8, [x19, #-128]!
   8353c:	2a0103e8 	mov	w8, w1
   83540:	f9001beb 	str	x11, [sp, #48]
   83544:	91002260 	add	x0, x19, #0x8
   83548:	91019269 	add	x9, x19, #0x64
   8354c:	29077fe1 	stp	w1, wzr, [sp, #56]
   83550:	b900a7ff 	str	wzr, [sp, #164]
   83554:	a90c0fe2 	stp	x2, x3, [sp, #192]
   83558:	52800002 	mov	w2, #0x0                   	// #0
   8355c:	a90d17e4 	stp	x4, x5, [sp, #208]
   83560:	a90e1fe6 	stp	x6, x7, [sp, #224]
   83564:	d503201f 	nop
   83568:	37f80608 	tbnz	w8, #31, 83628 <mailbox_tag_message.constprop.8+0x118>
   8356c:	aa0c03e1 	mov	x1, x12
   83570:	9100218c 	add	x12, x12, #0x8
   83574:	b9400021 	ldr	w1, [x1]
   83578:	b8004401 	str	w1, [x0], #4
   8357c:	eb09001f 	cmp	x0, x9
   83580:	54ffff41 	b.ne	83568 <mailbox_tag_message.constprop.8+0x58>  // b.any
   83584:	350004e2 	cbnz	w2, 83620 <mailbox_tag_message.constprop.8+0x110>
   83588:	aa1303e0 	mov	x0, x19
   8358c:	97fff4a5 	bl	80820 <ARMaddrToGPUaddr>
   83590:	b0000021 	adrp	x1, 88000 <BitFont+0x948>
   83594:	121c6c00 	and	w0, w0, #0xfffffff0
   83598:	321d0002 	orr	w2, w0, #0x8
   8359c:	52971000 	mov	w0, #0xb880                	// #47232
   835a0:	b9484021 	ldr	w1, [x1, #2112]
   835a4:	0b000021 	add	w1, w1, w0
   835a8:	b9403820 	ldr	w0, [x1, #56]
   835ac:	37ffffe0 	tbnz	w0, #31, 835a8 <mailbox_tag_message.constprop.8+0x98>
   835b0:	b9002022 	str	w2, [x1, #32]
   835b4:	d503201f 	nop
   835b8:	b9401820 	ldr	w0, [x1, #24]
   835bc:	37f7ffe0 	tbnz	w0, #30, 835b8 <mailbox_tag_message.constprop.8+0xa8>
   835c0:	b9400020 	ldr	w0, [x1]
   835c4:	12000c00 	and	w0, w0, #0xf
   835c8:	7100201f 	cmp	w0, #0x8
   835cc:	54ffff61 	b.ne	835b8 <mailbox_tag_message.constprop.8+0xa8>  // b.any
   835d0:	b94047e2 	ldr	w2, [sp, #68]
   835d4:	52b00001 	mov	w1, #0x80000000            	// #-2147483648
   835d8:	52800000 	mov	w0, #0x0                   	// #0
   835dc:	6b01005f 	cmp	w2, w1
   835e0:	54000080 	b.eq	835f0 <mailbox_tag_message.constprop.8+0xe0>  // b.none
   835e4:	f9400bfe 	ldr	x30, [sp, #16]
   835e8:	a8cf53f3 	ldp	x19, x20, [sp], #240
   835ec:	d65f03c0 	ret
   835f0:	d2800000 	mov	x0, #0x0                   	// #0
   835f4:	b40000f4 	cbz	x20, 83610 <mailbox_tag_message.constprop.8+0x100>
   835f8:	8b000261 	add	x1, x19, x0
   835fc:	b9400821 	ldr	w1, [x1, #8]
   83600:	b8206a81 	str	w1, [x20, x0]
   83604:	91001000 	add	x0, x0, #0x4
   83608:	f101701f 	cmp	x0, #0x5c
   8360c:	54ffff61 	b.ne	835f8 <mailbox_tag_message.constprop.8+0xe8>  // b.any
   83610:	f9400bfe 	ldr	x30, [sp, #16]
   83614:	52800020 	mov	w0, #0x1                   	// #1
   83618:	a8cf53f3 	ldp	x19, x20, [sp], #240
   8361c:	d65f03c0 	ret
   83620:	b9003bea 	str	w10, [sp, #56]
   83624:	17ffffd9 	b	83588 <mailbox_tag_message.constprop.8+0x78>
   83628:	1100210a 	add	w10, w8, #0x8
   8362c:	7100015f 	cmp	w10, #0x0
   83630:	540000cd 	b.le	83648 <mailbox_tag_message.constprop.8+0x138>
   83634:	aa0c03e1 	mov	x1, x12
   83638:	2a0a03e8 	mov	w8, w10
   8363c:	9100218c 	add	x12, x12, #0x8
   83640:	52800022 	mov	w2, #0x1                   	// #1
   83644:	17ffffcc 	b	83574 <mailbox_tag_message.constprop.8+0x64>
   83648:	9103c3e1 	add	x1, sp, #0xf0
   8364c:	52800022 	mov	w2, #0x1                   	// #1
   83650:	8b28c021 	add	x1, x1, w8, sxtw
   83654:	2a0a03e8 	mov	w8, w10
   83658:	17ffffc7 	b	83574 <mailbox_tag_message.constprop.8+0x64>
   8365c:	d503201f 	nop

0000000000083660 <RPi_CpuIdString>:
   83660:	b0000020 	adrp	x0, 88000 <BitFont+0x948>
   83664:	7950a001 	ldrh	w1, [x0, #2128]
   83668:	d3443c21 	ubfx	x1, x1, #4, #12
   8366c:	71301c3f 	cmp	w1, #0xc07
   83670:	54000140 	b.eq	83698 <RPi_CpuIdString+0x38>  // b.none
   83674:	71340c3f 	cmp	w1, #0xd03
   83678:	54000160 	b.eq	836a4 <RPi_CpuIdString+0x44>  // b.none
   8367c:	712dd83f 	cmp	w1, #0xb76
   83680:	b0000022 	adrp	x2, 88000 <BitFont+0x948>
   83684:	b0000020 	adrp	x0, 88000 <BitFont+0x948>
   83688:	911bc042 	add	x2, x2, #0x6f0
   8368c:	911b0000 	add	x0, x0, #0x6c0
   83690:	9a820000 	csel	x0, x0, x2, eq  // eq = none
   83694:	d65f03c0 	ret
   83698:	b0000020 	adrp	x0, 88000 <BitFont+0x948>
   8369c:	911b4000 	add	x0, x0, #0x6d0
   836a0:	d65f03c0 	ret
   836a4:	b0000020 	adrp	x0, 88000 <BitFont+0x948>
   836a8:	911b8000 	add	x0, x0, #0x6e0
   836ac:	d65f03c0 	ret

00000000000836b0 <gpio_setup>:
   836b0:	7100d81f 	cmp	w0, #0x36
   836b4:	52800003 	mov	w3, #0x0                   	// #0
   836b8:	7a479822 	ccmp	w1, #0x7, #0x2, ls  // ls = plast
   836bc:	54000069 	b.ls	836c8 <gpio_setup+0x18>  // b.plast
   836c0:	2a0303e0 	mov	w0, w3
   836c4:	d65f03c0 	ret
   836c8:	529999a2 	mov	w2, #0xcccd                	// #52429
   836cc:	b0000025 	adrp	x5, 88000 <BitFont+0x948>
   836d0:	72b99982 	movk	w2, #0xcccc, lsl #16
   836d4:	528000e4 	mov	w4, #0x7                   	// #7
   836d8:	b94840a5 	ldr	w5, [x5, #2112]
   836dc:	52800023 	mov	w3, #0x1                   	// #1
   836e0:	9ba27c02 	umull	x2, w0, w2
   836e4:	114800a5 	add	w5, w5, #0x200, lsl #12
   836e8:	d363fc42 	lsr	x2, x2, #35
   836ec:	2a0203e6 	mov	w6, w2
   836f0:	0b020842 	add	w2, w2, w2, lsl #2
   836f4:	4b020402 	sub	w2, w0, w2, lsl #1
   836f8:	0b020442 	add	w2, w2, w2, lsl #1
   836fc:	b86678a7 	ldr	w7, [x5, x6, lsl #2]
   83700:	1ac22080 	lsl	w0, w4, w2
   83704:	1ac22021 	lsl	w1, w1, w2
   83708:	0a2000e2 	bic	w2, w7, w0
   8370c:	2a020021 	orr	w1, w1, w2
   83710:	2a0303e0 	mov	w0, w3
   83714:	b82678a1 	str	w1, [x5, x6, lsl #2]
   83718:	d65f03c0 	ret
   8371c:	d503201f 	nop

0000000000083720 <gpio_output>:
   83720:	12001c21 	and	w1, w1, #0xff
   83724:	7100d41f 	cmp	w0, #0x35
   83728:	54000228 	b.hi	8376c <gpio_output+0x4c>  // b.pmore
   8372c:	b0000023 	adrp	x3, 88000 <BitFont+0x948>
   83730:	53057c02 	lsr	w2, w0, #5
   83734:	91001c45 	add	x5, x2, #0x7
   83738:	91002842 	add	x2, x2, #0xa
   8373c:	b9484064 	ldr	w4, [x3, #2112]
   83740:	7100003f 	cmp	w1, #0x0
   83744:	12001001 	and	w1, w0, #0x1f
   83748:	52800023 	mov	w3, #0x1                   	// #1
   8374c:	11480084 	add	w4, w4, #0x200, lsl #12
   83750:	2a0303e0 	mov	w0, w3
   83754:	8b050885 	add	x5, x4, x5, lsl #2
   83758:	8b020882 	add	x2, x4, x2, lsl #2
   8375c:	9a850042 	csel	x2, x2, x5, eq  // eq = none
   83760:	1ac12061 	lsl	w1, w3, w1
   83764:	b9000041 	str	w1, [x2]
   83768:	d65f03c0 	ret
   8376c:	52800000 	mov	w0, #0x0                   	// #0
   83770:	d65f03c0 	ret
   83774:	d503201f 	nop

0000000000083778 <gpio_input>:
   83778:	7100d41f 	cmp	w0, #0x35
   8377c:	540001c8 	b.hi	837b4 <gpio_input+0x3c>  // b.pmore
   83780:	b0000022 	adrp	x2, 88000 <BitFont+0x948>
   83784:	53057c01 	lsr	w1, w0, #5
   83788:	12001000 	and	w0, w0, #0x1f
   8378c:	91003021 	add	x1, x1, #0xc
   83790:	b9484043 	ldr	w3, [x2, #2112]
   83794:	52800022 	mov	w2, #0x1                   	// #1
   83798:	1ac02040 	lsl	w0, w2, w0
   8379c:	11480062 	add	w2, w3, #0x200, lsl #12
   837a0:	8b010841 	add	x1, x2, x1, lsl #2
   837a4:	b9400421 	ldr	w1, [x1, #4]
   837a8:	6a01001f 	tst	w0, w1
   837ac:	1a9f07e0 	cset	w0, ne  // ne = any
   837b0:	d65f03c0 	ret
   837b4:	52800000 	mov	w0, #0x0                   	// #0
   837b8:	d65f03c0 	ret
   837bc:	d503201f 	nop

00000000000837c0 <gpio_checkEvent>:
   837c0:	7100d41f 	cmp	w0, #0x35
   837c4:	540001a8 	b.hi	837f8 <gpio_checkEvent+0x38>  // b.pmore
   837c8:	b0000021 	adrp	x1, 88000 <BitFont+0x948>
   837cc:	53057c03 	lsr	w3, w0, #5
   837d0:	12001000 	and	w0, w0, #0x1f
   837d4:	91004063 	add	x3, x3, #0x10
   837d8:	b9484022 	ldr	w2, [x1, #2112]
   837dc:	52800021 	mov	w1, #0x1                   	// #1
   837e0:	1ac02020 	lsl	w0, w1, w0
   837e4:	11480041 	add	w1, w2, #0x200, lsl #12
   837e8:	b8637821 	ldr	w1, [x1, x3, lsl #2]
   837ec:	6a01001f 	tst	w0, w1
   837f0:	1a9f07e0 	cset	w0, ne  // ne = any
   837f4:	d65f03c0 	ret
   837f8:	52800000 	mov	w0, #0x0                   	// #0
   837fc:	d65f03c0 	ret

0000000000083800 <gpio_clearEvent>:
   83800:	7100d41f 	cmp	w0, #0x35
   83804:	54000168 	b.hi	83830 <gpio_clearEvent+0x30>  // b.pmore
   83808:	b0000022 	adrp	x2, 88000 <BitFont+0x948>
   8380c:	53057c03 	lsr	w3, w0, #5
   83810:	91004063 	add	x3, x3, #0x10
   83814:	12001001 	and	w1, w0, #0x1f
   83818:	b9484042 	ldr	w2, [x2, #2112]
   8381c:	52800020 	mov	w0, #0x1                   	// #1
   83820:	1ac12001 	lsl	w1, w0, w1
   83824:	11480042 	add	w2, w2, #0x200, lsl #12
   83828:	b8237841 	str	w1, [x2, x3, lsl #2]
   8382c:	d65f03c0 	ret
   83830:	52800000 	mov	w0, #0x0                   	// #0
   83834:	d65f03c0 	ret

0000000000083838 <gpio_edgeDetect>:
   83838:	12001c21 	and	w1, w1, #0xff
   8383c:	12001c42 	and	w2, w2, #0xff
   83840:	7100d41f 	cmp	w0, #0x35
   83844:	54000308 	b.hi	838a4 <gpio_edgeDetect+0x6c>  // b.pmore
   83848:	b0000024 	adrp	x4, 88000 <BitFont+0x948>
   8384c:	12001005 	and	w5, w0, #0x1f
   83850:	52800027 	mov	w7, #0x1                   	// #1
   83854:	53057c03 	lsr	w3, w0, #5
   83858:	b9484084 	ldr	w4, [x4, #2112]
   8385c:	1ac520e6 	lsl	w6, w7, w5
   83860:	11480080 	add	w0, w4, #0x200, lsl #12
   83864:	34000101 	cbz	w1, 83884 <gpio_edgeDetect+0x4c>
   83868:	d37e6863 	ubfiz	x3, x3, #2, #27
   8386c:	34000222 	cbz	w2, 838b0 <gpio_edgeDetect+0x78>
   83870:	9101c064 	add	x4, x3, #0x70
   83874:	8b040004 	add	x4, x0, x4
   83878:	2a0203e0 	mov	w0, w2
   8387c:	b9000c86 	str	w6, [x4, #12]
   83880:	d65f03c0 	ret
   83884:	35000222 	cbnz	w2, 838c8 <gpio_edgeDetect+0x90>
   83888:	d37e6863 	ubfiz	x3, x3, #2, #27
   8388c:	2a0703e2 	mov	w2, w7
   83890:	91014063 	add	x3, x3, #0x50
   83894:	8b030003 	add	x3, x0, x3
   83898:	2a0203e0 	mov	w0, w2
   8389c:	b9000866 	str	w6, [x3, #8]
   838a0:	d65f03c0 	ret
   838a4:	52800002 	mov	w2, #0x0                   	// #0
   838a8:	2a0203e0 	mov	w0, w2
   838ac:	d65f03c0 	ret
   838b0:	2a0103e2 	mov	w2, w1
   838b4:	91010061 	add	x1, x3, #0x40
   838b8:	8b010004 	add	x4, x0, x1
   838bc:	2a0203e0 	mov	w0, w2
   838c0:	b9000c86 	str	w6, [x4, #12]
   838c4:	d65f03c0 	ret
   838c8:	d37e6865 	ubfiz	x5, x3, #2, #27
   838cc:	910200a5 	add	x5, x5, #0x80
   838d0:	8b050004 	add	x4, x0, x5
   838d4:	2a0203e0 	mov	w0, w2
   838d8:	b9000886 	str	w6, [x4, #8]
   838dc:	d65f03c0 	ret

00000000000838e0 <gpio_fixResistor>:
   838e0:	7100d81f 	cmp	w0, #0x36
   838e4:	7a429822 	ccmp	w1, #0x2, #0x2, ls  // ls = plast
   838e8:	54000069 	b.ls	838f4 <gpio_fixResistor+0x14>  // b.plast
   838ec:	52800000 	mov	w0, #0x0                   	// #0
   838f0:	d65f03c0 	ret
   838f4:	b0000022 	adrp	x2, 88000 <BitFont+0x948>
   838f8:	b9484042 	ldr	w2, [x2, #2112]
   838fc:	11480046 	add	w6, w2, #0x200, lsl #12
   83900:	11400c42 	add	w2, w2, #0x3, lsl #12
   83904:	b90094c1 	str	w1, [x6, #148]
   83908:	b9400841 	ldr	w1, [x2, #8]
   8390c:	b9400444 	ldr	w4, [x2, #4]
   83910:	b9400843 	ldr	w3, [x2, #8]
   83914:	6b03003f 	cmp	w1, w3
   83918:	54ffff81 	b.ne	83908 <gpio_fixResistor+0x28>  // b.any
   8391c:	2a0403e5 	mov	w5, w4
   83920:	d29ef9e3 	mov	x3, #0xf7cf                	// #63439
   83924:	f2bc6a63 	movk	x3, #0xe353, lsl #16
   83928:	aa0180a5 	orr	x5, x5, x1, lsl #32
   8392c:	f2d374a3 	movk	x3, #0x9ba5, lsl #32
   83930:	d343fca5 	lsr	x5, x5, #3
   83934:	f2e41883 	movk	x3, #0x20c4, lsl #48
   83938:	aa0303e7 	mov	x7, x3
   8393c:	9bc37ca5 	umulh	x5, x5, x3
   83940:	d344fca5 	lsr	x5, x5, #4
   83944:	910008a5 	add	x5, x5, #0x2
   83948:	b9400841 	ldr	w1, [x2, #8]
   8394c:	b9400444 	ldr	w4, [x2, #4]
   83950:	b9400843 	ldr	w3, [x2, #8]
   83954:	6b03003f 	cmp	w1, w3
   83958:	54ffff81 	b.ne	83948 <gpio_fixResistor+0x68>  // b.any
   8395c:	2a0403e4 	mov	w4, w4
   83960:	aa018081 	orr	x1, x4, x1, lsl #32
   83964:	d343fc21 	lsr	x1, x1, #3
   83968:	9bc77c21 	umulh	x1, x1, x7
   8396c:	eb4110bf 	cmp	x5, x1, lsr #4
   83970:	54fffec8 	b.hi	83948 <gpio_fixResistor+0x68>  // b.pmore
   83974:	53057c07 	lsr	w7, w0, #5
   83978:	12001000 	and	w0, w0, #0x1f
   8397c:	8b0708c7 	add	x7, x6, x7, lsl #2
   83980:	52800021 	mov	w1, #0x1                   	// #1
   83984:	1ac02020 	lsl	w0, w1, w0
   83988:	b90098e0 	str	w0, [x7, #152]
   8398c:	d503201f 	nop
   83990:	b9400840 	ldr	w0, [x2, #8]
   83994:	b9400443 	ldr	w3, [x2, #4]
   83998:	b9400841 	ldr	w1, [x2, #8]
   8399c:	6b01001f 	cmp	w0, w1
   839a0:	54ffff81 	b.ne	83990 <gpio_fixResistor+0xb0>  // b.any
   839a4:	2a0303e4 	mov	w4, w3
   839a8:	d29ef9e1 	mov	x1, #0xf7cf                	// #63439
   839ac:	f2bc6a61 	movk	x1, #0xe353, lsl #16
   839b0:	aa008084 	orr	x4, x4, x0, lsl #32
   839b4:	f2d374a1 	movk	x1, #0x9ba5, lsl #32
   839b8:	d343fc84 	lsr	x4, x4, #3
   839bc:	f2e41881 	movk	x1, #0x20c4, lsl #48
   839c0:	aa0103e5 	mov	x5, x1
   839c4:	9bc17c84 	umulh	x4, x4, x1
   839c8:	d344fc84 	lsr	x4, x4, #4
   839cc:	91000884 	add	x4, x4, #0x2
   839d0:	b9400840 	ldr	w0, [x2, #8]
   839d4:	b9400443 	ldr	w3, [x2, #4]
   839d8:	b9400841 	ldr	w1, [x2, #8]
   839dc:	6b01001f 	cmp	w0, w1
   839e0:	54ffff81 	b.ne	839d0 <gpio_fixResistor+0xf0>  // b.any
   839e4:	2a0303e3 	mov	w3, w3
   839e8:	aa008060 	orr	x0, x3, x0, lsl #32
   839ec:	d343fc00 	lsr	x0, x0, #3
   839f0:	9bc57c00 	umulh	x0, x0, x5
   839f4:	eb40109f 	cmp	x4, x0, lsr #4
   839f8:	54fffec8 	b.hi	839d0 <gpio_fixResistor+0xf0>  // b.pmore
   839fc:	b90094df 	str	wzr, [x6, #148]
   83a00:	52800020 	mov	w0, #0x1                   	// #1
   83a04:	b90098ff 	str	wzr, [x7, #152]
   83a08:	d65f03c0 	ret
   83a0c:	d503201f 	nop

0000000000083a10 <timer_getTickCount>:
   83a10:	b0000020 	adrp	x0, 88000 <BitFont+0x948>
   83a14:	b9484000 	ldr	w0, [x0, #2112]
   83a18:	11400c00 	add	w0, w0, #0x3, lsl #12
   83a1c:	d503201f 	nop
   83a20:	b9400801 	ldr	w1, [x0, #8]
   83a24:	b9400403 	ldr	w3, [x0, #4]
   83a28:	b9400802 	ldr	w2, [x0, #8]
   83a2c:	6b02003f 	cmp	w1, w2
   83a30:	54ffff81 	b.ne	83a20 <timer_getTickCount+0x10>  // b.any
   83a34:	2a0303e0 	mov	w0, w3
   83a38:	d29ef9e2 	mov	x2, #0xf7cf                	// #63439
   83a3c:	aa018000 	orr	x0, x0, x1, lsl #32
   83a40:	f2bc6a62 	movk	x2, #0xe353, lsl #16
   83a44:	f2d374a2 	movk	x2, #0x9ba5, lsl #32
   83a48:	d343fc00 	lsr	x0, x0, #3
   83a4c:	f2e41882 	movk	x2, #0x20c4, lsl #48
   83a50:	9bc27c00 	umulh	x0, x0, x2
   83a54:	d344fc00 	lsr	x0, x0, #4
   83a58:	d65f03c0 	ret
   83a5c:	d503201f 	nop

0000000000083a60 <timer_getTickCount64>:
   83a60:	b0000020 	adrp	x0, 88000 <BitFont+0x948>
   83a64:	b9484001 	ldr	w1, [x0, #2112]
   83a68:	11400c21 	add	w1, w1, #0x3, lsl #12
   83a6c:	d503201f 	nop
   83a70:	b9400822 	ldr	w2, [x1, #8]
   83a74:	b9400420 	ldr	w0, [x1, #4]
   83a78:	b9400823 	ldr	w3, [x1, #8]
   83a7c:	6b03005f 	cmp	w2, w3
   83a80:	54ffff81 	b.ne	83a70 <timer_getTickCount64+0x10>  // b.any
   83a84:	2a0003e0 	mov	w0, w0
   83a88:	aa028000 	orr	x0, x0, x2, lsl #32
   83a8c:	d65f03c0 	ret

0000000000083a90 <timer_wait>:
   83a90:	b0000021 	adrp	x1, 88000 <BitFont+0x948>
   83a94:	b9484021 	ldr	w1, [x1, #2112]
   83a98:	11400c21 	add	w1, w1, #0x3, lsl #12
   83a9c:	d503201f 	nop
   83aa0:	b9400822 	ldr	w2, [x1, #8]
   83aa4:	b9400424 	ldr	w4, [x1, #4]
   83aa8:	b9400823 	ldr	w3, [x1, #8]
   83aac:	6b03005f 	cmp	w2, w3
   83ab0:	54ffff81 	b.ne	83aa0 <timer_wait+0x10>  // b.any
   83ab4:	2a0403e4 	mov	w4, w4
   83ab8:	aa028082 	orr	x2, x4, x2, lsl #32
   83abc:	8b000044 	add	x4, x2, x0
   83ac0:	b9400820 	ldr	w0, [x1, #8]
   83ac4:	b9400423 	ldr	w3, [x1, #4]
   83ac8:	b9400822 	ldr	w2, [x1, #8]
   83acc:	6b02001f 	cmp	w0, w2
   83ad0:	54ffff81 	b.ne	83ac0 <timer_wait+0x30>  // b.any
   83ad4:	2a0303e3 	mov	w3, w3
   83ad8:	aa008060 	orr	x0, x3, x0, lsl #32
   83adc:	eb00009f 	cmp	x4, x0
   83ae0:	54ffff08 	b.hi	83ac0 <timer_wait+0x30>  // b.pmore
   83ae4:	d65f03c0 	ret

0000000000083ae8 <tick_difference>:
   83ae8:	cb000020 	sub	x0, x1, x0
   83aec:	d65f03c0 	ret

0000000000083af0 <mailbox_write>:
   83af0:	7100241f 	cmp	w0, #0x9
   83af4:	54000188 	b.hi	83b24 <mailbox_write+0x34>  // b.pmore
   83af8:	b0000022 	adrp	x2, 88000 <BitFont+0x948>
   83afc:	121c6c21 	and	w1, w1, #0xfffffff0
   83b00:	2a010000 	orr	w0, w0, w1
   83b04:	52971001 	mov	w1, #0xb880                	// #47232
   83b08:	b9484042 	ldr	w2, [x2, #2112]
   83b0c:	0b010042 	add	w2, w2, w1
   83b10:	b9403841 	ldr	w1, [x2, #56]
   83b14:	37ffffe1 	tbnz	w1, #31, 83b10 <mailbox_write+0x20>
   83b18:	b9002040 	str	w0, [x2, #32]
   83b1c:	52800020 	mov	w0, #0x1                   	// #1
   83b20:	d65f03c0 	ret
   83b24:	52800000 	mov	w0, #0x0                   	// #0
   83b28:	d65f03c0 	ret
   83b2c:	d503201f 	nop

0000000000083b30 <mailbox_read>:
   83b30:	7100241f 	cmp	w0, #0x9
   83b34:	540001a8 	b.hi	83b68 <mailbox_read+0x38>  // b.pmore
   83b38:	b0000021 	adrp	x1, 88000 <BitFont+0x948>
   83b3c:	b9484022 	ldr	w2, [x1, #2112]
   83b40:	52971001 	mov	w1, #0xb880                	// #47232
   83b44:	0b010042 	add	w2, w2, w1
   83b48:	b9401841 	ldr	w1, [x2, #24]
   83b4c:	37f7ffe1 	tbnz	w1, #30, 83b48 <mailbox_read+0x18>
   83b50:	b9400041 	ldr	w1, [x2]
   83b54:	12000c23 	and	w3, w1, #0xf
   83b58:	6b03001f 	cmp	w0, w3
   83b5c:	54ffff61 	b.ne	83b48 <mailbox_read+0x18>  // b.any
   83b60:	121c6c20 	and	w0, w1, #0xfffffff0
   83b64:	d65f03c0 	ret
   83b68:	529bd5a0 	mov	w0, #0xdead                	// #57005
   83b6c:	72bfdda0 	movk	w0, #0xfeed, lsl #16
   83b70:	d65f03c0 	ret
   83b74:	d503201f 	nop

0000000000083b78 <mailbox_tag_message>:
   83b78:	a9b153f3 	stp	x19, x20, [sp, #-240]!
   83b7c:	12001c34 	and	w20, w1, #0xff
   83b80:	11000e81 	add	w1, w20, #0x3
   83b84:	11000a89 	add	w9, w20, #0x2
   83b88:	910303f3 	add	x19, sp, #0xc0
   83b8c:	a9017bf5 	stp	x21, x30, [sp, #16]
   83b90:	531e7421 	lsl	w1, w1, #2
   83b94:	aa1303e8 	mov	x8, x19
   83b98:	f9001be8 	str	x8, [sp, #48]
   83b9c:	aa0003f5 	mov	x21, x0
   83ba0:	b8180e61 	str	w1, [x19, #-128]!
   83ba4:	128005e1 	mov	w1, #0xffffffd0            	// #-48
   83ba8:	a90c0fe2 	stp	x2, x3, [sp, #192]
   83bac:	9103c3e2 	add	x2, sp, #0xf0
   83bb0:	b829da7f 	str	wzr, [x19, w9, sxtw #2]
   83bb4:	a9020be2 	stp	x2, x2, [sp, #32]
   83bb8:	29077fe1 	stp	w1, wzr, [sp, #56]
   83bbc:	b90047ff 	str	wzr, [sp, #68]
   83bc0:	a90d17e4 	stp	x4, x5, [sp, #208]
   83bc4:	a90e1fe6 	stp	x6, x7, [sp, #224]
   83bc8:	34000234 	cbz	w20, 83c0c <mailbox_tag_message+0x94>
   83bcc:	51000682 	sub	w2, w20, #0x1
   83bd0:	91001263 	add	x3, x19, #0x4
   83bd4:	2a0103e4 	mov	w4, w1
   83bd8:	9103c3e6 	add	x6, sp, #0xf0
   83bdc:	aa1303e0 	mov	x0, x19
   83be0:	8b224863 	add	x3, x3, w2, uxtw #2
   83be4:	52800005 	mov	w5, #0x0                   	// #0
   83be8:	37f806c1 	tbnz	w1, #31, 83cc0 <mailbox_tag_message+0x148>
   83bec:	aa0603e2 	mov	x2, x6
   83bf0:	910020c6 	add	x6, x6, #0x8
   83bf4:	91001000 	add	x0, x0, #0x4
   83bf8:	b9400042 	ldr	w2, [x2]
   83bfc:	eb00007f 	cmp	x3, x0
   83c00:	b9000402 	str	w2, [x0, #4]
   83c04:	54ffff21 	b.ne	83be8 <mailbox_tag_message+0x70>  // b.any
   83c08:	35000585 	cbnz	w5, 83cb8 <mailbox_tag_message+0x140>
   83c0c:	aa1303e0 	mov	x0, x19
   83c10:	97fff304 	bl	80820 <ARMaddrToGPUaddr>
   83c14:	b0000022 	adrp	x2, 88000 <BitFont+0x948>
   83c18:	121c6c00 	and	w0, w0, #0xfffffff0
   83c1c:	321d0001 	orr	w1, w0, #0x8
   83c20:	52971000 	mov	w0, #0xb880                	// #47232
   83c24:	b9484042 	ldr	w2, [x2, #2112]
   83c28:	0b000042 	add	w2, w2, w0
   83c2c:	d503201f 	nop
   83c30:	b9403840 	ldr	w0, [x2, #56]
   83c34:	37ffffe0 	tbnz	w0, #31, 83c30 <mailbox_tag_message+0xb8>
   83c38:	b9002041 	str	w1, [x2, #32]
   83c3c:	d503201f 	nop
   83c40:	b9401840 	ldr	w0, [x2, #24]
   83c44:	37f7ffe0 	tbnz	w0, #30, 83c40 <mailbox_tag_message+0xc8>
   83c48:	b9400040 	ldr	w0, [x2]
   83c4c:	12000c00 	and	w0, w0, #0xf
   83c50:	7100201f 	cmp	w0, #0x8
   83c54:	54ffff61 	b.ne	83c40 <mailbox_tag_message+0xc8>  // b.any
   83c58:	b94047e2 	ldr	w2, [sp, #68]
   83c5c:	52b00001 	mov	w1, #0x80000000            	// #-2147483648
   83c60:	52800000 	mov	w0, #0x0                   	// #0
   83c64:	6b01005f 	cmp	w2, w1
   83c68:	54000080 	b.eq	83c78 <mailbox_tag_message+0x100>  // b.none
   83c6c:	a9417bf5 	ldp	x21, x30, [sp, #16]
   83c70:	a8cf53f3 	ldp	x19, x20, [sp], #240
   83c74:	d65f03c0 	ret
   83c78:	b4000195 	cbz	x21, 83ca8 <mailbox_tag_message+0x130>
   83c7c:	34000174 	cbz	w20, 83ca8 <mailbox_tag_message+0x130>
   83c80:	51000681 	sub	w1, w20, #0x1
   83c84:	d2800000 	mov	x0, #0x0                   	// #0
   83c88:	91000421 	add	x1, x1, #0x1
   83c8c:	d37ef421 	lsl	x1, x1, #2
   83c90:	8b000262 	add	x2, x19, x0
   83c94:	b9400842 	ldr	w2, [x2, #8]
   83c98:	b8206aa2 	str	w2, [x21, x0]
   83c9c:	91001000 	add	x0, x0, #0x4
   83ca0:	eb00003f 	cmp	x1, x0
   83ca4:	54ffff61 	b.ne	83c90 <mailbox_tag_message+0x118>  // b.any
   83ca8:	a9417bf5 	ldp	x21, x30, [sp, #16]
   83cac:	52800020 	mov	w0, #0x1                   	// #1
   83cb0:	a8cf53f3 	ldp	x19, x20, [sp], #240
   83cb4:	d65f03c0 	ret
   83cb8:	b9003be4 	str	w4, [sp, #56]
   83cbc:	17ffffd4 	b	83c0c <mailbox_tag_message+0x94>
   83cc0:	11002024 	add	w4, w1, #0x8
   83cc4:	7100009f 	cmp	w4, #0x0
   83cc8:	540000cd 	b.le	83ce0 <mailbox_tag_message+0x168>
   83ccc:	aa0603e2 	mov	x2, x6
   83cd0:	2a0403e1 	mov	w1, w4
   83cd4:	910020c6 	add	x6, x6, #0x8
   83cd8:	52800025 	mov	w5, #0x1                   	// #1
   83cdc:	17ffffc6 	b	83bf4 <mailbox_tag_message+0x7c>
   83ce0:	9103c3e2 	add	x2, sp, #0xf0
   83ce4:	52800025 	mov	w5, #0x1                   	// #1
   83ce8:	8b21c042 	add	x2, x2, w1, sxtw
   83cec:	2a0403e1 	mov	w1, w4
   83cf0:	17ffffc1 	b	83bf4 <mailbox_tag_message+0x7c>
   83cf4:	d503201f 	nop

0000000000083cf8 <TimerIrqSetup>:
   83cf8:	a9bb53f3 	stp	x19, x20, [sp, #-80]!
   83cfc:	52968014 	mov	w20, #0xb400                	// #46080
   83d00:	52800042 	mov	w2, #0x2                   	// #2
   83d04:	52800104 	mov	w4, #0x8                   	// #8
   83d08:	a9015bf5 	stp	x21, x22, [sp, #16]
   83d0c:	b0000035 	adrp	x21, 88000 <BitFont+0x948>
   83d10:	f90013fe 	str	x30, [sp, #32]
   83d14:	2a0403e3 	mov	w3, w4
   83d18:	b94842a7 	ldr	w7, [x21, #2112]
   83d1c:	aa0103f6 	mov	x22, x1
   83d20:	a903ffff 	stp	xzr, xzr, [sp, #56]
   83d24:	52800006 	mov	w6, #0x0                   	// #0
   83d28:	0b1400e7 	add	w7, w7, w20
   83d2c:	b9004bff 	str	wzr, [sp, #72]
   83d30:	52800085 	mov	w5, #0x4                   	// #4
   83d34:	2a0003f3 	mov	w19, w0
   83d38:	72a00062 	movk	w2, #0x3, lsl #16
   83d3c:	528000a1 	mov	w1, #0x5                   	// #5
   83d40:	b94008e8 	ldr	w8, [x7, #8]
   83d44:	9100e3e0 	add	x0, sp, #0x38
   83d48:	12187908 	and	w8, w8, #0xffffff7f
   83d4c:	b90008e8 	str	w8, [x7, #8]
   83d50:	97fffd1e 	bl	831c8 <mailbox_tag_message.constprop.6>
   83d54:	b9404be1 	ldr	w1, [sp, #72]
   83d58:	5289ba63 	mov	w3, #0x4dd3                	// #19923
   83d5c:	72a20c43 	movk	w3, #0x1062, lsl #16
   83d60:	d2869b62 	mov	x2, #0x34db                	// #13531
   83d64:	f2baf6c2 	movk	x2, #0xd7b6, lsl #16
   83d68:	aa1603e0 	mov	x0, x22
   83d6c:	f2dbd042 	movk	x2, #0xde82, lsl #32
   83d70:	9ba37c21 	umull	x1, w1, w3
   83d74:	f2e86362 	movk	x2, #0x431b, lsl #48
   83d78:	d364fc21 	lsr	x1, x1, #36
   83d7c:	b9004be1 	str	w1, [sp, #72]
   83d80:	9ba17e73 	umull	x19, w19, w1
   83d84:	9bc27e73 	umulh	x19, x19, x2
   83d88:	97fff29e 	bl	80800 <setTimerIrqAddress>
   83d8c:	b94842a1 	ldr	w1, [x21, #2112]
   83d90:	52964002 	mov	w2, #0xb200                	// #45568
   83d94:	0b020023 	add	w3, w1, w2
   83d98:	0b140021 	add	w1, w1, w20
   83d9c:	d352fe73 	lsr	x19, x19, #18
   83da0:	b9401862 	ldr	w2, [x3, #24]
   83da4:	32000042 	orr	w2, w2, #0x1
   83da8:	b9001862 	str	w2, [x3, #24]
   83dac:	b9000033 	str	w19, [x1]
   83db0:	b9400822 	ldr	w2, [x1, #8]
   83db4:	321f0042 	orr	w2, w2, #0x2
   83db8:	b9000822 	str	w2, [x1, #8]
   83dbc:	b9400822 	ldr	w2, [x1, #8]
   83dc0:	121c7442 	and	w2, w2, #0xfffffff3
   83dc4:	b9000822 	str	w2, [x1, #8]
   83dc8:	b9400822 	ldr	w2, [x1, #8]
   83dcc:	321b0042 	orr	w2, w2, #0x20
   83dd0:	b9000822 	str	w2, [x1, #8]
   83dd4:	b9400822 	ldr	w2, [x1, #8]
   83dd8:	32190042 	orr	w2, w2, #0x80
   83ddc:	b9000822 	str	w2, [x1, #8]
   83de0:	a9415bf5 	ldp	x21, x22, [sp, #16]
   83de4:	f94013fe 	ldr	x30, [sp, #32]
   83de8:	a8c553f3 	ldp	x19, x20, [sp], #80
   83dec:	d65f03c0 	ret

0000000000083df0 <set_Activity_LED>:
   83df0:	d0000021 	adrp	x1, 89000 <__bss_start__>
   83df4:	a9bd53f3 	stp	x19, x20, [sp, #-48]!
   83df8:	12001c14 	and	w20, w0, #0xff
   83dfc:	91004033 	add	x19, x1, #0x10
   83e00:	39404020 	ldrb	w0, [x1, #16]
   83e04:	f9000ffe 	str	x30, [sp, #24]
   83e08:	34000580 	cbz	w0, 83eb8 <set_Activity_LED+0xc8>
   83e0c:	39400661 	ldrb	w1, [x19, #1]
   83e10:	b0000022 	adrp	x2, 88000 <BitFont+0x948>
   83e14:	b9486045 	ldr	w5, [x2, #2144]
   83e18:	35000381 	cbnz	w1, 83e88 <set_Activity_LED+0x98>
   83e1c:	7100d4bf 	cmp	w5, #0x35
   83e20:	540007e9 	b.ls	83f1c <set_Activity_LED+0x12c>  // b.plast
   83e24:	f9400ffe 	ldr	x30, [sp, #24]
   83e28:	a8c353f3 	ldp	x19, x20, [sp], #48
   83e2c:	d65f03c0 	ret
   83e30:	52841022 	mov	w2, #0x2081                	// #8321
   83e34:	72a01402 	movk	w2, #0xa0, lsl #16
   83e38:	6b02001f 	cmp	w0, w2
   83e3c:	540009c9 	b.ls	83f74 <set_Activity_LED+0x184>  // b.plast
   83e40:	12bfe042 	mov	w2, #0xfdffff              	// #16646143
   83e44:	0a020021 	and	w1, w1, w2
   83e48:	52841042 	mov	w2, #0x2082                	// #8322
   83e4c:	72a01402 	movk	w2, #0xa0, lsl #16
   83e50:	6b02003f 	cmp	w1, w2
   83e54:	52841401 	mov	w1, #0x20a0                	// #8352
   83e58:	72a01401 	movk	w1, #0xa0, lsl #16
   83e5c:	7a411004 	ccmp	w0, w1, #0x4, ne  // ne = any
   83e60:	52841041 	mov	w1, #0x2082                	// #8322
   83e64:	72a01461 	movk	w1, #0xa3, lsl #16
   83e68:	7a411004 	ccmp	w0, w1, #0x4, ne  // ne = any
   83e6c:	b0000021 	adrp	x1, 88000 <BitFont+0x948>
   83e70:	54000901 	b.ne	83f90 <set_Activity_LED+0x1a0>  // b.any
   83e74:	39000675 	strb	w21, [x19, #1]
   83e78:	52801040 	mov	w0, #0x82                  	// #130
   83e7c:	f9400bf5 	ldr	x21, [sp, #16]
   83e80:	2a0003e5 	mov	w5, w0
   83e84:	b9086020 	str	w0, [x1, #2144]
   83e88:	52900822 	mov	w2, #0x8041                	// #32833
   83e8c:	52800104 	mov	w4, #0x8                   	// #8
   83e90:	2a1403e6 	mov	w6, w20
   83e94:	2a0403e3 	mov	w3, w4
   83e98:	72a00062 	movk	w2, #0x3, lsl #16
   83e9c:	528000a1 	mov	w1, #0x5                   	// #5
   83ea0:	d2800000 	mov	x0, #0x0                   	// #0
   83ea4:	97fffd55 	bl	833f8 <mailbox_tag_message.constprop.5>
   83ea8:	f9400ffe 	ldr	x30, [sp, #24]
   83eac:	12001c00 	and	w0, w0, #0xff
   83eb0:	a8c353f3 	ldp	x19, x20, [sp], #48
   83eb4:	d65f03c0 	ret
   83eb8:	52800042 	mov	w2, #0x2                   	// #2
   83ebc:	52800083 	mov	w3, #0x4                   	// #4
   83ec0:	f9000bf5 	str	x21, [sp, #16]
   83ec4:	52800005 	mov	w5, #0x0                   	// #0
   83ec8:	52800004 	mov	w4, #0x0                   	// #0
   83ecc:	72a00022 	movk	w2, #0x1, lsl #16
   83ed0:	910083e0 	add	x0, sp, #0x20
   83ed4:	52800035 	mov	w21, #0x1                   	// #1
   83ed8:	39004035 	strb	w21, [x1, #16]
   83edc:	2a0303e1 	mov	w1, w3
   83ee0:	97fffd0e 	bl	83318 <mailbox_tag_message.constprop.7>
   83ee4:	72001c00 	ands	w0, w0, #0xff
   83ee8:	540003e0 	b.eq	83f64 <set_Activity_LED+0x174>  // b.none
   83eec:	b9402fe1 	ldr	w1, [sp, #44]
   83ef0:	12005c20 	and	w0, w1, #0xffffff
   83ef4:	b9002fe0 	str	w0, [sp, #44]
   83ef8:	51000802 	sub	w2, w0, #0x2
   83efc:	7100345f 	cmp	w2, #0xd
   83f00:	54fff988 	b.hi	83e30 <set_Activity_LED+0x40>  // b.pmore
   83f04:	b0000021 	adrp	x1, 88000 <BitFont+0x948>
   83f08:	f9400bf5 	ldr	x21, [sp, #16]
   83f0c:	52800200 	mov	w0, #0x10                  	// #16
   83f10:	2a0003e5 	mov	w5, w0
   83f14:	3900067f 	strb	wzr, [x19, #1]
   83f18:	b9086020 	str	w0, [x1, #2144]
   83f1c:	b0000022 	adrp	x2, 88000 <BitFont+0x948>
   83f20:	53057ca0 	lsr	w0, w5, #5
   83f24:	91001c04 	add	x4, x0, #0x7
   83f28:	91002801 	add	x1, x0, #0xa
   83f2c:	b9484043 	ldr	w3, [x2, #2112]
   83f30:	7100029f 	cmp	w20, #0x0
   83f34:	120010a5 	and	w5, w5, #0x1f
   83f38:	52800022 	mov	w2, #0x1                   	// #1
   83f3c:	11480063 	add	w3, w3, #0x200, lsl #12
   83f40:	2a0203e0 	mov	w0, w2
   83f44:	8b040864 	add	x4, x3, x4, lsl #2
   83f48:	8b010861 	add	x1, x3, x1, lsl #2
   83f4c:	9a840021 	csel	x1, x1, x4, eq  // eq = none
   83f50:	1ac52045 	lsl	w5, w2, w5
   83f54:	b9000025 	str	w5, [x1]
   83f58:	f9400ffe 	ldr	x30, [sp, #24]
   83f5c:	a8c353f3 	ldp	x19, x20, [sp], #48
   83f60:	d65f03c0 	ret
   83f64:	f9400bf5 	ldr	x21, [sp, #16]
   83f68:	f9400ffe 	ldr	x30, [sp, #24]
   83f6c:	a8c353f3 	ldp	x19, x20, [sp], #48
   83f70:	d65f03c0 	ret
   83f74:	b0000021 	adrp	x1, 88000 <BitFont+0x948>
   83f78:	528005e0 	mov	w0, #0x2f                  	// #47
   83f7c:	3900067f 	strb	wzr, [x19, #1]
   83f80:	2a0003e5 	mov	w5, w0
   83f84:	b9086020 	str	w0, [x1, #2144]
   83f88:	f9400bf5 	ldr	x21, [sp, #16]
   83f8c:	17ffffe4 	b	83f1c <set_Activity_LED+0x12c>
   83f90:	528003a0 	mov	w0, #0x1d                  	// #29
   83f94:	3900067f 	strb	wzr, [x19, #1]
   83f98:	2a0003e5 	mov	w5, w0
   83f9c:	b9086020 	str	w0, [x1, #2144]
   83fa0:	f9400bf5 	ldr	x21, [sp, #16]
   83fa4:	17ffffde 	b	83f1c <set_Activity_LED+0x12c>

0000000000083fa8 <ARM_setmaxspeed>:
   83fa8:	a9bc53f3 	stp	x19, x20, [sp, #-64]!
   83fac:	52800082 	mov	w2, #0x4                   	// #4
   83fb0:	52800104 	mov	w4, #0x8                   	// #8
   83fb4:	aa0003f4 	mov	x20, x0
   83fb8:	52800006 	mov	w6, #0x0                   	// #0
   83fbc:	52800065 	mov	w5, #0x3                   	// #3
   83fc0:	2a0403e3 	mov	w3, w4
   83fc4:	72a00062 	movk	w2, #0x3, lsl #16
   83fc8:	528000a1 	mov	w1, #0x5                   	// #5
   83fcc:	9100a3e0 	add	x0, sp, #0x28
   83fd0:	f9000bfe 	str	x30, [sp, #16]
   83fd4:	a902ffff 	stp	xzr, xzr, [sp, #40]
   83fd8:	b9003bff 	str	wzr, [sp, #56]
   83fdc:	97fffc7b 	bl	831c8 <mailbox_tag_message.constprop.6>
   83fe0:	72001c1f 	tst	w0, #0xff
   83fe4:	540000c1 	b.ne	83ffc <ARM_setmaxspeed+0x54>  // b.any
   83fe8:	52800013 	mov	w19, #0x0                   	// #0
   83fec:	2a1303e0 	mov	w0, w19
   83ff0:	f9400bfe 	ldr	x30, [sp, #16]
   83ff4:	a8c453f3 	ldp	x19, x20, [sp], #64
   83ff8:	d65f03c0 	ret
   83ffc:	b9403be6 	ldr	w6, [sp, #56]
   84000:	52900042 	mov	w2, #0x8002                	// #32770
   84004:	52800104 	mov	w4, #0x8                   	// #8
   84008:	52800065 	mov	w5, #0x3                   	// #3
   8400c:	2a0403e3 	mov	w3, w4
   84010:	72a00062 	movk	w2, #0x3, lsl #16
   84014:	528000a1 	mov	w1, #0x5                   	// #5
   84018:	9100a3e0 	add	x0, sp, #0x28
   8401c:	97fffc6b 	bl	831c8 <mailbox_tag_message.constprop.6>
   84020:	72001c13 	ands	w19, w0, #0xff
   84024:	54fffe20 	b.eq	83fe8 <ARM_setmaxspeed+0x40>  // b.none
   84028:	b4fffe34 	cbz	x20, 83fec <ARM_setmaxspeed+0x44>
   8402c:	b9403be1 	ldr	w1, [sp, #56]
   84030:	90000020 	adrp	x0, 88000 <BitFont+0x948>
   84034:	911c0000 	add	x0, x0, #0x700
   84038:	d63f0280 	blr	x20
   8403c:	2a1303e0 	mov	w0, w19
   84040:	f9400bfe 	ldr	x30, [sp, #16]
   84044:	a8c453f3 	ldp	x19, x20, [sp], #64
   84048:	d65f03c0 	ret
   8404c:	d503201f 	nop

0000000000084050 <displaySmartStart>:
   84050:	b4000660 	cbz	x0, 8411c <displaySmartStart+0xcc>
   84054:	90000021 	adrp	x1, 88000 <BitFont+0x948>
   84058:	a9bf7bf3 	stp	x19, x30, [sp, #-16]!
   8405c:	aa0003f3 	mov	x19, x0
   84060:	90000020 	adrp	x0, 88000 <BitFont+0x948>
   84064:	39615023 	ldrb	w3, [x1, #2132]
   84068:	911c8000 	add	x0, x0, #0x720
   8406c:	12000c61 	and	w1, w3, #0xf
   84070:	d3441062 	ubfx	x2, x3, #4, #1
   84074:	d3451c63 	ubfx	x3, x3, #5, #3
   84078:	11000442 	add	w2, w2, #0x1
   8407c:	531b6842 	lsl	w2, w2, #5
   84080:	d63f0260 	blr	x19
   84084:	90000020 	adrp	x0, 88000 <BitFont+0x948>
   84088:	7950a002 	ldrh	w2, [x0, #2128]
   8408c:	d3443c42 	ubfx	x2, x2, #4, #12
   84090:	71301c5f 	cmp	w2, #0xc07
   84094:	54000320 	b.eq	840f8 <displaySmartStart+0xa8>  // b.none
   84098:	71340c5f 	cmp	w2, #0xd03
   8409c:	540001c0 	b.eq	840d4 <displaySmartStart+0x84>  // b.none
   840a0:	90000023 	adrp	x3, 88000 <BitFont+0x948>
   840a4:	aa1303e4 	mov	x4, x19
   840a8:	a8c17bf3 	ldp	x19, x30, [sp], #16
   840ac:	712dd85f 	cmp	w2, #0xb76
   840b0:	b9484863 	ldr	w3, [x3, #2120]
   840b4:	90000020 	adrp	x0, 88000 <BitFont+0x948>
   840b8:	90000021 	adrp	x1, 88000 <BitFont+0x948>
   840bc:	911bc000 	add	x0, x0, #0x6f0
   840c0:	911b0021 	add	x1, x1, #0x6c0
   840c4:	9a800021 	csel	x1, x1, x0, eq  // eq = none
   840c8:	90000020 	adrp	x0, 88000 <BitFont+0x948>
   840cc:	911da000 	add	x0, x0, #0x768
   840d0:	d61f0080 	br	x4
   840d4:	90000023 	adrp	x3, 88000 <BitFont+0x948>
   840d8:	aa1303e4 	mov	x4, x19
   840dc:	a8c17bf3 	ldp	x19, x30, [sp], #16
   840e0:	90000021 	adrp	x1, 88000 <BitFont+0x948>
   840e4:	b9484863 	ldr	w3, [x3, #2120]
   840e8:	911b8021 	add	x1, x1, #0x6e0
   840ec:	90000020 	adrp	x0, 88000 <BitFont+0x948>
   840f0:	911da000 	add	x0, x0, #0x768
   840f4:	d61f0080 	br	x4
   840f8:	90000023 	adrp	x3, 88000 <BitFont+0x948>
   840fc:	aa1303e4 	mov	x4, x19
   84100:	a8c17bf3 	ldp	x19, x30, [sp], #16
   84104:	90000021 	adrp	x1, 88000 <BitFont+0x948>
   84108:	b9484863 	ldr	w3, [x3, #2120]
   8410c:	911b4021 	add	x1, x1, #0x6d0
   84110:	90000020 	adrp	x0, 88000 <BitFont+0x948>
   84114:	911da000 	add	x0, x0, #0x768
   84118:	d61f0080 	br	x4
   8411c:	d65f03c0 	ret

0000000000084120 <miniuart_init>:
   84120:	a9bc53f3 	stp	x19, x20, [sp, #-64]!
   84124:	52800042 	mov	w2, #0x2                   	// #2
   84128:	2a0003f4 	mov	w20, w0
   8412c:	52800104 	mov	w4, #0x8                   	// #8
   84130:	52800006 	mov	w6, #0x0                   	// #0
   84134:	52800085 	mov	w5, #0x4                   	// #4
   84138:	2a0403e3 	mov	w3, w4
   8413c:	72a00062 	movk	w2, #0x3, lsl #16
   84140:	528000a1 	mov	w1, #0x5                   	// #5
   84144:	9100a3e0 	add	x0, sp, #0x28
   84148:	f9000bfe 	str	x30, [sp, #16]
   8414c:	531d7294 	lsl	w20, w20, #3
   84150:	a902ffff 	stp	xzr, xzr, [sp, #40]
   84154:	b9003bff 	str	wzr, [sp, #56]
   84158:	97fffc1c 	bl	831c8 <mailbox_tag_message.constprop.6>
   8415c:	b9403bf3 	ldr	w19, [sp, #56]
   84160:	529fffe0 	mov	w0, #0xffff                	// #65535
   84164:	1ad40a73 	udiv	w19, w19, w20
   84168:	51000673 	sub	w19, w19, #0x1
   8416c:	6b00027f 	cmp	w19, w0
   84170:	540000a9 	b.ls	84184 <miniuart_init+0x64>  // b.plast
   84174:	f9400bfe 	ldr	x30, [sp, #16]
   84178:	52800000 	mov	w0, #0x0                   	// #0
   8417c:	a8c453f3 	ldp	x19, x20, [sp], #64
   84180:	d65f03c0 	ret
   84184:	d5033fbf 	dmb	sy
   84188:	90000034 	adrp	x20, 88000 <BitFont+0x948>
   8418c:	52800021 	mov	w1, #0x1                   	// #1
   84190:	b9484280 	ldr	w0, [x20, #2112]
   84194:	11485400 	add	w0, w0, #0x215, lsl #12
   84198:	11001000 	add	w0, w0, #0x4
   8419c:	97fff1a7 	bl	80838 <PUT32>
   841a0:	b9484280 	ldr	w0, [x20, #2112]
   841a4:	11485401 	add	w1, w0, #0x215, lsl #12
   841a8:	11480000 	add	w0, w0, #0x200, lsl #12
   841ac:	11010021 	add	w1, w1, #0x40
   841b0:	b9402022 	ldr	w2, [x1, #32]
   841b4:	121f7842 	and	w2, w2, #0xfffffffe
   841b8:	b9002022 	str	w2, [x1, #32]
   841bc:	b9402022 	ldr	w2, [x1, #32]
   841c0:	121e7842 	and	w2, w2, #0xfffffffd
   841c4:	b9002022 	str	w2, [x1, #32]
   841c8:	b9400c22 	ldr	w2, [x1, #12]
   841cc:	32000042 	orr	w2, w2, #0x1
   841d0:	b9000c22 	str	w2, [x1, #12]
   841d4:	b9401022 	ldr	w2, [x1, #16]
   841d8:	121e7842 	and	w2, w2, #0xfffffffd
   841dc:	b9001022 	str	w2, [x1, #16]
   841e0:	b9400822 	ldr	w2, [x1, #8]
   841e4:	321f0042 	orr	w2, w2, #0x2
   841e8:	b9000822 	str	w2, [x1, #8]
   841ec:	b9400822 	ldr	w2, [x1, #8]
   841f0:	321e0042 	orr	w2, w2, #0x4
   841f4:	b9000822 	str	w2, [x1, #8]
   841f8:	b9402822 	ldr	w2, [x1, #40]
   841fc:	33003e62 	bfxil	w2, w19, #0, #16
   84200:	b9002822 	str	w2, [x1, #40]
   84204:	b9400402 	ldr	w2, [x0, #4]
   84208:	12117042 	and	w2, w2, #0xffff8fff
   8420c:	32130042 	orr	w2, w2, #0x2000
   84210:	b9000402 	str	w2, [x0, #4]
   84214:	b9400402 	ldr	w2, [x0, #4]
   84218:	120e7042 	and	w2, w2, #0xfffc7fff
   8421c:	32100042 	orr	w2, w2, #0x10000
   84220:	b9000402 	str	w2, [x0, #4]
   84224:	b9402020 	ldr	w0, [x1, #32]
   84228:	32000000 	orr	w0, w0, #0x1
   8422c:	b9002020 	str	w0, [x1, #32]
   84230:	b9402020 	ldr	w0, [x1, #32]
   84234:	321f0000 	orr	w0, w0, #0x2
   84238:	b9002020 	str	w0, [x1, #32]
   8423c:	d5033fbf 	dmb	sy
   84240:	52800020 	mov	w0, #0x1                   	// #1
   84244:	f9400bfe 	ldr	x30, [sp, #16]
   84248:	a8c453f3 	ldp	x19, x20, [sp], #64
   8424c:	d65f03c0 	ret

0000000000084250 <miniuart_getc>:
   84250:	d5033fbf 	dmb	sy
   84254:	90000020 	adrp	x0, 88000 <BitFont+0x948>
   84258:	b9484001 	ldr	w1, [x0, #2112]
   8425c:	11485421 	add	w1, w1, #0x215, lsl #12
   84260:	11010021 	add	w1, w1, #0x40
   84264:	d503201f 	nop
   84268:	b9401420 	ldr	w0, [x1, #20]
   8426c:	3607ffe0 	tbz	w0, #0, 84268 <miniuart_getc+0x18>
   84270:	b9400020 	ldr	w0, [x1]
   84274:	d65f03c0 	ret

0000000000084278 <miniuart_putc>:
   84278:	12001c00 	and	w0, w0, #0xff
   8427c:	d5033fbf 	dmb	sy
   84280:	90000021 	adrp	x1, 88000 <BitFont+0x948>
   84284:	b9484022 	ldr	w2, [x1, #2112]
   84288:	11485442 	add	w2, w2, #0x215, lsl #12
   8428c:	11010042 	add	w2, w2, #0x40
   84290:	b9401441 	ldr	w1, [x2, #20]
   84294:	362fffe1 	tbz	w1, #5, 84290 <miniuart_putc+0x18>
   84298:	b9400041 	ldr	w1, [x2]
   8429c:	33001c01 	bfxil	w1, w0, #0, #8
   842a0:	b9000041 	str	w1, [x2]
   842a4:	d5033fbf 	dmb	sy
   842a8:	d65f03c0 	ret
   842ac:	d503201f 	nop

00000000000842b0 <miniuart_puts>:
   842b0:	39400003 	ldrb	w3, [x0]
   842b4:	34000223 	cbz	w3, 842f8 <miniuart_puts+0x48>
   842b8:	90000024 	adrp	x4, 88000 <BitFont+0x948>
   842bc:	528a0805 	mov	w5, #0x5040                	// #20544
   842c0:	91210084 	add	x4, x4, #0x840
   842c4:	72a00425 	movk	w5, #0x21, lsl #16
   842c8:	91000400 	add	x0, x0, #0x1
   842cc:	d5033fbf 	dmb	sy
   842d0:	b9400082 	ldr	w2, [x4]
   842d4:	0b050042 	add	w2, w2, w5
   842d8:	b9401441 	ldr	w1, [x2, #20]
   842dc:	362fffe1 	tbz	w1, #5, 842d8 <miniuart_puts+0x28>
   842e0:	b9400041 	ldr	w1, [x2]
   842e4:	33001c61 	bfxil	w1, w3, #0, #8
   842e8:	b9000041 	str	w1, [x2]
   842ec:	d5033fbf 	dmb	sy
   842f0:	39400003 	ldrb	w3, [x0]
   842f4:	35fffea3 	cbnz	w3, 842c8 <miniuart_puts+0x18>
   842f8:	d65f03c0 	ret
   842fc:	d503201f 	nop

0000000000084300 <pl011_uart_init>:
   84300:	a9bc53f3 	stp	x19, x20, [sp, #-64]!
   84304:	2a0003f3 	mov	w19, w0
   84308:	a9017bf5 	stp	x21, x30, [sp, #16]
   8430c:	a902ffff 	stp	xzr, xzr, [sp, #40]
   84310:	b9003bff 	str	wzr, [sp, #56]
   84314:	d5033fbf 	dmb	sy
   84318:	90000035 	adrp	x21, 88000 <BitFont+0x948>
   8431c:	52900042 	mov	w2, #0x8002                	// #32770
   84320:	52812014 	mov	w20, #0x900                 	// #2304
   84324:	52800104 	mov	w4, #0x8                   	// #8
   84328:	b94842a7 	ldr	w7, [x21, #2112]
   8432c:	72a007b4 	movk	w20, #0x3d, lsl #16
   84330:	2a0403e3 	mov	w3, w4
   84334:	2a1403e6 	mov	w6, w20
   84338:	114804e8 	add	w8, w7, #0x201, lsl #12
   8433c:	114800e7 	add	w7, w7, #0x200, lsl #12
   84340:	52800045 	mov	w5, #0x2                   	// #2
   84344:	72a00062 	movk	w2, #0x3, lsl #16
   84348:	528000a1 	mov	w1, #0x5                   	// #5
   8434c:	9100a3e0 	add	x0, sp, #0x28
   84350:	b900311f 	str	wzr, [x8, #48]
   84354:	b94004e8 	ldr	w8, [x7, #4]
   84358:	12117108 	and	w8, w8, #0xffff8fff
   8435c:	32120108 	orr	w8, w8, #0x4000
   84360:	b90004e8 	str	w8, [x7, #4]
   84364:	b94004e8 	ldr	w8, [x7, #4]
   84368:	120e7108 	and	w8, w8, #0xfffc7fff
   8436c:	320f0108 	orr	w8, w8, #0x20000
   84370:	b90004e8 	str	w8, [x7, #4]
   84374:	97fffb95 	bl	831c8 <mailbox_tag_message.constprop.6>
   84378:	531c6e62 	lsl	w2, w19, #4
   8437c:	b94842a1 	ldr	w1, [x21, #2112]
   84380:	4b1313e0 	neg	w0, w19, lsl #4
   84384:	53017e64 	lsr	w4, w19, #1
   84388:	11480421 	add	w1, w1, #0x201, lsl #12
   8438c:	1ac20a82 	udiv	w2, w20, w2
   84390:	b9402423 	ldr	w3, [x1, #36]
   84394:	1b025000 	madd	w0, w0, w2, w20
   84398:	33003c43 	bfxil	w3, w2, #0, #16
   8439c:	b9002423 	str	w3, [x1, #36]
   843a0:	0b000880 	add	w0, w4, w0, lsl #2
   843a4:	b9402822 	ldr	w2, [x1, #40]
   843a8:	1ad30800 	udiv	w0, w0, w19
   843ac:	33001402 	bfxil	w2, w0, #0, #6
   843b0:	b9002822 	str	w2, [x1, #40]
   843b4:	b9402c20 	ldr	w0, [x1, #44]
   843b8:	321b0400 	orr	w0, w0, #0x60
   843bc:	b9002c20 	str	w0, [x1, #44]
   843c0:	b9402c20 	ldr	w0, [x1, #44]
   843c4:	121e7800 	and	w0, w0, #0xfffffffd
   843c8:	b9002c20 	str	w0, [x1, #44]
   843cc:	b9402c20 	ldr	w0, [x1, #44]
   843d0:	121c7800 	and	w0, w0, #0xfffffff7
   843d4:	b9002c20 	str	w0, [x1, #44]
   843d8:	b9402c20 	ldr	w0, [x1, #44]
   843dc:	121b7800 	and	w0, w0, #0xffffffef
   843e0:	b9002c20 	str	w0, [x1, #44]
   843e4:	b9403020 	ldr	w0, [x1, #48]
   843e8:	32000000 	orr	w0, w0, #0x1
   843ec:	b9003020 	str	w0, [x1, #48]
   843f0:	b9403020 	ldr	w0, [x1, #48]
   843f4:	32170000 	orr	w0, w0, #0x200
   843f8:	b9003020 	str	w0, [x1, #48]
   843fc:	b9403020 	ldr	w0, [x1, #48]
   84400:	32180000 	orr	w0, w0, #0x100
   84404:	b9003020 	str	w0, [x1, #48]
   84408:	d5033fbf 	dmb	sy
   8440c:	52800020 	mov	w0, #0x1                   	// #1
   84410:	a9417bf5 	ldp	x21, x30, [sp, #16]
   84414:	a8c453f3 	ldp	x19, x20, [sp], #64
   84418:	d65f03c0 	ret
   8441c:	d503201f 	nop

0000000000084420 <pl011_uart_getc>:
   84420:	d5033fbf 	dmb	sy
   84424:	90000020 	adrp	x0, 88000 <BitFont+0x948>
   84428:	b9484001 	ldr	w1, [x0, #2112]
   8442c:	11480421 	add	w1, w1, #0x201, lsl #12
   84430:	b9401820 	ldr	w0, [x1, #24]
   84434:	3727ffe0 	tbnz	w0, #4, 84430 <pl011_uart_getc+0x10>
   84438:	b9400020 	ldr	w0, [x1]
   8443c:	d65f03c0 	ret

0000000000084440 <pl011_uart_putc>:
   84440:	12001c00 	and	w0, w0, #0xff
   84444:	d5033fbf 	dmb	sy
   84448:	90000021 	adrp	x1, 88000 <BitFont+0x948>
   8444c:	b9484022 	ldr	w2, [x1, #2112]
   84450:	11480442 	add	w2, w2, #0x201, lsl #12
   84454:	d503201f 	nop
   84458:	b9401841 	ldr	w1, [x2, #24]
   8445c:	372fffe1 	tbnz	w1, #5, 84458 <pl011_uart_putc+0x18>
   84460:	b9400041 	ldr	w1, [x2]
   84464:	33001c01 	bfxil	w1, w0, #0, #8
   84468:	b9000041 	str	w1, [x2]
   8446c:	d5033fbf 	dmb	sy
   84470:	d65f03c0 	ret
   84474:	d503201f 	nop

0000000000084478 <pl011_uart_puts>:
   84478:	39400003 	ldrb	w3, [x0]
   8447c:	340001e3 	cbz	w3, 844b8 <pl011_uart_puts+0x40>
   84480:	90000024 	adrp	x4, 88000 <BitFont+0x948>
   84484:	91210084 	add	x4, x4, #0x840
   84488:	91000400 	add	x0, x0, #0x1
   8448c:	d5033fbf 	dmb	sy
   84490:	b9400082 	ldr	w2, [x4]
   84494:	11480442 	add	w2, w2, #0x201, lsl #12
   84498:	b9401841 	ldr	w1, [x2, #24]
   8449c:	372fffe1 	tbnz	w1, #5, 84498 <pl011_uart_puts+0x20>
   844a0:	b9400041 	ldr	w1, [x2]
   844a4:	33001c61 	bfxil	w1, w3, #0, #8
   844a8:	b9000041 	str	w1, [x2]
   844ac:	d5033fbf 	dmb	sy
   844b0:	39400003 	ldrb	w3, [x0]
   844b4:	35fffea3 	cbnz	w3, 84488 <pl011_uart_puts+0x10>
   844b8:	d65f03c0 	ret
   844bc:	d503201f 	nop

00000000000844c0 <Embedded_Console_WriteChar>:
   844c0:	12001c01 	and	w1, w0, #0xff
   844c4:	7100283f 	cmp	w1, #0xa
   844c8:	54000480 	b.eq	84558 <Embedded_Console_WriteChar+0x98>  // b.none
   844cc:	7100343f 	cmp	w1, #0xd
   844d0:	540003e0 	b.eq	8454c <Embedded_Console_WriteChar+0x8c>  // b.none
   844d4:	7100243f 	cmp	w1, #0x9
   844d8:	54000240 	b.eq	84520 <Embedded_Console_WriteChar+0x60>  // b.none
   844dc:	a9bf7bf3 	stp	x19, x30, [sp, #-16]!
   844e0:	b0000033 	adrp	x19, 89000 <__bss_start__>
   844e4:	91004273 	add	x19, x19, #0x10
   844e8:	91001273 	add	x19, x19, #0x4
   844ec:	aa1303e0 	mov	x0, x19
   844f0:	29440e64 	ldp	w4, w3, [x19, #32]
   844f4:	294b8a65 	ldp	w5, w2, [x19, #92]
   844f8:	531d7084 	lsl	w4, w4, #3
   844fc:	531c6c63 	lsl	w3, w3, #4
   84500:	29030e64 	stp	w4, w3, [x19, #24]
   84504:	aa0280a2 	orr	x2, x5, x2, lsl #32
   84508:	d63f0040 	blr	x2
   8450c:	b9402260 	ldr	w0, [x19, #32]
   84510:	11000400 	add	w0, w0, #0x1
   84514:	b9002260 	str	w0, [x19, #32]
   84518:	a8c17bf3 	ldp	x19, x30, [sp], #16
   8451c:	d65f03c0 	ret
   84520:	b0000021 	adrp	x1, 89000 <__bss_start__>
   84524:	91004021 	add	x1, x1, #0x10
   84528:	b9402420 	ldr	w0, [x1, #36]
   8452c:	11001400 	add	w0, w0, #0x5
   84530:	6b0003e2 	negs	w2, w0
   84534:	12000403 	and	w3, w0, #0x3
   84538:	12000442 	and	w2, w2, #0x3
   8453c:	5a824462 	csneg	w2, w3, w2, mi  // mi = first
   84540:	4b020000 	sub	w0, w0, w2
   84544:	b9002420 	str	w0, [x1, #36]
   84548:	d65f03c0 	ret
   8454c:	b0000020 	adrp	x0, 89000 <__bss_start__>
   84550:	b900341f 	str	wzr, [x0, #52]
   84554:	d65f03c0 	ret
   84558:	b0000020 	adrp	x0, 89000 <__bss_start__>
   8455c:	91004000 	add	x0, x0, #0x10
   84560:	b9402801 	ldr	w1, [x0, #40]
   84564:	11000421 	add	w1, w1, #0x1
   84568:	2904841f 	stp	wzr, w1, [x0, #36]
   8456c:	d65f03c0 	ret

0000000000084570 <WriteText>:
   84570:	b4000782 	cbz	x2, 84660 <WriteText+0xf0>
   84574:	a9bd53f3 	stp	x19, x20, [sp, #-48]!
   84578:	2a0003e3 	mov	w3, w0
   8457c:	aa0203f3 	mov	x19, x2
   84580:	aa0203e0 	mov	x0, x2
   84584:	f9000bf5 	str	x21, [sp, #16]
   84588:	b0000035 	adrp	x21, 89000 <__bss_start__>
   8458c:	910042b5 	add	x21, x21, #0x10
   84590:	f90013fe 	str	x30, [sp, #32]
   84594:	290486a3 	stp	w3, w1, [x21, #36]
   84598:	94000b5a 	bl	87300 <strlen>
   8459c:	b4000440 	cbz	x0, 84624 <WriteText+0xb4>
   845a0:	f9000ff6 	str	x22, [sp, #24]
   845a4:	8b000276 	add	x22, x19, x0
   845a8:	14000015 	b	845fc <WriteText+0x8c>
   845ac:	910012b4 	add	x20, x21, #0x4
   845b0:	2a0203e1 	mov	w1, w2
   845b4:	aa1403e0 	mov	x0, x20
   845b8:	7100345f 	cmp	w2, #0xd
   845bc:	540004e0 	b.eq	84658 <WriteText+0xe8>  // b.none
   845c0:	7100245f 	cmp	w2, #0x9
   845c4:	54000380 	b.eq	84634 <WriteText+0xc4>  // b.none
   845c8:	29440e84 	ldp	w4, w3, [x20, #32]
   845cc:	294b8a85 	ldp	w5, w2, [x20, #92]
   845d0:	531d7084 	lsl	w4, w4, #3
   845d4:	531c6c63 	lsl	w3, w3, #4
   845d8:	29030e84 	stp	w4, w3, [x20, #24]
   845dc:	aa0280a2 	orr	x2, x5, x2, lsl #32
   845e0:	d63f0040 	blr	x2
   845e4:	b9402280 	ldr	w0, [x20, #32]
   845e8:	11000400 	add	w0, w0, #0x1
   845ec:	b9002280 	str	w0, [x20, #32]
   845f0:	91000673 	add	x19, x19, #0x1
   845f4:	eb1302df 	cmp	x22, x19
   845f8:	54000140 	b.eq	84620 <WriteText+0xb0>  // b.none
   845fc:	39400262 	ldrb	w2, [x19]
   84600:	7100285f 	cmp	w2, #0xa
   84604:	54fffd41 	b.ne	845ac <WriteText+0x3c>  // b.any
   84608:	b9402aa1 	ldr	w1, [x21, #40]
   8460c:	91000673 	add	x19, x19, #0x1
   84610:	eb1302df 	cmp	x22, x19
   84614:	11000421 	add	w1, w1, #0x1
   84618:	290486bf 	stp	wzr, w1, [x21, #36]
   8461c:	54ffff01 	b.ne	845fc <WriteText+0x8c>  // b.any
   84620:	f9400ff6 	ldr	x22, [sp, #24]
   84624:	f9400bf5 	ldr	x21, [sp, #16]
   84628:	f94013fe 	ldr	x30, [sp, #32]
   8462c:	a8c353f3 	ldp	x19, x20, [sp], #48
   84630:	d65f03c0 	ret
   84634:	b94026a1 	ldr	w1, [x21, #36]
   84638:	11001421 	add	w1, w1, #0x5
   8463c:	6b0103e0 	negs	w0, w1
   84640:	12000423 	and	w3, w1, #0x3
   84644:	12000400 	and	w0, w0, #0x3
   84648:	5a804460 	csneg	w0, w3, w0, mi  // mi = first
   8464c:	4b000021 	sub	w1, w1, w0
   84650:	b90026a1 	str	w1, [x21, #36]
   84654:	17ffffe7 	b	845f0 <WriteText+0x80>
   84658:	b90026bf 	str	wzr, [x21, #36]
   8465c:	17ffffe5 	b	845f0 <WriteText+0x80>
   84660:	d65f03c0 	ret
   84664:	d503201f 	nop

0000000000084668 <SetDCPenColor>:
   84668:	d10083ff 	sub	sp, sp, #0x20
   8466c:	52800002 	mov	w2, #0x0                   	// #0
   84670:	b9000be1 	str	w1, [sp, #8]
   84674:	b4000060 	cbz	x0, 84680 <SetDCPenColor+0x18>
   84678:	b9402802 	ldr	w2, [x0, #40]
   8467c:	b9002801 	str	w1, [x0, #40]
   84680:	2a0203e0 	mov	w0, w2
   84684:	910083ff 	add	sp, sp, #0x20
   84688:	d65f03c0 	ret
   8468c:	d503201f 	nop

0000000000084690 <SetDCBrushColor>:
   84690:	d10083ff 	sub	sp, sp, #0x20
   84694:	52800002 	mov	w2, #0x0                   	// #0
   84698:	b9000be1 	str	w1, [sp, #8]
   8469c:	b4000060 	cbz	x0, 846a8 <SetDCBrushColor+0x18>
   846a0:	b9403002 	ldr	w2, [x0, #48]
   846a4:	b9003001 	str	w1, [x0, #48]
   846a8:	2a0203e0 	mov	w0, w2
   846ac:	910083ff 	add	sp, sp, #0x20
   846b0:	d65f03c0 	ret
   846b4:	d503201f 	nop

00000000000846b8 <SetTextColor>:
   846b8:	d10083ff 	sub	sp, sp, #0x20
   846bc:	b9000be1 	str	w1, [sp, #8]
   846c0:	b9001be1 	str	w1, [sp, #24]
   846c4:	b40000e0 	cbz	x0, 846e0 <SetTextColor+0x28>
   846c8:	2a0103e2 	mov	w2, w1
   846cc:	b9402801 	ldr	w1, [x0, #40]
   846d0:	b9002802 	str	w2, [x0, #40]
   846d4:	2a0103e0 	mov	w0, w1
   846d8:	910083ff 	add	sp, sp, #0x20
   846dc:	d65f03c0 	ret
   846e0:	52800001 	mov	w1, #0x0                   	// #0
   846e4:	2a0103e0 	mov	w0, w1
   846e8:	910083ff 	add	sp, sp, #0x20
   846ec:	d65f03c0 	ret

00000000000846f0 <MoveToEx>:
   846f0:	b4000120 	cbz	x0, 84714 <MoveToEx+0x24>
   846f4:	b40000a3 	cbz	x3, 84708 <MoveToEx+0x18>
   846f8:	b9401804 	ldr	w4, [x0, #24]
   846fc:	b9000064 	str	w4, [x3]
   84700:	b9401c04 	ldr	w4, [x0, #28]
   84704:	b9000464 	str	w4, [x3, #4]
   84708:	29030801 	stp	w1, w2, [x0, #24]
   8470c:	52800020 	mov	w0, #0x1                   	// #1
   84710:	d65f03c0 	ret
   84714:	52800000 	mov	w0, #0x0                   	// #0
   84718:	d65f03c0 	ret
   8471c:	d503201f 	nop

0000000000084720 <LineTo>:
   84720:	b4000360 	cbz	x0, 8478c <LineTo+0x6c>
   84724:	f81f0ffe 	str	x30, [sp, #-16]!
   84728:	b9401805 	ldr	w5, [x0, #24]
   8472c:	6b0100bf 	cmp	w5, w1
   84730:	540001ec 	b.gt	8476c <LineTo+0x4c>
   84734:	4b050025 	sub	w5, w1, w5
   84738:	b9401c01 	ldr	w1, [x0, #28]
   8473c:	52800023 	mov	w3, #0x1                   	// #1
   84740:	6b02003f 	cmp	w1, w2
   84744:	540001ed 	b.le	84780 <LineTo+0x60>
   84748:	4b020021 	sub	w1, w1, w2
   8474c:	12800002 	mov	w2, #0xffffffff            	// #-1
   84750:	35000225 	cbnz	w5, 84794 <LineTo+0x74>
   84754:	29488c04 	ldp	w4, w3, [x0, #68]
   84758:	aa038083 	orr	x3, x4, x3, lsl #32
   8475c:	d63f0060 	blr	x3
   84760:	52800020 	mov	w0, #0x1                   	// #1
   84764:	f84107fe 	ldr	x30, [sp], #16
   84768:	d65f03c0 	ret
   8476c:	4b0100a5 	sub	w5, w5, w1
   84770:	b9401c01 	ldr	w1, [x0, #28]
   84774:	12800003 	mov	w3, #0xffffffff            	// #-1
   84778:	6b02003f 	cmp	w1, w2
   8477c:	54fffe6c 	b.gt	84748 <LineTo+0x28>
   84780:	4b010041 	sub	w1, w2, w1
   84784:	52800022 	mov	w2, #0x1                   	// #1
   84788:	17fffff2 	b	84750 <LineTo+0x30>
   8478c:	52800000 	mov	w0, #0x0                   	// #0
   84790:	d65f03c0 	ret
   84794:	34000121 	cbz	w1, 847b8 <LineTo+0x98>
   84798:	294a9807 	ldp	w7, w6, [x0, #84]
   8479c:	2a0203e4 	mov	w4, w2
   847a0:	2a0103e2 	mov	w2, w1
   847a4:	2a0503e1 	mov	w1, w5
   847a8:	aa0680e5 	orr	x5, x7, x6, lsl #32
   847ac:	d63f00a0 	blr	x5
   847b0:	52800020 	mov	w0, #0x1                   	// #1
   847b4:	17ffffec 	b	84764 <LineTo+0x44>
   847b8:	29499006 	ldp	w6, w4, [x0, #76]
   847bc:	2a0303e2 	mov	w2, w3
   847c0:	2a0503e1 	mov	w1, w5
   847c4:	aa0480c3 	orr	x3, x6, x4, lsl #32
   847c8:	d63f0060 	blr	x3
   847cc:	52800020 	mov	w0, #0x1                   	// #1
   847d0:	17ffffe5 	b	84764 <LineTo+0x44>
   847d4:	d503201f 	nop

00000000000847d8 <TextOut>:
   847d8:	7100009f 	cmp	w4, #0x0
   847dc:	fa401864 	ccmp	x3, #0x0, #0x4, ne  // ne = any
   847e0:	540003e0 	b.eq	8485c <TextOut+0x84>  // b.none
   847e4:	a9bd53f3 	stp	x19, x20, [sp, #-48]!
   847e8:	7100009f 	cmp	w4, #0x0
   847ec:	a9015bf5 	stp	x21, x22, [sp, #16]
   847f0:	2a0103f5 	mov	w21, w1
   847f4:	f90017fe 	str	x30, [sp, #40]
   847f8:	2a0203f6 	mov	w22, w2
   847fc:	5400026d 	b.le	84848 <TextOut+0x70>
   84800:	51000484 	sub	w4, w4, #0x1
   84804:	b0000033 	adrp	x19, 89000 <__bss_start__>
   84808:	f90013f7 	str	x23, [sp, #32]
   8480c:	91004273 	add	x19, x19, #0x10
   84810:	91000477 	add	x23, x3, #0x1
   84814:	aa0303f4 	mov	x20, x3
   84818:	91001273 	add	x19, x19, #0x4
   8481c:	8b0402f7 	add	x23, x23, x4
   84820:	29035a75 	stp	w21, w22, [x19, #24]
   84824:	aa1303e0 	mov	x0, x19
   84828:	294b8a63 	ldp	w3, w2, [x19, #92]
   8482c:	110022b5 	add	w21, w21, #0x8
   84830:	38401681 	ldrb	w1, [x20], #1
   84834:	aa028062 	orr	x2, x3, x2, lsl #32
   84838:	d63f0040 	blr	x2
   8483c:	eb17029f 	cmp	x20, x23
   84840:	54ffff01 	b.ne	84820 <TextOut+0x48>  // b.any
   84844:	f94013f7 	ldr	x23, [sp, #32]
   84848:	52800020 	mov	w0, #0x1                   	// #1
   8484c:	f94017fe 	ldr	x30, [sp, #40]
   84850:	a9415bf5 	ldp	x21, x22, [sp, #16]
   84854:	a8c353f3 	ldp	x19, x20, [sp], #48
   84858:	d65f03c0 	ret
   8485c:	52800000 	mov	w0, #0x0                   	// #0
   84860:	d65f03c0 	ret
   84864:	d503201f 	nop

0000000000084868 <TransparentTextOut>:
   84868:	b4000342 	cbz	x2, 848d0 <TransparentTextOut+0x68>
   8486c:	a9bd53f3 	stp	x19, x20, [sp, #-48]!
   84870:	b0000033 	adrp	x19, 89000 <__bss_start__>
   84874:	91004273 	add	x19, x19, #0x10
   84878:	aa0203f4 	mov	x20, x2
   8487c:	a9015bf5 	stp	x21, x22, [sp, #16]
   84880:	2a0003f5 	mov	w21, w0
   84884:	f90013fe 	str	x30, [sp, #32]
   84888:	2a0103f6 	mov	w22, w1
   8488c:	91001273 	add	x19, x19, #0x4
   84890:	39400040 	ldrb	w0, [x2]
   84894:	34000140 	cbz	w0, 848bc <TransparentTextOut+0x54>
   84898:	29035a75 	stp	w21, w22, [x19, #24]
   8489c:	aa1303e0 	mov	x0, x19
   848a0:	294c8e62 	ldp	w2, w3, [x19, #100]
   848a4:	110022b5 	add	w21, w21, #0x8
   848a8:	38401681 	ldrb	w1, [x20], #1
   848ac:	aa038043 	orr	x3, x2, x3, lsl #32
   848b0:	d63f0060 	blr	x3
   848b4:	39400280 	ldrb	w0, [x20]
   848b8:	35ffff00 	cbnz	w0, 84898 <TransparentTextOut+0x30>
   848bc:	52800020 	mov	w0, #0x1                   	// #1
   848c0:	f94013fe 	ldr	x30, [sp, #32]
   848c4:	a9415bf5 	ldp	x21, x22, [sp, #16]
   848c8:	a8c353f3 	ldp	x19, x20, [sp], #48
   848cc:	d65f03c0 	ret
   848d0:	52800000 	mov	w0, #0x0                   	// #0
   848d4:	d65f03c0 	ret

00000000000848d8 <BmpOut>:
   848d8:	b4000200 	cbz	x0, 84918 <BmpOut+0x40>
   848dc:	f81f0ffe 	str	x30, [sp, #-16]!
   848e0:	0b040047 	add	w7, w2, w4
   848e4:	2a0303e9 	mov	w9, w3
   848e8:	aa0503e3 	mov	x3, x5
   848ec:	294d9402 	ldp	w2, w5, [x0, #108]
   848f0:	2a0403e8 	mov	w8, w4
   848f4:	29031c01 	stp	w1, w7, [x0, #24]
   848f8:	52800024 	mov	w4, #0x1                   	// #1
   848fc:	2a0903e1 	mov	w1, w9
   84900:	aa058045 	orr	x5, x2, x5, lsl #32
   84904:	2a0803e2 	mov	w2, w8
   84908:	d63f00a0 	blr	x5
   8490c:	52800020 	mov	w0, #0x1                   	// #1
   84910:	f84107fe 	ldr	x30, [sp], #16
   84914:	d65f03c0 	ret
   84918:	52800000 	mov	w0, #0x0                   	// #0
   8491c:	d65f03c0 	ret

0000000000084920 <CvtBmpLine>:
   84920:	b4000680 	cbz	x0, 849f0 <CvtBmpLine+0xd0>
   84924:	d2820210 	mov	x16, #0x1010                	// #4112
   84928:	cb3063ff 	sub	sp, sp, x16
   8492c:	f90003fe 	str	x30, [sp]
   84930:	29030801 	stp	w1, w2, [x0, #24]
   84934:	b9401006 	ldr	w6, [x0, #16]
   84938:	6b0400df 	cmp	w6, w4
   8493c:	54000420 	b.eq	849c0 <CvtBmpLine+0xa0>  // b.none
   84940:	710060df 	cmp	w6, #0x18
   84944:	54000820 	b.eq	84a48 <CvtBmpLine+0x128>  // b.none
   84948:	710080df 	cmp	w6, #0x20
   8494c:	54000560 	b.eq	849f8 <CvtBmpLine+0xd8>  // b.none
   84950:	710040df 	cmp	w6, #0x10
   84954:	54000361 	b.ne	849c0 <CvtBmpLine+0xa0>  // b.any
   84958:	7100609f 	cmp	w4, #0x18
   8495c:	540009a0 	b.eq	84a90 <CvtBmpLine+0x170>  // b.none
   84960:	34000303 	cbz	w3, 849c0 <CvtBmpLine+0xa0>
   84964:	51000468 	sub	w8, w3, #0x1
   84968:	910043e1 	add	x1, sp, #0x10
   8496c:	8b2848a8 	add	x8, x5, w8, uxtw #2
   84970:	91001108 	add	x8, x8, #0x4
   84974:	d503201f 	nop
   84978:	394008a4 	ldrb	w4, [x5, #2]
   8497c:	91000821 	add	x1, x1, #0x2
   84980:	394004a6 	ldrb	w6, [x5, #1]
   84984:	384044a2 	ldrb	w2, [x5], #4
   84988:	385fe027 	ldurb	w7, [x1, #-2]
   8498c:	53037c84 	lsr	w4, w4, #3
   84990:	53027cc6 	lsr	w6, w6, #2
   84994:	eb05011f 	cmp	x8, x5
   84998:	53037c42 	lsr	w2, w2, #3
   8499c:	33001047 	bfxil	w7, w2, #0, #5
   849a0:	381fe027 	sturb	w7, [x1, #-2]
   849a4:	785fe022 	ldurh	w2, [x1, #-2]
   849a8:	331b14c2 	bfi	w2, w6, #5, #6
   849ac:	781fe022 	sturh	w2, [x1, #-2]
   849b0:	d3483c42 	ubfx	x2, x2, #8, #8
   849b4:	331d1082 	bfi	w2, w4, #3, #5
   849b8:	381ff022 	sturb	w2, [x1, #-1]
   849bc:	54fffde1 	b.ne	84978 <CvtBmpLine+0x58>  // b.any
   849c0:	294d9406 	ldp	w6, w5, [x0, #108]
   849c4:	2a0303e1 	mov	w1, w3
   849c8:	52800024 	mov	w4, #0x1                   	// #1
   849cc:	910043e3 	add	x3, sp, #0x10
   849d0:	52800022 	mov	w2, #0x1                   	// #1
   849d4:	aa0580c5 	orr	x5, x6, x5, lsl #32
   849d8:	d63f00a0 	blr	x5
   849dc:	f94003fe 	ldr	x30, [sp]
   849e0:	52800020 	mov	w0, #0x1                   	// #1
   849e4:	d2820210 	mov	x16, #0x1010                	// #4112
   849e8:	8b3063ff 	add	sp, sp, x16
   849ec:	d65f03c0 	ret
   849f0:	52800000 	mov	w0, #0x0                   	// #0
   849f4:	d65f03c0 	ret
   849f8:	7100409f 	cmp	w4, #0x10
   849fc:	54000b00 	b.eq	84b5c <CvtBmpLine+0x23c>  // b.none
   84a00:	34fffe03 	cbz	w3, 849c0 <CvtBmpLine+0xa0>
   84a04:	51000464 	sub	w4, w3, #0x1
   84a08:	aa0503e1 	mov	x1, x5
   84a0c:	91000484 	add	x4, x4, #0x1
   84a10:	910043e2 	add	x2, sp, #0x10
   84a14:	8b040484 	add	x4, x4, x4, lsl #1
   84a18:	8b0400a5 	add	x5, x5, x4
   84a1c:	d503201f 	nop
   84a20:	91000c21 	add	x1, x1, #0x3
   84a24:	385fd024 	ldurb	w4, [x1, #-3]
   84a28:	38004444 	strb	w4, [x2], #4
   84a2c:	eb0100bf 	cmp	x5, x1
   84a30:	385fe026 	ldurb	w6, [x1, #-2]
   84a34:	385ff024 	ldurb	w4, [x1, #-1]
   84a38:	381fd046 	sturb	w6, [x2, #-3]
   84a3c:	381fe044 	sturb	w4, [x2, #-2]
   84a40:	54ffff01 	b.ne	84a20 <CvtBmpLine+0x100>  // b.any
   84a44:	17ffffdf 	b	849c0 <CvtBmpLine+0xa0>
   84a48:	7100409f 	cmp	w4, #0x10
   84a4c:	540005a0 	b.eq	84b00 <CvtBmpLine+0x1e0>  // b.none
   84a50:	34fffb83 	cbz	w3, 849c0 <CvtBmpLine+0xa0>
   84a54:	51000462 	sub	w2, w3, #0x1
   84a58:	910043e1 	add	x1, sp, #0x10
   84a5c:	91000442 	add	x2, x2, #0x1
   84a60:	8b020442 	add	x2, x2, x2, lsl #1
   84a64:	8b020022 	add	x2, x1, x2
   84a68:	910010a5 	add	x5, x5, #0x4
   84a6c:	385fc0a4 	ldurb	w4, [x5, #-4]
   84a70:	38003424 	strb	w4, [x1], #3
   84a74:	385fd0a6 	ldurb	w6, [x5, #-3]
   84a78:	385fe0a4 	ldurb	w4, [x5, #-2]
   84a7c:	eb02003f 	cmp	x1, x2
   84a80:	381fe026 	sturb	w6, [x1, #-2]
   84a84:	381ff024 	sturb	w4, [x1, #-1]
   84a88:	54ffff01 	b.ne	84a68 <CvtBmpLine+0x148>  // b.any
   84a8c:	17ffffcd 	b	849c0 <CvtBmpLine+0xa0>
   84a90:	34fff983 	cbz	w3, 849c0 <CvtBmpLine+0xa0>
   84a94:	51000462 	sub	w2, w3, #0x1
   84a98:	aa0503e4 	mov	x4, x5
   84a9c:	91000442 	add	x2, x2, #0x1
   84aa0:	910043e1 	add	x1, sp, #0x10
   84aa4:	8b020442 	add	x2, x2, x2, lsl #1
   84aa8:	8b0200a5 	add	x5, x5, x2
   84aac:	d503201f 	nop
   84ab0:	91000c84 	add	x4, x4, #0x3
   84ab4:	385fd082 	ldurb	w2, [x4, #-3]
   84ab8:	39400028 	ldrb	w8, [x1]
   84abc:	91000821 	add	x1, x1, #0x2
   84ac0:	385fe087 	ldurb	w7, [x4, #-2]
   84ac4:	eb05009f 	cmp	x4, x5
   84ac8:	53037c42 	lsr	w2, w2, #3
   84acc:	385ff086 	ldurb	w6, [x4, #-1]
   84ad0:	33001048 	bfxil	w8, w2, #0, #5
   84ad4:	381fe028 	sturb	w8, [x1, #-2]
   84ad8:	53027ce7 	lsr	w7, w7, #2
   84adc:	53037cc6 	lsr	w6, w6, #3
   84ae0:	785fe022 	ldurh	w2, [x1, #-2]
   84ae4:	331b14e2 	bfi	w2, w7, #5, #6
   84ae8:	781fe022 	sturh	w2, [x1, #-2]
   84aec:	d3483c42 	ubfx	x2, x2, #8, #8
   84af0:	331d10c2 	bfi	w2, w6, #3, #5
   84af4:	381ff022 	sturb	w2, [x1, #-1]
   84af8:	54fffdc1 	b.ne	84ab0 <CvtBmpLine+0x190>  // b.any
   84afc:	17ffffb1 	b	849c0 <CvtBmpLine+0xa0>
   84b00:	34fff603 	cbz	w3, 849c0 <CvtBmpLine+0xa0>
   84b04:	51000467 	sub	w7, w3, #0x1
   84b08:	910043e4 	add	x4, sp, #0x10
   84b0c:	910004e7 	add	x7, x7, #0x1
   84b10:	8b0704e7 	add	x7, x7, x7, lsl #1
   84b14:	8b070087 	add	x7, x4, x7
   84b18:	394000a6 	ldrb	w6, [x5]
   84b1c:	910008a5 	add	x5, x5, #0x2
   84b20:	385ff0a1 	ldurb	w1, [x5, #-1]
   84b24:	aa0103e2 	mov	x2, x1
   84b28:	d3451cc8 	ubfx	x8, x6, #5, #3
   84b2c:	d37d0821 	ubfiz	x1, x1, #3, #3
   84b30:	531d10c6 	ubfiz	w6, w6, #3, #5
   84b34:	38003486 	strb	w6, [x4], #3
   84b38:	d3431c42 	ubfx	x2, x2, #3, #5
   84b3c:	aa080021 	orr	x1, x1, x8
   84b40:	531d1042 	ubfiz	w2, w2, #3, #5
   84b44:	531e1421 	ubfiz	w1, w1, #2, #6
   84b48:	381fe081 	sturb	w1, [x4, #-2]
   84b4c:	381ff082 	sturb	w2, [x4, #-1]
   84b50:	eb07009f 	cmp	x4, x7
   84b54:	54fffe21 	b.ne	84b18 <CvtBmpLine+0x1f8>  // b.any
   84b58:	17ffff9a 	b	849c0 <CvtBmpLine+0xa0>
   84b5c:	34fff323 	cbz	w3, 849c0 <CvtBmpLine+0xa0>
   84b60:	51000461 	sub	w1, w3, #0x1
   84b64:	910053e8 	add	x8, sp, #0x14
   84b68:	910043e2 	add	x2, sp, #0x10
   84b6c:	8b214908 	add	x8, x8, w1, uxtw #2
   84b70:	394000a6 	ldrb	w6, [x5]
   84b74:	91001042 	add	x2, x2, #0x4
   84b78:	394004a1 	ldrb	w1, [x5, #1]
   84b7c:	eb02011f 	cmp	x8, x2
   84b80:	910008a5 	add	x5, x5, #0x2
   84b84:	aa0103e4 	mov	x4, x1
   84b88:	d3451cc7 	ubfx	x7, x6, #5, #3
   84b8c:	d37d0821 	ubfiz	x1, x1, #3, #3
   84b90:	531d10c6 	ubfiz	w6, w6, #3, #5
   84b94:	d3431c84 	ubfx	x4, x4, #3, #5
   84b98:	aa070021 	orr	x1, x1, x7
   84b9c:	531d1084 	ubfiz	w4, w4, #3, #5
   84ba0:	531e1421 	ubfiz	w1, w1, #2, #6
   84ba4:	381fc046 	sturb	w6, [x2, #-4]
   84ba8:	381fd041 	sturb	w1, [x2, #-3]
   84bac:	381fe044 	sturb	w4, [x2, #-2]
   84bb0:	54fffe01 	b.ne	84b70 <CvtBmpLine+0x250>  // b.any
   84bb4:	17ffff83 	b	849c0 <CvtBmpLine+0xa0>

0000000000084bb8 <Rectangle>:
   84bb8:	b4000100 	cbz	x0, 84bd8 <Rectangle+0x20>
   84bbc:	f81f0ffe 	str	x30, [sp, #-16]!
   84bc0:	29479406 	ldp	w6, w5, [x0, #60]
   84bc4:	aa0580c5 	orr	x5, x6, x5, lsl #32
   84bc8:	d63f00a0 	blr	x5
   84bcc:	52800020 	mov	w0, #0x1                   	// #1
   84bd0:	f84107fe 	ldr	x30, [sp], #16
   84bd4:	d65f03c0 	ret
   84bd8:	52800000 	mov	w0, #0x0                   	// #0
   84bdc:	d65f03c0 	ret

0000000000084be0 <SetPixel>:
   84be0:	d10083ff 	sub	sp, sp, #0x20
   84be4:	b9000be3 	str	w3, [sp, #8]
   84be8:	b40000c0 	cbz	x0, 84c00 <SetPixel+0x20>
   84bec:	29469005 	ldp	w5, w4, [x0, #52]
   84bf0:	f94007e3 	ldr	x3, [sp, #8]
   84bf4:	910083ff 	add	sp, sp, #0x20
   84bf8:	aa0480a4 	orr	x4, x5, x4, lsl #32
   84bfc:	d61f0080 	br	x4
   84c00:	12800000 	mov	w0, #0xffffffff            	// #-1
   84c04:	910083ff 	add	sp, sp, #0x20
   84c08:	d65f03c0 	ret
   84c0c:	d503201f 	nop

0000000000084c10 <PiConsole_Init>:
   84c10:	d10483ff 	sub	sp, sp, #0x120
   84c14:	7100001f 	cmp	w0, #0x0
   84c18:	7a401824 	ccmp	w1, #0x0, #0x4, ne  // ne = any
   84c1c:	a90953f3 	stp	x19, x20, [sp, #144]
   84c20:	2a0003f3 	mov	w19, w0
   84c24:	a90a5bf5 	stp	x21, x22, [sp, #160]
   84c28:	2a0103f4 	mov	w20, w1
   84c2c:	a90b7bf7 	stp	x23, x30, [sp, #176]
   84c30:	2a0203f5 	mov	w21, w2
   84c34:	aa0303f7 	mov	x23, x3
   84c38:	54000740 	b.eq	84d20 <PiConsole_Init+0x110>  // b.none
   84c3c:	35000195 	cbnz	w21, 84c6c <PiConsole_Init+0x5c>
   84c40:	528000a2 	mov	w2, #0x5                   	// #5
   84c44:	52800084 	mov	w4, #0x4                   	// #4
   84c48:	52800005 	mov	w5, #0x0                   	// #0
   84c4c:	2a0403e3 	mov	w3, w4
   84c50:	72a00082 	movk	w2, #0x4, lsl #16
   84c54:	2a0403e1 	mov	w1, w4
   84c58:	910303e0 	add	x0, sp, #0xc0
   84c5c:	97fff9af 	bl	83318 <mailbox_tag_message.constprop.7>
   84c60:	72001c1f 	tst	w0, #0xff
   84c64:	54000500 	b.eq	84d04 <PiConsole_Init+0xf4>  // b.none
   84c68:	b940cff5 	ldr	w21, [sp, #204]
   84c6c:	52800080 	mov	w0, #0x4                   	// #4
   84c70:	52800202 	mov	w2, #0x10                  	// #16
   84c74:	b9002be0 	str	w0, [sp, #40]
   84c78:	52800101 	mov	w1, #0x8                   	// #8
   84c7c:	b90033e0 	str	w0, [sp, #48]
   84c80:	52800104 	mov	w4, #0x8                   	// #8
   84c84:	b90053e0 	str	w0, [sp, #80]
   84c88:	72a00081 	movk	w1, #0x4, lsl #16
   84c8c:	b9005be2 	str	w2, [sp, #88]
   84c90:	52800022 	mov	w2, #0x1                   	// #1
   84c94:	b90073e0 	str	w0, [sp, #112]
   84c98:	529000a0 	mov	w0, #0x8005                	// #32773
   84c9c:	72a00082 	movk	w2, #0x4, lsl #16
   84ca0:	72a00080 	movk	w0, #0x4, lsl #16
   84ca4:	b90003e4 	str	w4, [sp]
   84ca8:	52900087 	mov	w7, #0x8004                	// #32772
   84cac:	b9000be4 	str	w4, [sp, #8]
   84cb0:	72a00087 	movk	w7, #0x4, lsl #16
   84cb4:	b90013f3 	str	w19, [sp, #16]
   84cb8:	2a1403e6 	mov	w6, w20
   84cbc:	b9001bf4 	str	w20, [sp, #24]
   84cc0:	2a1303e5 	mov	w5, w19
   84cc4:	b90023e0 	str	w0, [sp, #32]
   84cc8:	2a0403e3 	mov	w3, w4
   84ccc:	b9003bf5 	str	w21, [sp, #56]
   84cd0:	910303e0 	add	x0, sp, #0xc0
   84cd4:	b90043e2 	str	w2, [sp, #64]
   84cd8:	52900062 	mov	w2, #0x8003                	// #32771
   84cdc:	b9004be4 	str	w4, [sp, #72]
   84ce0:	72a00082 	movk	w2, #0x4, lsl #16
   84ce4:	b90063ff 	str	wzr, [sp, #96]
   84ce8:	b9006be1 	str	w1, [sp, #104]
   84cec:	528002e1 	mov	w1, #0x17                  	// #23
   84cf0:	b9007bff 	str	wzr, [sp, #120]
   84cf4:	b90083ff 	str	wzr, [sp, #128]
   84cf8:	97fffa06 	bl	83510 <mailbox_tag_message.constprop.8>
   84cfc:	72001c16 	ands	w22, w0, #0xff
   84d00:	54000321 	b.ne	84d64 <PiConsole_Init+0x154>  // b.any
   84d04:	52800016 	mov	w22, #0x0                   	// #0
   84d08:	2a1603e0 	mov	w0, w22
   84d0c:	a94953f3 	ldp	x19, x20, [sp, #144]
   84d10:	a94a5bf5 	ldp	x21, x22, [sp, #160]
   84d14:	a94b7bf7 	ldp	x23, x30, [sp, #176]
   84d18:	910483ff 	add	sp, sp, #0x120
   84d1c:	d65f03c0 	ret
   84d20:	52800062 	mov	w2, #0x3                   	// #3
   84d24:	52800006 	mov	w6, #0x0                   	// #0
   84d28:	52800005 	mov	w5, #0x0                   	// #0
   84d2c:	52800004 	mov	w4, #0x0                   	// #0
   84d30:	52800103 	mov	w3, #0x8                   	// #8
   84d34:	72a00082 	movk	w2, #0x4, lsl #16
   84d38:	528000a1 	mov	w1, #0x5                   	// #5
   84d3c:	910303e0 	add	x0, sp, #0xc0
   84d40:	97fff922 	bl	831c8 <mailbox_tag_message.constprop.6>
   84d44:	72001c1f 	tst	w0, #0xff
   84d48:	54fffde0 	b.eq	84d04 <PiConsole_Init+0xf4>  // b.none
   84d4c:	35000073 	cbnz	w19, 84d58 <PiConsole_Init+0x148>
   84d50:	b940cff3 	ldr	w19, [sp, #204]
   84d54:	35fff754 	cbnz	w20, 84c3c <PiConsole_Init+0x2c>
   84d58:	b940d3f4 	ldr	w20, [sp, #208]
   84d5c:	35fff895 	cbnz	w21, 84c6c <PiConsole_Init+0x5c>
   84d60:	17ffffb8 	b	84c40 <PiConsole_Init+0x30>
   84d64:	b94107e0 	ldr	w0, [sp, #260]
   84d68:	97ffeeb1 	bl	8082c <GPUaddrToARMaddr>
   84d6c:	2a0003e0 	mov	w0, w0
   84d70:	b0000022 	adrp	x2, 89000 <__bss_start__>
   84d74:	91004042 	add	x2, x2, #0x10
   84d78:	91001041 	add	x1, x2, #0x4
   84d7c:	b9411be4 	ldr	w4, [sp, #280]
   84d80:	12800005 	mov	w5, #0xffffffff            	// #-1
   84d84:	32089fe3 	mov	w3, #0xff00ff00            	// #-16711936
   84d88:	b9000440 	str	w0, [x2, #4]
   84d8c:	710062bf 	cmp	w21, #0x18
   84d90:	2900cc3f 	stp	wzr, w19, [x1, #4]
   84d94:	2901d434 	stp	w20, w21, [x1, #12]
   84d98:	b9001424 	str	w4, [x1, #20]
   84d9c:	29057c25 	stp	w5, wzr, [x1, #40]
   84da0:	b9003023 	str	w3, [x1, #48]
   84da4:	54000240 	b.eq	84dec <PiConsole_Init+0x1dc>  // b.none
   84da8:	710082bf 	cmp	w21, #0x20
   84dac:	54000a00 	b.eq	84eec <PiConsole_Init+0x2dc>  // b.none
   84db0:	710042bf 	cmp	w21, #0x10
   84db4:	540006e0 	b.eq	84e90 <PiConsole_Init+0x280>  // b.none
   84db8:	b4fffa97 	cbz	x23, 84d08 <PiConsole_Init+0xf8>
   84dbc:	2a1503e3 	mov	w3, w21
   84dc0:	2a1403e2 	mov	w2, w20
   84dc4:	2a1303e1 	mov	w1, w19
   84dc8:	90000020 	adrp	x0, 88000 <BitFont+0x948>
   84dcc:	911ea000 	add	x0, x0, #0x7a8
   84dd0:	d63f02e0 	blr	x23
   84dd4:	2a1603e0 	mov	w0, w22
   84dd8:	a94953f3 	ldp	x19, x20, [sp, #144]
   84ddc:	a94a5bf5 	ldp	x21, x22, [sp, #160]
   84de0:	a94b7bf7 	ldp	x23, x30, [sp, #176]
   84de4:	910483ff 	add	sp, sp, #0x120
   84de8:	d65f03c0 	ret
   84dec:	52955560 	mov	w0, #0xaaab                	// #43691
   84df0:	d0ffffe9 	adrp	x9, 82000 <Core_SayHello+0x38>
   84df4:	72b55540 	movk	w0, #0xaaaa, lsl #16
   84df8:	d0ffffe8 	adrp	x8, 82000 <Core_SayHello+0x38>
   84dfc:	9124a129 	add	x9, x9, #0x928
   84e00:	9125c108 	add	x8, x8, #0x970
   84e04:	9ba07c84 	umull	x4, w4, w0
   84e08:	d0ffffe7 	adrp	x7, 82000 <Core_SayHello+0x38>
   84e0c:	d0ffffe6 	adrp	x6, 82000 <Core_SayHello+0x38>
   84e10:	912800e7 	add	x7, x7, #0xa00
   84e14:	912ae0c6 	add	x6, x6, #0xab8
   84e18:	d0ffffe5 	adrp	x5, 82000 <Core_SayHello+0x38>
   84e1c:	912ca0a5 	add	x5, x5, #0xb28
   84e20:	d0ffffe3 	adrp	x3, 82000 <Core_SayHello+0x38>
   84e24:	d0ffffe2 	adrp	x2, 82000 <Core_SayHello+0x38>
   84e28:	d0ffffe0 	adrp	x0, 82000 <Core_SayHello+0x38>
   84e2c:	912f2063 	add	x3, x3, #0xbc8
   84e30:	91320042 	add	x2, x2, #0xc80
   84e34:	9134a000 	add	x0, x0, #0xd28
   84e38:	d360fd2a 	lsr	x10, x9, #32
   84e3c:	d360fd0e 	lsr	x14, x8, #32
   84e40:	d360fced 	lsr	x13, x7, #32
   84e44:	d360fccc 	lsr	x12, x6, #32
   84e48:	d360fcab 	lsr	x11, x5, #32
   84e4c:	d361fc84 	lsr	x4, x4, #33
   84e50:	b9001424 	str	w4, [x1, #20]
   84e54:	2906a829 	stp	w9, w10, [x1, #52]
   84e58:	d360fc6a 	lsr	x10, x3, #32
   84e5c:	2907b828 	stp	w8, w14, [x1, #60]
   84e60:	d360fc49 	lsr	x9, x2, #32
   84e64:	d360fc08 	lsr	x8, x0, #32
   84e68:	2908b427 	stp	w7, w13, [x1, #68]
   84e6c:	2909b026 	stp	w6, w12, [x1, #76]
   84e70:	290aac25 	stp	w5, w11, [x1, #84]
   84e74:	b9005c23 	str	w3, [x1, #92]
   84e78:	b900602a 	str	w10, [x1, #96]
   84e7c:	b9006422 	str	w2, [x1, #100]
   84e80:	b9006829 	str	w9, [x1, #104]
   84e84:	b9006c20 	str	w0, [x1, #108]
   84e88:	b9007028 	str	w8, [x1, #112]
   84e8c:	17ffffcb 	b	84db8 <PiConsole_Init+0x1a8>
   84e90:	d0ffffe9 	adrp	x9, 82000 <Core_SayHello+0x38>
   84e94:	d0ffffe8 	adrp	x8, 82000 <Core_SayHello+0x38>
   84e98:	910f0129 	add	x9, x9, #0x3c0
   84e9c:	91108108 	add	x8, x8, #0x420
   84ea0:	d0ffffe7 	adrp	x7, 82000 <Core_SayHello+0x38>
   84ea4:	d0ffffe6 	adrp	x6, 82000 <Core_SayHello+0x38>
   84ea8:	911340e7 	add	x7, x7, #0x4d0
   84eac:	9116a0c6 	add	x6, x6, #0x5a8
   84eb0:	d0ffffe5 	adrp	x5, 82000 <Core_SayHello+0x38>
   84eb4:	9118c0a5 	add	x5, x5, #0x630
   84eb8:	d0ffffe3 	adrp	x3, 82000 <Core_SayHello+0x38>
   84ebc:	d0ffffe2 	adrp	x2, 82000 <Core_SayHello+0x38>
   84ec0:	d0ffffe0 	adrp	x0, 82000 <Core_SayHello+0x38>
   84ec4:	911ba063 	add	x3, x3, #0x6e8
   84ec8:	911f8042 	add	x2, x2, #0x7e0
   84ecc:	91228000 	add	x0, x0, #0x8a0
   84ed0:	d360fd2a 	lsr	x10, x9, #32
   84ed4:	d360fd0e 	lsr	x14, x8, #32
   84ed8:	d360fced 	lsr	x13, x7, #32
   84edc:	d360fccc 	lsr	x12, x6, #32
   84ee0:	d360fcab 	lsr	x11, x5, #32
   84ee4:	53017c84 	lsr	w4, w4, #1
   84ee8:	17ffffda 	b	84e50 <PiConsole_Init+0x240>
   84eec:	d0ffffe9 	adrp	x9, 82000 <Core_SayHello+0x38>
   84ef0:	d0ffffe8 	adrp	x8, 82000 <Core_SayHello+0x38>
   84ef4:	91374129 	add	x9, x9, #0xdd0
   84ef8:	91382108 	add	x8, x8, #0xe08
   84efc:	d0ffffe7 	adrp	x7, 82000 <Core_SayHello+0x38>
   84f00:	d0ffffe6 	adrp	x6, 82000 <Core_SayHello+0x38>
   84f04:	9139e0e7 	add	x7, x7, #0xe78
   84f08:	913c60c6 	add	x6, x6, #0xf18
   84f0c:	d0ffffe5 	adrp	x5, 82000 <Core_SayHello+0x38>
   84f10:	913de0a5 	add	x5, x5, #0xf78
   84f14:	f0ffffe3 	adrp	x3, 83000 <WriteChar32>
   84f18:	f0ffffe2 	adrp	x2, 83000 <WriteChar32>
   84f1c:	f0ffffe0 	adrp	x0, 83000 <WriteChar32>
   84f20:	91000063 	add	x3, x3, #0x0
   84f24:	9102c042 	add	x2, x2, #0xb0
   84f28:	91050000 	add	x0, x0, #0x140
   84f2c:	d360fd2a 	lsr	x10, x9, #32
   84f30:	d360fd0e 	lsr	x14, x8, #32
   84f34:	d360fced 	lsr	x13, x7, #32
   84f38:	d360fccc 	lsr	x12, x6, #32
   84f3c:	d360fcab 	lsr	x11, x5, #32
   84f40:	53027c84 	lsr	w4, w4, #2
   84f44:	17ffffc3 	b	84e50 <PiConsole_Init+0x240>

0000000000084f48 <GetConsoleDC>:
   84f48:	b0000020 	adrp	x0, 89000 <__bss_start__>
   84f4c:	91004000 	add	x0, x0, #0x10
   84f50:	91001000 	add	x0, x0, #0x4
   84f54:	d65f03c0 	ret

0000000000084f58 <GetConsole_FrameBuffer>:
   84f58:	b0000020 	adrp	x0, 89000 <__bss_start__>
   84f5c:	b9401400 	ldr	w0, [x0, #20]
   84f60:	d65f03c0 	ret
   84f64:	d503201f 	nop

0000000000084f68 <GetConsole_Width>:
   84f68:	b0000020 	adrp	x0, 89000 <__bss_start__>
   84f6c:	b9401c00 	ldr	w0, [x0, #28]
   84f70:	d65f03c0 	ret
   84f74:	d503201f 	nop

0000000000084f78 <GetConsole_Height>:
   84f78:	b0000020 	adrp	x0, 89000 <__bss_start__>
   84f7c:	b9402000 	ldr	w0, [x0, #32]
   84f80:	d65f03c0 	ret
   84f84:	d503201f 	nop

0000000000084f88 <WhereXY>:
   84f88:	b4000080 	cbz	x0, 84f98 <WhereXY+0x10>
   84f8c:	b0000022 	adrp	x2, 89000 <__bss_start__>
   84f90:	b9403442 	ldr	w2, [x2, #52]
   84f94:	b9000002 	str	w2, [x0]
   84f98:	b4000081 	cbz	x1, 84fa8 <WhereXY+0x20>
   84f9c:	b0000020 	adrp	x0, 89000 <__bss_start__>
   84fa0:	b9403800 	ldr	w0, [x0, #56]
   84fa4:	b9000020 	str	w0, [x1]
   84fa8:	d65f03c0 	ret
   84fac:	d503201f 	nop

0000000000084fb0 <GotoXY>:
   84fb0:	b0000022 	adrp	x2, 89000 <__bss_start__>
   84fb4:	91004042 	add	x2, x2, #0x10
   84fb8:	29048440 	stp	w0, w1, [x2, #36]
   84fbc:	d65f03c0 	ret

0000000000084fc0 <_sbrk>:
   84fc0:	b0000022 	adrp	x2, 89000 <__bss_start__>
   84fc4:	91004042 	add	x2, x2, #0x10
   84fc8:	b00000a3 	adrp	x3, 99000 <__EL1_stack_core3+0x200>
   84fcc:	91380063 	add	x3, x3, #0xe00
   84fd0:	f9403c41 	ldr	x1, [x2, #120]
   84fd4:	f100003f 	cmp	x1, #0x0
   84fd8:	9a810061 	csel	x1, x3, x1, eq  // eq = none
   84fdc:	8b20c023 	add	x3, x1, w0, sxtw
   84fe0:	aa0103e0 	mov	x0, x1
   84fe4:	f9003c43 	str	x3, [x2, #120]
   84fe8:	d65f03c0 	ret
   84fec:	00000000 	.inst	0x00000000 ; undefined

0000000000084ff0 <_doprnt>:
   84ff0:	a9ae53f3 	stp	x19, x20, [sp, #-288]!
   84ff4:	aa0203f4 	mov	x20, x2
   84ff8:	aa0303f3 	mov	x19, x3
   84ffc:	f90017f8 	str	x24, [sp, #40]
   85000:	910363f8 	add	x24, sp, #0xd8
   85004:	a903effa 	stp	x26, x27, [sp, #56]
   85008:	aa0003fa 	mov	x26, x0
   8500c:	f9002bfe 	str	x30, [sp, #80]
   85010:	5280001b 	mov	w27, #0x0                   	// #0
   85014:	f9400020 	ldr	x0, [x1]
   85018:	f9003be0 	str	x0, [sp, #112]
   8501c:	f9400420 	ldr	x0, [x1, #8]
   85020:	f9003fe0 	str	x0, [sp, #120]
   85024:	b9401820 	ldr	w0, [x1, #24]
   85028:	b9006fe0 	str	w0, [sp, #108]
   8502c:	14000007 	b	85048 <_doprnt+0x58>
   85030:	aa1303e1 	mov	x1, x19
   85034:	d63f0280 	blr	x20
   85038:	3100041f 	cmn	w0, #0x1
   8503c:	54001020 	b.eq	85240 <_doprnt+0x250>  // b.none
   85040:	1100077b 	add	w27, w27, #0x1
   85044:	9100075a 	add	x26, x26, #0x1
   85048:	39400340 	ldrb	w0, [x26]
   8504c:	34000fc0 	cbz	w0, 85244 <_doprnt+0x254>
   85050:	7100941f 	cmp	w0, #0x25
   85054:	54fffee1 	b.ne	85030 <_doprnt+0x40>  // b.any
   85058:	39400741 	ldrb	w1, [x26, #1]
   8505c:	91000743 	add	x3, x26, #0x1
   85060:	7100943f 	cmp	w1, #0x25
   85064:	54001100 	b.eq	85284 <_doprnt+0x294>  // b.none
   85068:	a9015bf5 	stp	x21, x22, [sp, #16]
   8506c:	52800007 	mov	w7, #0x0                   	// #0
   85070:	f90013f7 	str	x23, [sp, #32]
   85074:	7100b43f 	cmp	w1, #0x2d
   85078:	f9001bf9 	str	x25, [sp, #48]
   8507c:	52800417 	mov	w23, #0x20                  	// #32
   85080:	f90027fc 	str	x28, [sp, #72]
   85084:	52800019 	mov	w25, #0x0                   	// #0
   85088:	54000f20 	b.eq	8526c <_doprnt+0x27c>  // b.none
   8508c:	7100c03f 	cmp	w1, #0x30
   85090:	54000f40 	b.eq	85278 <_doprnt+0x288>  // b.none
   85094:	71008c3f 	cmp	w1, #0x23
   85098:	54000e20 	b.eq	8525c <_doprnt+0x26c>  // b.none
   8509c:	7100a83f 	cmp	w1, #0x2a
   850a0:	54000201 	b.ne	850e0 <_doprnt+0xf0>  // b.any
   850a4:	b9406fe1 	ldr	w1, [sp, #108]
   850a8:	37f83f21 	tbnz	w1, #31, 8588c <_doprnt+0x89c>
   850ac:	f9403be1 	ldr	x1, [sp, #112]
   850b0:	91002c25 	add	x5, x1, #0xb
   850b4:	927df0a2 	and	x2, x5, #0xfffffffffffffff8
   850b8:	f9003be2 	str	x2, [sp, #112]
   850bc:	b940003c 	ldr	w28, [x1]
   850c0:	91000463 	add	x3, x3, #0x1
   850c4:	39400061 	ldrb	w1, [x3]
   850c8:	36f8027c 	tbz	w28, #31, 85114 <_doprnt+0x124>
   850cc:	4b1c03fc 	neg	w28, w28
   850d0:	52800015 	mov	w21, #0x0                   	// #0
   850d4:	52800039 	mov	w25, #0x1                   	// #1
   850d8:	52800417 	mov	w23, #0x20                  	// #32
   850dc:	14000012 	b	85124 <_doprnt+0x134>
   850e0:	5100c025 	sub	w5, w1, #0x30
   850e4:	5280001c 	mov	w28, #0x0                   	// #0
   850e8:	12001ca6 	and	w6, w5, #0xff
   850ec:	710024df 	cmp	w6, #0x9
   850f0:	54000128 	b.hi	85114 <_doprnt+0x124>  // b.pmore
   850f4:	d503201f 	nop
   850f8:	38401c61 	ldrb	w1, [x3, #1]!
   850fc:	0b1c0b9c 	add	w28, w28, w28, lsl #2
   85100:	0b1c04bc 	add	w28, w5, w28, lsl #1
   85104:	5100c025 	sub	w5, w1, #0x30
   85108:	12001ca6 	and	w6, w5, #0xff
   8510c:	710024df 	cmp	w6, #0x9
   85110:	54ffff49 	b.ls	850f8 <_doprnt+0x108>  // b.plast
   85114:	7100033f 	cmp	w25, #0x0
   85118:	52800405 	mov	w5, #0x20                  	// #32
   8511c:	52000335 	eor	w21, w25, #0x1
   85120:	1a8502f7 	csel	w23, w23, w5, eq  // eq = none
   85124:	12800016 	mov	w22, #0xffffffff            	// #-1
   85128:	7100b83f 	cmp	w1, #0x2e
   8512c:	54001920 	b.eq	85450 <_doprnt+0x460>  // b.none
   85130:	7101b03f 	cmp	w1, #0x6c
   85134:	54000d40 	b.eq	852dc <_doprnt+0x2ec>  // b.none
   85138:	52800045 	mov	w5, #0x2                   	// #2
   8513c:	7101a03f 	cmp	w1, #0x68
   85140:	540019c0 	b.eq	85478 <_doprnt+0x488>  // b.none
   85144:	7101a43f 	cmp	w1, #0x69
   85148:	540029a0 	b.eq	8567c <_doprnt+0x68c>  // b.none
   8514c:	54000a08 	b.hi	8528c <_doprnt+0x29c>  // b.pmore
   85150:	7101883f 	cmp	w1, #0x62
   85154:	54003160 	b.eq	85780 <_doprnt+0x790>  // b.none
   85158:	54002b69 	b.ls	856c4 <_doprnt+0x6d4>  // b.plast
   8515c:	71018c3f 	cmp	w1, #0x63
   85160:	540028a1 	b.ne	85674 <_doprnt+0x684>  // b.any
   85164:	b9406fe0 	ldr	w0, [sp, #108]
   85168:	37f83d20 	tbnz	w0, #31, 8590c <_doprnt+0x91c>
   8516c:	f9403be0 	ldr	x0, [sp, #112]
   85170:	91002c01 	add	x1, x0, #0xb
   85174:	927df021 	and	x1, x1, #0xfffffffffffffff8
   85178:	f9003be1 	str	x1, [sp, #112]
   8517c:	b9400000 	ldr	w0, [x0]
   85180:	9100047a 	add	x26, x3, #0x1
   85184:	390243e0 	strb	w0, [sp, #144]
   85188:	910243e0 	add	x0, sp, #0x90
   8518c:	f90047e0 	str	x0, [sp, #136]
   85190:	390247ff 	strb	wzr, [sp, #145]
   85194:	9400085b 	bl	87300 <strlen>
   85198:	b90083ff 	str	wzr, [sp, #128]
   8519c:	7100c2ff 	cmp	w23, #0x30
   851a0:	52800007 	mov	w7, #0x0                   	// #0
   851a4:	1a9f02a1 	csel	w1, w21, wzr, eq  // eq = none
   851a8:	710002df 	cmp	w22, #0x0
   851ac:	7a40a2c0 	ccmp	w22, w0, #0x0, ge  // ge = tcont
   851b0:	1a80b2d6 	csel	w22, w22, w0, lt  // lt = tstop
   851b4:	0b0702c7 	add	w7, w22, w7
   851b8:	6b1c00ff 	cmp	w7, w28
   851bc:	5400292b 	b.lt	856e0 <_doprnt+0x6f0>  // b.tstop
   851c0:	b90087ff 	str	wzr, [sp, #132]
   851c4:	52800015 	mov	w21, #0x0                   	// #0
   851c8:	340013c1 	cbz	w1, 85440 <_doprnt+0x450>
   851cc:	b94083e0 	ldr	w0, [sp, #128]
   851d0:	34000100 	cbz	w0, 851f0 <_doprnt+0x200>
   851d4:	b94083e0 	ldr	w0, [sp, #128]
   851d8:	aa1303e1 	mov	x1, x19
   851dc:	d63f0280 	blr	x20
   851e0:	3100041f 	cmn	w0, #0x1
   851e4:	54000260 	b.eq	85230 <_doprnt+0x240>  // b.none
   851e8:	1100077b 	add	w27, w27, #0x1
   851ec:	35002275 	cbnz	w21, 85638 <_doprnt+0x648>
   851f0:	2a1b03f5 	mov	w21, w27
   851f4:	d503201f 	nop
   851f8:	710002df 	cmp	w22, #0x0
   851fc:	5400276d 	b.le	856e8 <_doprnt+0x6f8>
   85200:	0b1602bb 	add	w27, w21, w22
   85204:	f94047fc 	ldr	x28, [sp, #136]
   85208:	14000003 	b	85214 <_doprnt+0x224>
   8520c:	6b1b02bf 	cmp	w21, w27
   85210:	540026e0 	b.eq	856ec <_doprnt+0x6fc>  // b.none
   85214:	39400380 	ldrb	w0, [x28]
   85218:	aa1303e1 	mov	x1, x19
   8521c:	110006b5 	add	w21, w21, #0x1
   85220:	9100079c 	add	x28, x28, #0x1
   85224:	d63f0280 	blr	x20
   85228:	3100041f 	cmn	w0, #0x1
   8522c:	54ffff01 	b.ne	8520c <_doprnt+0x21c>  // b.any
   85230:	a9415bf5 	ldp	x21, x22, [sp, #16]
   85234:	f94013f7 	ldr	x23, [sp, #32]
   85238:	f9401bf9 	ldr	x25, [sp, #48]
   8523c:	f94027fc 	ldr	x28, [sp, #72]
   85240:	1280001b 	mov	w27, #0xffffffff            	// #-1
   85244:	2a1b03e0 	mov	w0, w27
   85248:	f94017f8 	ldr	x24, [sp, #40]
   8524c:	a943effa 	ldp	x26, x27, [sp, #56]
   85250:	f9402bfe 	ldr	x30, [sp, #80]
   85254:	a8d253f3 	ldp	x19, x20, [sp], #288
   85258:	d65f03c0 	ret
   8525c:	38401c61 	ldrb	w1, [x3, #1]!
   85260:	52800027 	mov	w7, #0x1                   	// #1
   85264:	7100b43f 	cmp	w1, #0x2d
   85268:	54fff121 	b.ne	8508c <_doprnt+0x9c>  // b.any
   8526c:	52800039 	mov	w25, #0x1                   	// #1
   85270:	38401c61 	ldrb	w1, [x3, #1]!
   85274:	17fffffc 	b	85264 <_doprnt+0x274>
   85278:	2a0103f7 	mov	w23, w1
   8527c:	38401c61 	ldrb	w1, [x3, #1]!
   85280:	17fffff9 	b	85264 <_doprnt+0x274>
   85284:	aa0303fa 	mov	x26, x3
   85288:	17ffff6a 	b	85030 <_doprnt+0x40>
   8528c:	7101cc3f 	cmp	w1, #0x73
   85290:	54002900 	b.eq	857b0 <_doprnt+0x7c0>  // b.none
   85294:	540011a8 	b.hi	854c8 <_doprnt+0x4d8>  // b.pmore
   85298:	7101bc3f 	cmp	w1, #0x6f
   8529c:	54000140 	b.eq	852c4 <_doprnt+0x2d4>  // b.none
   852a0:	d2800208 	mov	x8, #0x10                  	// #16
   852a4:	52800067 	mov	w7, #0x3                   	// #3
   852a8:	7101c03f 	cmp	w1, #0x70
   852ac:	54002101 	b.ne	856cc <_doprnt+0x6dc>  // b.any
   852b0:	52800001 	mov	w1, #0x0                   	// #0
   852b4:	52800006 	mov	w6, #0x0                   	// #0
   852b8:	14000090 	b	854f8 <_doprnt+0x508>
   852bc:	aa0603e3 	mov	x3, x6
   852c0:	52800065 	mov	w5, #0x3                   	// #3
   852c4:	710004ff 	cmp	w7, #0x1
   852c8:	54001f40 	b.eq	856b0 <_doprnt+0x6c0>  // b.none
   852cc:	52800001 	mov	w1, #0x0                   	// #0
   852d0:	d2800108 	mov	x8, #0x8                   	// #8
   852d4:	52800006 	mov	w6, #0x0                   	// #0
   852d8:	14000086 	b	854f0 <_doprnt+0x500>
   852dc:	39400461 	ldrb	w1, [x3, #1]
   852e0:	91000466 	add	x6, x3, #0x1
   852e4:	7101a43f 	cmp	w1, #0x69
   852e8:	540013a0 	b.eq	8555c <_doprnt+0x56c>  // b.none
   852ec:	54001289 	b.ls	8553c <_doprnt+0x54c>  // b.plast
   852f0:	7101cc3f 	cmp	w1, #0x73
   852f4:	540025c0 	b.eq	857ac <_doprnt+0x7bc>  // b.none
   852f8:	54001868 	b.hi	85604 <_doprnt+0x614>  // b.pmore
   852fc:	7101bc3f 	cmp	w1, #0x6f
   85300:	54fffde0 	b.eq	852bc <_doprnt+0x2cc>  // b.none
   85304:	7101c03f 	cmp	w1, #0x70
   85308:	54001e21 	b.ne	856cc <_doprnt+0x6dc>  // b.any
   8530c:	aa0603e3 	mov	x3, x6
   85310:	52800001 	mov	w1, #0x0                   	// #0
   85314:	d2800208 	mov	x8, #0x10                  	// #16
   85318:	52800006 	mov	w6, #0x0                   	// #0
   8531c:	52800067 	mov	w7, #0x3                   	// #3
   85320:	b9406fe0 	ldr	w0, [sp, #108]
   85324:	37f82c80 	tbnz	w0, #31, 858b4 <_doprnt+0x8c4>
   85328:	f9403be0 	ldr	x0, [sp, #112]
   8532c:	91003c04 	add	x4, x0, #0xf
   85330:	927df082 	and	x2, x4, #0xfffffffffffffff8
   85334:	f9003be2 	str	x2, [sp, #112]
   85338:	f9400000 	ldr	x0, [x0]
   8533c:	f100001f 	cmp	x0, #0x0
   85340:	9100047a 	add	x26, x3, #0x1
   85344:	1a9f1021 	csel	w1, w1, wzr, ne  // ne = any
   85348:	35000ee1 	cbnz	w1, 85524 <_doprnt+0x534>
   8534c:	71000cff 	cmp	w7, #0x3
   85350:	540031a1 	b.ne	85984 <_doprnt+0x994>  // b.any
   85354:	91024be3 	add	x3, sp, #0x92
   85358:	528f0601 	mov	w1, #0x7830                	// #30768
   8535c:	52800007 	mov	w7, #0x0                   	// #0
   85360:	b90083ff 	str	wzr, [sp, #128]
   85364:	790123e1 	strh	w1, [sp, #144]
   85368:	340011e6 	cbz	w6, 855a4 <_doprnt+0x5b4>
   8536c:	f0000001 	adrp	x1, 88000 <BitFont+0x948>
   85370:	911fa029 	add	x9, x1, #0x7e8
   85374:	911fa021 	add	x1, x1, #0x7e8
   85378:	390363ff 	strb	wzr, [sp, #216]
   8537c:	91008021 	add	x1, x1, #0x20
   85380:	3868482a 	ldrb	w10, [x1, w8, uxtw]
   85384:	3400120a 	cbz	w10, 855c4 <_doprnt+0x5d4>
   85388:	92800008 	mov	x8, #0xffffffffffffffff    	// #-1
   8538c:	9aca2405 	lsr	x5, x0, x10
   85390:	9aca2108 	lsl	x8, x8, x10
   85394:	aa2803e8 	mvn	x8, x8
   85398:	8a000101 	and	x1, x8, x0
   8539c:	38616921 	ldrb	w1, [x9, x1]
   853a0:	390367e1 	strb	w1, [sp, #217]
   853a4:	b4001ea5 	cbz	x5, 85778 <_doprnt+0x788>
   853a8:	d2800046 	mov	x6, #0x2                   	// #2
   853ac:	d503201f 	nop
   853b0:	8a050100 	and	x0, x8, x5
   853b4:	9aca24a5 	lsr	x5, x5, x10
   853b8:	38606921 	ldrb	w1, [x9, x0]
   853bc:	2a0603e0 	mov	w0, w6
   853c0:	38266b01 	strb	w1, [x24, x6]
   853c4:	910004c6 	add	x6, x6, #0x1
   853c8:	b5ffff45 	cbnz	x5, 853b0 <_doprnt+0x3c0>
   853cc:	51000400 	sub	w0, w0, #0x1
   853d0:	93407c00 	sxtw	x0, w0
   853d4:	14000003 	b	853e0 <_doprnt+0x3f0>
   853d8:	38606b01 	ldrb	w1, [x24, x0]
   853dc:	d1000400 	sub	x0, x0, #0x1
   853e0:	38001461 	strb	w1, [x3], #1
   853e4:	3100041f 	cmn	w0, #0x1
   853e8:	54ffff81 	b.ne	853d8 <_doprnt+0x3e8>  // b.any
   853ec:	b90087e7 	str	w7, [sp, #132]
   853f0:	910243e0 	add	x0, sp, #0x90
   853f4:	940007c3 	bl	87300 <strlen>
   853f8:	b94087e7 	ldr	w7, [sp, #132]
   853fc:	37f81856 	tbnz	w22, #31, 85704 <_doprnt+0x714>
   85400:	6b0002df 	cmp	w22, w0
   85404:	4b0002d5 	sub	w21, w22, w0
   85408:	1a9fc2b5 	csel	w21, w21, wzr, gt
   8540c:	0b0002a1 	add	w1, w21, w0
   85410:	0b070027 	add	w7, w1, w7
   85414:	6b07039f 	cmp	w28, w7
   85418:	5400182d 	b.le	8571c <_doprnt+0x72c>
   8541c:	2a0003f6 	mov	w22, w0
   85420:	52800001 	mov	w1, #0x0                   	// #0
   85424:	910243e0 	add	x0, sp, #0x90
   85428:	52800417 	mov	w23, #0x20                  	// #32
   8542c:	f90047e0 	str	x0, [sp, #136]
   85430:	4b070380 	sub	w0, w28, w7
   85434:	b90087e0 	str	w0, [sp, #132]
   85438:	35000fa1 	cbnz	w1, 8562c <_doprnt+0x63c>
   8543c:	34001eb9 	cbz	w25, 85810 <_doprnt+0x820>
   85440:	b94083e0 	ldr	w0, [sp, #128]
   85444:	35ffec80 	cbnz	w0, 851d4 <_doprnt+0x1e4>
   85448:	35000f95 	cbnz	w21, 85638 <_doprnt+0x648>
   8544c:	17ffff69 	b	851f0 <_doprnt+0x200>
   85450:	39400461 	ldrb	w1, [x3, #1]
   85454:	7100a83f 	cmp	w1, #0x2a
   85458:	540001c1 	b.ne	85490 <_doprnt+0x4a0>  // b.any
   8545c:	b9406fe1 	ldr	w1, [sp, #108]
   85460:	37f82b01 	tbnz	w1, #31, 859c0 <_doprnt+0x9d0>
   85464:	f9403be5 	ldr	x5, [sp, #112]
   85468:	91002ca1 	add	x1, x5, #0xb
   8546c:	927df021 	and	x1, x1, #0xfffffffffffffff8
   85470:	f9003be1 	str	x1, [sp, #112]
   85474:	1400015c 	b	859e4 <_doprnt+0x9f4>
   85478:	39400461 	ldrb	w1, [x3, #1]
   8547c:	7101a03f 	cmp	w1, #0x68
   85480:	540015a0 	b.eq	85734 <_doprnt+0x744>  // b.none
   85484:	91000463 	add	x3, x3, #0x1
   85488:	52800025 	mov	w5, #0x1                   	// #1
   8548c:	17ffff2e 	b	85144 <_doprnt+0x154>
   85490:	5100c025 	sub	w5, w1, #0x30
   85494:	91000463 	add	x3, x3, #0x1
   85498:	12001ca6 	and	w6, w5, #0xff
   8549c:	52800016 	mov	w22, #0x0                   	// #0
   854a0:	710024df 	cmp	w6, #0x9
   854a4:	54ffe468 	b.hi	85130 <_doprnt+0x140>  // b.pmore
   854a8:	38401c61 	ldrb	w1, [x3, #1]!
   854ac:	0b160ad6 	add	w22, w22, w22, lsl #2
   854b0:	0b1604b6 	add	w22, w5, w22, lsl #1
   854b4:	5100c025 	sub	w5, w1, #0x30
   854b8:	12001ca6 	and	w6, w5, #0xff
   854bc:	710024df 	cmp	w6, #0x9
   854c0:	54ffff49 	b.ls	854a8 <_doprnt+0x4b8>  // b.plast
   854c4:	17ffff1b 	b	85130 <_doprnt+0x140>
   854c8:	7101d43f 	cmp	w1, #0x75
   854cc:	54000ac0 	b.eq	85624 <_doprnt+0x634>  // b.none
   854d0:	52800006 	mov	w6, #0x0                   	// #0
   854d4:	7101e03f 	cmp	w1, #0x78
   854d8:	54000fa1 	b.ne	856cc <_doprnt+0x6dc>  // b.any
   854dc:	52800001 	mov	w1, #0x0                   	// #0
   854e0:	d2800208 	mov	x8, #0x10                  	// #16
   854e4:	710004ff 	cmp	w7, #0x1
   854e8:	54000041 	b.ne	854f0 <_doprnt+0x500>  // b.any
   854ec:	52800067 	mov	w7, #0x3                   	// #3
   854f0:	71000cbf 	cmp	w5, #0x3
   854f4:	54fff160 	b.eq	85320 <_doprnt+0x330>  // b.none
   854f8:	b9406fe0 	ldr	w0, [sp, #108]
   854fc:	37f81760 	tbnz	w0, #31, 857e8 <_doprnt+0x7f8>
   85500:	f9403be0 	ldr	x0, [sp, #112]
   85504:	91002c04 	add	x4, x0, #0xb
   85508:	927df082 	and	x2, x4, #0xfffffffffffffff8
   8550c:	f9003be2 	str	x2, [sp, #112]
   85510:	b9400000 	ldr	w0, [x0]
   85514:	9100047a 	add	x26, x3, #0x1
   85518:	f100001f 	cmp	x0, #0x0
   8551c:	1a9f1021 	csel	w1, w1, wzr, ne  // ne = any
   85520:	34fff161 	cbz	w1, 8534c <_doprnt+0x35c>
   85524:	52800601 	mov	w1, #0x30                  	// #48
   85528:	52800007 	mov	w7, #0x0                   	// #0
   8552c:	390243e1 	strb	w1, [sp, #144]
   85530:	910247e3 	add	x3, sp, #0x91
   85534:	b90083ff 	str	wzr, [sp, #128]
   85538:	17ffff8c 	b	85368 <_doprnt+0x378>
   8553c:	aa0603e3 	mov	x3, x6
   85540:	7101883f 	cmp	w1, #0x62
   85544:	54001220 	b.eq	85788 <_doprnt+0x798>  // b.none
   85548:	54000aa9 	b.ls	8569c <_doprnt+0x6ac>  // b.plast
   8554c:	71018c3f 	cmp	w1, #0x63
   85550:	54ffe0a0 	b.eq	85164 <_doprnt+0x174>  // b.none
   85554:	7101903f 	cmp	w1, #0x64
   85558:	54000ba1 	b.ne	856cc <_doprnt+0x6dc>  // b.any
   8555c:	b9406fe0 	ldr	w0, [sp, #108]
   85560:	37f81ea0 	tbnz	w0, #31, 85934 <_doprnt+0x944>
   85564:	f9403be0 	ldr	x0, [sp, #112]
   85568:	91003c01 	add	x1, x0, #0xf
   8556c:	927df021 	and	x1, x1, #0xfffffffffffffff8
   85570:	f9003be1 	str	x1, [sp, #112]
   85574:	f9400000 	ldr	x0, [x0]
   85578:	aa0603e3 	mov	x3, x6
   8557c:	b90083ff 	str	wzr, [sp, #128]
   85580:	9100047a 	add	x26, x3, #0x1
   85584:	52800007 	mov	w7, #0x0                   	// #0
   85588:	b6f800a0 	tbz	x0, #63, 8559c <_doprnt+0x5ac>
   8558c:	cb0003e0 	neg	x0, x0
   85590:	528005a1 	mov	w1, #0x2d                  	// #45
   85594:	52800027 	mov	w7, #0x1                   	// #1
   85598:	b90083e1 	str	w1, [sp, #128]
   8559c:	910243e3 	add	x3, sp, #0x90
   855a0:	d2800148 	mov	x8, #0xa                   	// #10
   855a4:	f0000001 	adrp	x1, 88000 <BitFont+0x948>
   855a8:	911fa029 	add	x9, x1, #0x7e8
   855ac:	911fa021 	add	x1, x1, #0x7e8
   855b0:	390363ff 	strb	wzr, [sp, #216]
   855b4:	91008021 	add	x1, x1, #0x20
   855b8:	91004129 	add	x9, x9, #0x10
   855bc:	3868482a 	ldrb	w10, [x1, w8, uxtw]
   855c0:	35ffee4a 	cbnz	w10, 85388 <_doprnt+0x398>
   855c4:	9ac80805 	udiv	x5, x0, x8
   855c8:	9b0880a0 	msub	x0, x5, x8, x0
   855cc:	38606921 	ldrb	w1, [x9, x0]
   855d0:	390367e1 	strb	w1, [sp, #217]
   855d4:	b4000d25 	cbz	x5, 85778 <_doprnt+0x788>
   855d8:	d2800046 	mov	x6, #0x2                   	// #2
   855dc:	d503201f 	nop
   855e0:	9ac808a0 	udiv	x0, x5, x8
   855e4:	9b089401 	msub	x1, x0, x8, x5
   855e8:	aa0003e5 	mov	x5, x0
   855ec:	2a0603e0 	mov	w0, w6
   855f0:	38616921 	ldrb	w1, [x9, x1]
   855f4:	38266b01 	strb	w1, [x24, x6]
   855f8:	910004c6 	add	x6, x6, #0x1
   855fc:	b5ffff25 	cbnz	x5, 855e0 <_doprnt+0x5f0>
   85600:	17ffff73 	b	853cc <_doprnt+0x3dc>
   85604:	7101d43f 	cmp	w1, #0x75
   85608:	54000c80 	b.eq	85798 <_doprnt+0x7a8>  // b.none
   8560c:	7101e03f 	cmp	w1, #0x78
   85610:	540005e1 	b.ne	856cc <_doprnt+0x6dc>  // b.any
   85614:	aa0603e3 	mov	x3, x6
   85618:	52800065 	mov	w5, #0x3                   	// #3
   8561c:	52800006 	mov	w6, #0x0                   	// #0
   85620:	17ffffaf 	b	854dc <_doprnt+0x4ec>
   85624:	d2800148 	mov	x8, #0xa                   	// #10
   85628:	17ffff22 	b	852b0 <_doprnt+0x2c0>
   8562c:	295057e0 	ldp	w0, w21, [sp, #128]
   85630:	b90087ff 	str	wzr, [sp, #132]
   85634:	35ffdd00 	cbnz	w0, 851d4 <_doprnt+0x1e4>
   85638:	0b1b02b5 	add	w21, w21, w27
   8563c:	14000003 	b	85648 <_doprnt+0x658>
   85640:	6b15037f 	cmp	w27, w21
   85644:	54ffdda0 	b.eq	851f8 <_doprnt+0x208>  // b.none
   85648:	aa1303e1 	mov	x1, x19
   8564c:	52800600 	mov	w0, #0x30                  	// #48
   85650:	1100077b 	add	w27, w27, #0x1
   85654:	d63f0280 	blr	x20
   85658:	3100041f 	cmn	w0, #0x1
   8565c:	54ffff21 	b.ne	85640 <_doprnt+0x650>  // b.any
   85660:	a9415bf5 	ldp	x21, x22, [sp, #16]
   85664:	f94013f7 	ldr	x23, [sp, #32]
   85668:	f9401bf9 	ldr	x25, [sp, #48]
   8566c:	f94027fc 	ldr	x28, [sp, #72]
   85670:	17fffef4 	b	85240 <_doprnt+0x250>
   85674:	7101903f 	cmp	w1, #0x64
   85678:	540002a1 	b.ne	856cc <_doprnt+0x6dc>  // b.any
   8567c:	b9406fe0 	ldr	w0, [sp, #108]
   85680:	37f818a0 	tbnz	w0, #31, 85994 <_doprnt+0x9a4>
   85684:	f9403be0 	ldr	x0, [sp, #112]
   85688:	91002c01 	add	x1, x0, #0xb
   8568c:	927df021 	and	x1, x1, #0xfffffffffffffff8
   85690:	f9003be1 	str	x1, [sp, #112]
   85694:	b9800000 	ldrsw	x0, [x0]
   85698:	17ffffb9 	b	8557c <_doprnt+0x58c>
   8569c:	52800065 	mov	w5, #0x3                   	// #3
   856a0:	7101603f 	cmp	w1, #0x58
   856a4:	54000141 	b.ne	856cc <_doprnt+0x6dc>  // b.any
   856a8:	52800026 	mov	w6, #0x1                   	// #1
   856ac:	17ffff8c 	b	854dc <_doprnt+0x4ec>
   856b0:	2a0703e1 	mov	w1, w7
   856b4:	d2800108 	mov	x8, #0x8                   	// #8
   856b8:	52800006 	mov	w6, #0x0                   	// #0
   856bc:	52800047 	mov	w7, #0x2                   	// #2
   856c0:	17ffff8c 	b	854f0 <_doprnt+0x500>
   856c4:	7101603f 	cmp	w1, #0x58
   856c8:	54ffff00 	b.eq	856a8 <_doprnt+0x6b8>  // b.none
   856cc:	a9415bf5 	ldp	x21, x22, [sp, #16]
   856d0:	f94013f7 	ldr	x23, [sp, #32]
   856d4:	f9401bf9 	ldr	x25, [sp, #48]
   856d8:	f94027fc 	ldr	x28, [sp, #72]
   856dc:	17fffe55 	b	85030 <_doprnt+0x40>
   856e0:	52800015 	mov	w21, #0x0                   	// #0
   856e4:	17ffff53 	b	85430 <_doprnt+0x440>
   856e8:	2a1503fb 	mov	w27, w21
   856ec:	350002d9 	cbnz	w25, 85744 <_doprnt+0x754>
   856f0:	a9415bf5 	ldp	x21, x22, [sp, #16]
   856f4:	f94013f7 	ldr	x23, [sp, #32]
   856f8:	f9401bf9 	ldr	x25, [sp, #48]
   856fc:	f94027fc 	ldr	x28, [sp, #72]
   85700:	17fffe52 	b	85048 <_doprnt+0x58>
   85704:	7100c2ff 	cmp	w23, #0x30
   85708:	2a0003f6 	mov	w22, w0
   8570c:	1a9f02a1 	csel	w1, w21, wzr, eq  // eq = none
   85710:	910243e0 	add	x0, sp, #0x90
   85714:	f90047e0 	str	x0, [sp, #136]
   85718:	17fffea7 	b	851b4 <_doprnt+0x1c4>
   8571c:	2a0003f6 	mov	w22, w0
   85720:	52800417 	mov	w23, #0x20                  	// #32
   85724:	910243e0 	add	x0, sp, #0x90
   85728:	b90087ff 	str	wzr, [sp, #132]
   8572c:	f90047e0 	str	x0, [sp, #136]
   85730:	17ffff44 	b	85440 <_doprnt+0x450>
   85734:	39400861 	ldrb	w1, [x3, #2]
   85738:	52800005 	mov	w5, #0x0                   	// #0
   8573c:	91000863 	add	x3, x3, #0x2
   85740:	17fffe81 	b	85144 <_doprnt+0x154>
   85744:	b94087e0 	ldr	w0, [sp, #132]
   85748:	34fffd40 	cbz	w0, 856f0 <_doprnt+0x700>
   8574c:	0b1b0015 	add	w21, w0, w27
   85750:	14000003 	b	8575c <_doprnt+0x76c>
   85754:	6b15037f 	cmp	w27, w21
   85758:	54fffcc0 	b.eq	856f0 <_doprnt+0x700>  // b.none
   8575c:	aa1303e1 	mov	x1, x19
   85760:	2a1703e0 	mov	w0, w23
   85764:	1100077b 	add	w27, w27, #0x1
   85768:	d63f0280 	blr	x20
   8576c:	3100041f 	cmn	w0, #0x1
   85770:	54ffff21 	b.ne	85754 <_doprnt+0x764>  // b.any
   85774:	17fffeaf 	b	85230 <_doprnt+0x240>
   85778:	52800020 	mov	w0, #0x1                   	// #1
   8577c:	17ffff14 	b	853cc <_doprnt+0x3dc>
   85780:	d2800048 	mov	x8, #0x2                   	// #2
   85784:	17fffecb 	b	852b0 <_doprnt+0x2c0>
   85788:	52800001 	mov	w1, #0x0                   	// #0
   8578c:	d2800048 	mov	x8, #0x2                   	// #2
   85790:	52800006 	mov	w6, #0x0                   	// #0
   85794:	17fffee3 	b	85320 <_doprnt+0x330>
   85798:	aa0603e3 	mov	x3, x6
   8579c:	52800001 	mov	w1, #0x0                   	// #0
   857a0:	d2800148 	mov	x8, #0xa                   	// #10
   857a4:	52800006 	mov	w6, #0x0                   	// #0
   857a8:	17fffede 	b	85320 <_doprnt+0x330>
   857ac:	aa0603e3 	mov	x3, x6
   857b0:	b9406fe0 	ldr	w0, [sp, #108]
   857b4:	37f80440 	tbnz	w0, #31, 8583c <_doprnt+0x84c>
   857b8:	f9403be0 	ldr	x0, [sp, #112]
   857bc:	91003c01 	add	x1, x0, #0xf
   857c0:	927df021 	and	x1, x1, #0xfffffffffffffff8
   857c4:	f9003be1 	str	x1, [sp, #112]
   857c8:	f9400001 	ldr	x1, [x0]
   857cc:	f0000000 	adrp	x0, 88000 <BitFont+0x948>
   857d0:	91208000 	add	x0, x0, #0x820
   857d4:	9100047a 	add	x26, x3, #0x1
   857d8:	f100003f 	cmp	x1, #0x0
   857dc:	9a810000 	csel	x0, x0, x1, eq  // eq = none
   857e0:	f90047e0 	str	x0, [sp, #136]
   857e4:	17fffe6c 	b	85194 <_doprnt+0x1a4>
   857e8:	b9406fe0 	ldr	w0, [sp, #108]
   857ec:	11002004 	add	w4, w0, #0x8
   857f0:	7100009f 	cmp	w4, #0x0
   857f4:	5400038d 	b.le	85864 <_doprnt+0x874>
   857f8:	f9403be0 	ldr	x0, [sp, #112]
   857fc:	b9006fe4 	str	w4, [sp, #108]
   85800:	91002c05 	add	x5, x0, #0xb
   85804:	927df0a2 	and	x2, x5, #0xfffffffffffffff8
   85808:	f9003be2 	str	x2, [sp, #112]
   8580c:	17ffff41 	b	85510 <_doprnt+0x520>
   85810:	0b1b001c 	add	w28, w0, w27
   85814:	14000003 	b	85820 <_doprnt+0x830>
   85818:	6b1c037f 	cmp	w27, w28
   8581c:	54ffe120 	b.eq	85440 <_doprnt+0x450>  // b.none
   85820:	aa1303e1 	mov	x1, x19
   85824:	2a1703e0 	mov	w0, w23
   85828:	1100077b 	add	w27, w27, #0x1
   8582c:	d63f0280 	blr	x20
   85830:	3100041f 	cmn	w0, #0x1
   85834:	54ffff21 	b.ne	85818 <_doprnt+0x828>  // b.any
   85838:	17fffe7e 	b	85230 <_doprnt+0x240>
   8583c:	b9406fe0 	ldr	w0, [sp, #108]
   85840:	11002001 	add	w1, w0, #0x8
   85844:	7100003f 	cmp	w1, #0x0
   85848:	5400018d 	b.le	85878 <_doprnt+0x888>
   8584c:	f9403be0 	ldr	x0, [sp, #112]
   85850:	b9006fe1 	str	w1, [sp, #108]
   85854:	91003c04 	add	x4, x0, #0xf
   85858:	927df081 	and	x1, x4, #0xfffffffffffffff8
   8585c:	f9003be1 	str	x1, [sp, #112]
   85860:	17ffffda 	b	857c8 <_doprnt+0x7d8>
   85864:	b9406fe0 	ldr	w0, [sp, #108]
   85868:	f9403fe2 	ldr	x2, [sp, #120]
   8586c:	b9006fe4 	str	w4, [sp, #108]
   85870:	8b20c040 	add	x0, x2, w0, sxtw
   85874:	17ffff27 	b	85510 <_doprnt+0x520>
   85878:	b9406fe0 	ldr	w0, [sp, #108]
   8587c:	f9403fe2 	ldr	x2, [sp, #120]
   85880:	b9006fe1 	str	w1, [sp, #108]
   85884:	8b20c040 	add	x0, x2, w0, sxtw
   85888:	17ffffd0 	b	857c8 <_doprnt+0x7d8>
   8588c:	b9406fe1 	ldr	w1, [sp, #108]
   85890:	11002025 	add	w5, w1, #0x8
   85894:	710000bf 	cmp	w5, #0x0
   85898:	5400024d 	b.le	858e0 <_doprnt+0x8f0>
   8589c:	f9403be1 	ldr	x1, [sp, #112]
   858a0:	b9006fe5 	str	w5, [sp, #108]
   858a4:	91002c26 	add	x6, x1, #0xb
   858a8:	927df0c2 	and	x2, x6, #0xfffffffffffffff8
   858ac:	f9003be2 	str	x2, [sp, #112]
   858b0:	17fffe03 	b	850bc <_doprnt+0xcc>
   858b4:	b9406fe0 	ldr	w0, [sp, #108]
   858b8:	11002004 	add	w4, w0, #0x8
   858bc:	7100009f 	cmp	w4, #0x0
   858c0:	540001ad 	b.le	858f4 <_doprnt+0x904>
   858c4:	f9403be0 	ldr	x0, [sp, #112]
   858c8:	b9006fe4 	str	w4, [sp, #108]
   858cc:	91003c05 	add	x5, x0, #0xf
   858d0:	927df0a2 	and	x2, x5, #0xfffffffffffffff8
   858d4:	f9003be2 	str	x2, [sp, #112]
   858d8:	f9400000 	ldr	x0, [x0]
   858dc:	17fffe98 	b	8533c <_doprnt+0x34c>
   858e0:	b9406fe1 	ldr	w1, [sp, #108]
   858e4:	f9403fe2 	ldr	x2, [sp, #120]
   858e8:	b9006fe5 	str	w5, [sp, #108]
   858ec:	8b21c041 	add	x1, x2, w1, sxtw
   858f0:	17fffdf3 	b	850bc <_doprnt+0xcc>
   858f4:	b9406fe0 	ldr	w0, [sp, #108]
   858f8:	f9403fe2 	ldr	x2, [sp, #120]
   858fc:	b9006fe4 	str	w4, [sp, #108]
   85900:	8b20c040 	add	x0, x2, w0, sxtw
   85904:	f9400000 	ldr	x0, [x0]
   85908:	17fffe8d 	b	8533c <_doprnt+0x34c>
   8590c:	b9406fe0 	ldr	w0, [sp, #108]
   85910:	11002001 	add	w1, w0, #0x8
   85914:	7100003f 	cmp	w1, #0x0
   85918:	5400022d 	b.le	8595c <_doprnt+0x96c>
   8591c:	f9403be0 	ldr	x0, [sp, #112]
   85920:	b9006fe1 	str	w1, [sp, #108]
   85924:	91002c04 	add	x4, x0, #0xb
   85928:	927df081 	and	x1, x4, #0xfffffffffffffff8
   8592c:	f9003be1 	str	x1, [sp, #112]
   85930:	17fffe13 	b	8517c <_doprnt+0x18c>
   85934:	b9406fe0 	ldr	w0, [sp, #108]
   85938:	11002001 	add	w1, w0, #0x8
   8593c:	7100003f 	cmp	w1, #0x0
   85940:	5400018d 	b.le	85970 <_doprnt+0x980>
   85944:	f9403be0 	ldr	x0, [sp, #112]
   85948:	b9006fe1 	str	w1, [sp, #108]
   8594c:	91003c03 	add	x3, x0, #0xf
   85950:	927df061 	and	x1, x3, #0xfffffffffffffff8
   85954:	f9003be1 	str	x1, [sp, #112]
   85958:	17ffff07 	b	85574 <_doprnt+0x584>
   8595c:	b9406fe0 	ldr	w0, [sp, #108]
   85960:	f9403fe2 	ldr	x2, [sp, #120]
   85964:	b9006fe1 	str	w1, [sp, #108]
   85968:	8b20c040 	add	x0, x2, w0, sxtw
   8596c:	17fffe04 	b	8517c <_doprnt+0x18c>
   85970:	b9406fe0 	ldr	w0, [sp, #108]
   85974:	f9403fe2 	ldr	x2, [sp, #120]
   85978:	b9006fe1 	str	w1, [sp, #108]
   8597c:	8b20c040 	add	x0, x2, w0, sxtw
   85980:	17fffefd 	b	85574 <_doprnt+0x584>
   85984:	910243e3 	add	x3, sp, #0x90
   85988:	52800007 	mov	w7, #0x0                   	// #0
   8598c:	b90083ff 	str	wzr, [sp, #128]
   85990:	17fffe76 	b	85368 <_doprnt+0x378>
   85994:	b9406fe0 	ldr	w0, [sp, #108]
   85998:	11002001 	add	w1, w0, #0x8
   8599c:	7100003f 	cmp	w1, #0x0
   859a0:	540002ad 	b.le	859f4 <_doprnt+0xa04>
   859a4:	f9403be0 	ldr	x0, [sp, #112]
   859a8:	b9006fe1 	str	w1, [sp, #108]
   859ac:	91002c04 	add	x4, x0, #0xb
   859b0:	927df081 	and	x1, x4, #0xfffffffffffffff8
   859b4:	f9003be1 	str	x1, [sp, #112]
   859b8:	b9800000 	ldrsw	x0, [x0]
   859bc:	17fffef0 	b	8557c <_doprnt+0x58c>
   859c0:	b9406fe1 	ldr	w1, [sp, #108]
   859c4:	11002021 	add	w1, w1, #0x8
   859c8:	7100003f 	cmp	w1, #0x0
   859cc:	5400020d 	b.le	85a0c <_doprnt+0xa1c>
   859d0:	f9403be5 	ldr	x5, [sp, #112]
   859d4:	b9006fe1 	str	w1, [sp, #108]
   859d8:	91002ca6 	add	x6, x5, #0xb
   859dc:	927df0c1 	and	x1, x6, #0xfffffffffffffff8
   859e0:	f9003be1 	str	x1, [sp, #112]
   859e4:	39400861 	ldrb	w1, [x3, #2]
   859e8:	91000863 	add	x3, x3, #0x2
   859ec:	b94000b6 	ldr	w22, [x5]
   859f0:	17fffdd0 	b	85130 <_doprnt+0x140>
   859f4:	b9406fe0 	ldr	w0, [sp, #108]
   859f8:	f9403fe2 	ldr	x2, [sp, #120]
   859fc:	b9006fe1 	str	w1, [sp, #108]
   85a00:	8b20c040 	add	x0, x2, w0, sxtw
   85a04:	b9800000 	ldrsw	x0, [x0]
   85a08:	17fffedd 	b	8557c <_doprnt+0x58c>
   85a0c:	b9406fe2 	ldr	w2, [sp, #108]
   85a10:	f9403fe4 	ldr	x4, [sp, #120]
   85a14:	b9006fe1 	str	w1, [sp, #108]
   85a18:	8b22c085 	add	x5, x4, w2, sxtw
   85a1c:	17fffff2 	b	859e4 <_doprnt+0x9f4>

0000000000085a20 <Init_EmbStdio>:
   85a20:	90000021 	adrp	x1, 89000 <__bss_start__>
   85a24:	f9404822 	ldr	x2, [x1, #144]
   85a28:	f9004820 	str	x0, [x1, #144]
   85a2c:	aa0203e0 	mov	x0, x2
   85a30:	d65f03c0 	ret
   85a34:	d503201f 	nop

0000000000085a38 <printf>:
   85a38:	a9a153f3 	stp	x19, x20, [sp, #-496]!
   85a3c:	90000029 	adrp	x9, 89000 <__bss_start__>
   85a40:	12800fea 	mov	w10, #0xffffff80            	// #-128
   85a44:	52800013 	mov	w19, #0x0                   	// #0
   85a48:	f90013f7 	str	x23, [sp, #32]
   85a4c:	9106c3eb 	add	x11, sp, #0x1b0
   85a50:	128006f7 	mov	w23, #0xffffffc8            	// #-56
   85a54:	f9001bf9 	str	x25, [sp, #48]
   85a58:	a904fbfc 	stp	x28, x30, [sp, #72]
   85a5c:	9103a3f9 	add	x25, sp, #0xe8
   85a60:	aa0003fc 	mov	x28, x0
   85a64:	3d804fe0 	str	q0, [sp, #304]
   85a68:	9107c3e0 	add	x0, sp, #0x1f0
   85a6c:	f90037e0 	str	x0, [sp, #104]
   85a70:	b90073f7 	str	w23, [sp, #112]
   85a74:	a90803e0 	stp	x0, x0, [sp, #128]
   85a78:	f9004beb 	str	x11, [sp, #144]
   85a7c:	b9009bf7 	str	w23, [sp, #152]
   85a80:	b9009fea 	str	w10, [sp, #156]
   85a84:	3d8053e1 	str	q1, [sp, #320]
   85a88:	3d8057e2 	str	q2, [sp, #336]
   85a8c:	3d805be3 	str	q3, [sp, #352]
   85a90:	3d805fe4 	str	q4, [sp, #368]
   85a94:	3d8063e5 	str	q5, [sp, #384]
   85a98:	3d8067e6 	str	q6, [sp, #400]
   85a9c:	3d806be7 	str	q7, [sp, #416]
   85aa0:	f9404934 	ldr	x20, [x9, #144]
   85aa4:	a91b8be1 	stp	x1, x2, [sp, #440]
   85aa8:	a91c93e3 	stp	x3, x4, [sp, #456]
   85aac:	a91d9be5 	stp	x5, x6, [sp, #472]
   85ab0:	f900f7e7 	str	x7, [sp, #488]
   85ab4:	14000004 	b	85ac4 <printf+0x8c>
   85ab8:	11000673 	add	w19, w19, #0x1
   85abc:	aa0103fc 	mov	x28, x1
   85ac0:	d63f0280 	blr	x20
   85ac4:	39400380 	ldrb	w0, [x28]
   85ac8:	34000120 	cbz	w0, 85aec <printf+0xb4>
   85acc:	91000781 	add	x1, x28, #0x1
   85ad0:	7100941f 	cmp	w0, #0x25
   85ad4:	54ffff21 	b.ne	85ab8 <printf+0x80>  // b.any
   85ad8:	39400782 	ldrb	w2, [x28, #1]
   85adc:	7100945f 	cmp	w2, #0x25
   85ae0:	54000121 	b.ne	85b04 <printf+0xcc>  // b.any
   85ae4:	91000b81 	add	x1, x28, #0x2
   85ae8:	17fffff4 	b	85ab8 <printf+0x80>
   85aec:	2a1303e0 	mov	w0, w19
   85af0:	f94013f7 	ldr	x23, [sp, #32]
   85af4:	f9401bf9 	ldr	x25, [sp, #48]
   85af8:	a944fbfc 	ldp	x28, x30, [sp, #72]
   85afc:	a8df53f3 	ldp	x19, x20, [sp], #496
   85b00:	d65f03c0 	ret
   85b04:	aa0103e8 	mov	x8, x1
   85b08:	a9015bf5 	stp	x21, x22, [sp, #16]
   85b0c:	f90017f8 	str	x24, [sp, #40]
   85b10:	52800005 	mov	w5, #0x0                   	// #0
   85b14:	a903effa 	stp	x26, x27, [sp, #56]
   85b18:	52800418 	mov	w24, #0x20                  	// #32
   85b1c:	5280001b 	mov	w27, #0x0                   	// #0
   85b20:	7100b45f 	cmp	w2, #0x2d
   85b24:	540002c0 	b.eq	85b7c <printf+0x144>  // b.none
   85b28:	7100c05f 	cmp	w2, #0x30
   85b2c:	54000340 	b.eq	85b94 <printf+0x15c>  // b.none
   85b30:	71008c5f 	cmp	w2, #0x23
   85b34:	540002a0 	b.eq	85b88 <printf+0x150>  // b.none
   85b38:	7100a85f 	cmp	w2, #0x2a
   85b3c:	54000321 	b.ne	85ba0 <printf+0x168>  // b.any
   85b40:	b94073e2 	ldr	w2, [sp, #112]
   85b44:	37f83aa2 	tbnz	w2, #31, 86298 <printf+0x860>
   85b48:	f94037e3 	ldr	x3, [sp, #104]
   85b4c:	aa0303e2 	mov	x2, x3
   85b50:	91002063 	add	x3, x3, #0x8
   85b54:	f90037e3 	str	x3, [sp, #104]
   85b58:	b9400055 	ldr	w21, [x2]
   85b5c:	91000508 	add	x8, x8, #0x1
   85b60:	39400102 	ldrb	w2, [x8]
   85b64:	36f80395 	tbz	w21, #31, 85bd4 <printf+0x19c>
   85b68:	4b1503f5 	neg	w21, w21
   85b6c:	5280001a 	mov	w26, #0x0                   	// #0
   85b70:	5280003b 	mov	w27, #0x1                   	// #1
   85b74:	52800418 	mov	w24, #0x20                  	// #32
   85b78:	1400001b 	b	85be4 <printf+0x1ac>
   85b7c:	5280003b 	mov	w27, #0x1                   	// #1
   85b80:	38401d02 	ldrb	w2, [x8, #1]!
   85b84:	17ffffe7 	b	85b20 <printf+0xe8>
   85b88:	52800025 	mov	w5, #0x1                   	// #1
   85b8c:	38401d02 	ldrb	w2, [x8, #1]!
   85b90:	17ffffe4 	b	85b20 <printf+0xe8>
   85b94:	2a0203f8 	mov	w24, w2
   85b98:	38401d02 	ldrb	w2, [x8, #1]!
   85b9c:	17ffffe1 	b	85b20 <printf+0xe8>
   85ba0:	5100c043 	sub	w3, w2, #0x30
   85ba4:	52800015 	mov	w21, #0x0                   	// #0
   85ba8:	12001c64 	and	w4, w3, #0xff
   85bac:	7100249f 	cmp	w4, #0x9
   85bb0:	54000128 	b.hi	85bd4 <printf+0x19c>  // b.pmore
   85bb4:	d503201f 	nop
   85bb8:	38401d02 	ldrb	w2, [x8, #1]!
   85bbc:	0b150ab5 	add	w21, w21, w21, lsl #2
   85bc0:	0b150475 	add	w21, w3, w21, lsl #1
   85bc4:	5100c043 	sub	w3, w2, #0x30
   85bc8:	12001c64 	and	w4, w3, #0xff
   85bcc:	7100249f 	cmp	w4, #0x9
   85bd0:	54ffff49 	b.ls	85bb8 <printf+0x180>  // b.plast
   85bd4:	7100037f 	cmp	w27, #0x0
   85bd8:	52800403 	mov	w3, #0x20                  	// #32
   85bdc:	5200037a 	eor	w26, w27, #0x1
   85be0:	1a830318 	csel	w24, w24, w3, eq  // eq = none
   85be4:	12800016 	mov	w22, #0xffffffff            	// #-1
   85be8:	7100b85f 	cmp	w2, #0x2e
   85bec:	540016a0 	b.eq	85ec0 <printf+0x488>  // b.none
   85bf0:	7101b05f 	cmp	w2, #0x6c
   85bf4:	54000b20 	b.eq	85d58 <printf+0x320>  // b.none
   85bf8:	52800043 	mov	w3, #0x2                   	// #2
   85bfc:	7101a05f 	cmp	w2, #0x68
   85c00:	54001740 	b.eq	85ee8 <printf+0x4b0>  // b.none
   85c04:	7101a45f 	cmp	w2, #0x69
   85c08:	540024e0 	b.eq	860a4 <printf+0x66c>  // b.none
   85c0c:	540001a9 	b.ls	85c40 <printf+0x208>  // b.plast
   85c10:	7101cc5f 	cmp	w2, #0x73
   85c14:	54002cc0 	b.eq	861ac <printf+0x774>  // b.none
   85c18:	54001908 	b.hi	85f38 <printf+0x500>  // b.pmore
   85c1c:	7101bc5f 	cmp	w2, #0x6f
   85c20:	54000900 	b.eq	85d40 <printf+0x308>  // b.none
   85c24:	d2800206 	mov	x6, #0x10                  	// #16
   85c28:	52800065 	mov	w5, #0x3                   	// #3
   85c2c:	7101c05f 	cmp	w2, #0x70
   85c30:	54002621 	b.ne	860f4 <printf+0x6bc>  // b.any
   85c34:	52800001 	mov	w1, #0x0                   	// #0
   85c38:	52800004 	mov	w4, #0x0                   	// #0
   85c3c:	140000cb 	b	85f68 <printf+0x530>
   85c40:	7101885f 	cmp	w2, #0x62
   85c44:	54002a60 	b.eq	86190 <printf+0x758>  // b.none
   85c48:	54002529 	b.ls	860ec <printf+0x6b4>  // b.plast
   85c4c:	71018c5f 	cmp	w2, #0x63
   85c50:	54002261 	b.ne	8609c <printf+0x664>  // b.any
   85c54:	b94073e0 	ldr	w0, [sp, #112]
   85c58:	37f834a0 	tbnz	w0, #31, 862ec <printf+0x8b4>
   85c5c:	f94037e1 	ldr	x1, [sp, #104]
   85c60:	aa0103e0 	mov	x0, x1
   85c64:	91002021 	add	x1, x1, #0x8
   85c68:	f90037e1 	str	x1, [sp, #104]
   85c6c:	b9400000 	ldr	w0, [x0]
   85c70:	9100051c 	add	x28, x8, #0x1
   85c74:	390283e0 	strb	w0, [sp, #160]
   85c78:	910283e0 	add	x0, sp, #0xa0
   85c7c:	f9003fe0 	str	x0, [sp, #120]
   85c80:	390287ff 	strb	wzr, [sp, #161]
   85c84:	9400059f 	bl	87300 <strlen>
   85c88:	b90077ff 	str	wzr, [sp, #116]
   85c8c:	7100c31f 	cmp	w24, #0x30
   85c90:	52800005 	mov	w5, #0x0                   	// #0
   85c94:	1a9f0341 	csel	w1, w26, wzr, eq  // eq = none
   85c98:	710002df 	cmp	w22, #0x0
   85c9c:	7a40a2c0 	ccmp	w22, w0, #0x0, ge  // ge = tcont
   85ca0:	1a80b2d6 	csel	w22, w22, w0, lt  // lt = tstop
   85ca4:	0b0502c5 	add	w5, w22, w5
   85ca8:	5280001a 	mov	w26, #0x0                   	// #0
   85cac:	6b1500bf 	cmp	w5, w21
   85cb0:	54000fcb 	b.lt	85ea8 <printf+0x470>  // b.tstop
   85cb4:	52800015 	mov	w21, #0x0                   	// #0
   85cb8:	34000fe1 	cbz	w1, 85eb4 <printf+0x47c>
   85cbc:	b94077e0 	ldr	w0, [sp, #116]
   85cc0:	340001c0 	cbz	w0, 85cf8 <printf+0x2c0>
   85cc4:	3941d3e0 	ldrb	w0, [sp, #116]
   85cc8:	11000673 	add	w19, w19, #0x1
   85ccc:	d63f0280 	blr	x20
   85cd0:	7100035f 	cmp	w26, #0x0
   85cd4:	5400012d 	b.le	85cf8 <printf+0x2c0>
   85cd8:	52800017 	mov	w23, #0x0                   	// #0
   85cdc:	d503201f 	nop
   85ce0:	52800600 	mov	w0, #0x30                  	// #48
   85ce4:	110006f7 	add	w23, w23, #0x1
   85ce8:	d63f0280 	blr	x20
   85cec:	6b1a02ff 	cmp	w23, w26
   85cf0:	54ffff81 	b.ne	85ce0 <printf+0x2a8>  // b.any
   85cf4:	0b1302f3 	add	w19, w23, w19
   85cf8:	710002df 	cmp	w22, #0x0
   85cfc:	5400014d 	b.le	85d24 <printf+0x2ec>
   85d00:	f9403ff7 	ldr	x23, [sp, #120]
   85d04:	510006da 	sub	w26, w22, #0x1
   85d08:	910006e2 	add	x2, x23, #0x1
   85d0c:	8b1a005a 	add	x26, x2, x26
   85d10:	384016e0 	ldrb	w0, [x23], #1
   85d14:	d63f0280 	blr	x20
   85d18:	eb1a02ff 	cmp	x23, x26
   85d1c:	54ffffa1 	b.ne	85d10 <printf+0x2d8>  // b.any
   85d20:	0b160273 	add	w19, w19, w22
   85d24:	350021bb 	cbnz	w27, 86158 <printf+0x720>
   85d28:	a9415bf5 	ldp	x21, x22, [sp, #16]
   85d2c:	f94017f8 	ldr	x24, [sp, #40]
   85d30:	a943effa 	ldp	x26, x27, [sp, #56]
   85d34:	17ffff64 	b	85ac4 <printf+0x8c>
   85d38:	aa0403e8 	mov	x8, x4
   85d3c:	52800063 	mov	w3, #0x3                   	// #3
   85d40:	710004bf 	cmp	w5, #0x1
   85d44:	54001ca0 	b.eq	860d8 <printf+0x6a0>  // b.none
   85d48:	52800001 	mov	w1, #0x0                   	// #0
   85d4c:	d2800106 	mov	x6, #0x8                   	// #8
   85d50:	52800004 	mov	w4, #0x0                   	// #0
   85d54:	14000083 	b	85f60 <printf+0x528>
   85d58:	39400502 	ldrb	w2, [x8, #1]
   85d5c:	91000504 	add	x4, x8, #0x1
   85d60:	7101a45f 	cmp	w2, #0x69
   85d64:	54001340 	b.eq	85fcc <printf+0x594>  // b.none
   85d68:	54001229 	b.ls	85fac <printf+0x574>  // b.plast
   85d6c:	7101cc5f 	cmp	w2, #0x73
   85d70:	540021c0 	b.eq	861a8 <printf+0x770>  // b.none
   85d74:	54001808 	b.hi	86074 <printf+0x63c>  // b.pmore
   85d78:	7101bc5f 	cmp	w2, #0x6f
   85d7c:	54fffde0 	b.eq	85d38 <printf+0x300>  // b.none
   85d80:	7101c05f 	cmp	w2, #0x70
   85d84:	54001b81 	b.ne	860f4 <printf+0x6bc>  // b.any
   85d88:	aa0403e8 	mov	x8, x4
   85d8c:	52800001 	mov	w1, #0x0                   	// #0
   85d90:	d2800206 	mov	x6, #0x10                  	// #16
   85d94:	52800004 	mov	w4, #0x0                   	// #0
   85d98:	52800065 	mov	w5, #0x3                   	// #3
   85d9c:	b94073e0 	ldr	w0, [sp, #112]
   85da0:	37f82e20 	tbnz	w0, #31, 86364 <printf+0x92c>
   85da4:	f94037e2 	ldr	x2, [sp, #104]
   85da8:	aa0203e0 	mov	x0, x2
   85dac:	91002042 	add	x2, x2, #0x8
   85db0:	f90037e2 	str	x2, [sp, #104]
   85db4:	f9400000 	ldr	x0, [x0]
   85db8:	f100001f 	cmp	x0, #0x0
   85dbc:	9100051c 	add	x28, x8, #0x1
   85dc0:	1a9f1021 	csel	w1, w1, wzr, ne  // ne = any
   85dc4:	35000e81 	cbnz	w1, 85f94 <printf+0x55c>
   85dc8:	71000cbf 	cmp	w5, #0x3
   85dcc:	540030c1 	b.ne	863e4 <printf+0x9ac>  // b.any
   85dd0:	91028be2 	add	x2, sp, #0xa2
   85dd4:	528f0601 	mov	w1, #0x7830                	// #30768
   85dd8:	52800005 	mov	w5, #0x0                   	// #0
   85ddc:	b90077ff 	str	wzr, [sp, #116]
   85de0:	790143e1 	strh	w1, [sp, #160]
   85de4:	34001184 	cbz	w4, 86014 <printf+0x5dc>
   85de8:	f0000001 	adrp	x1, 88000 <BitFont+0x948>
   85dec:	911fa027 	add	x7, x1, #0x7e8
   85df0:	911fa021 	add	x1, x1, #0x7e8
   85df4:	3903a3ff 	strb	wzr, [sp, #232]
   85df8:	91008021 	add	x1, x1, #0x20
   85dfc:	38664829 	ldrb	w9, [x1, w6, uxtw]
   85e00:	340011a9 	cbz	w9, 86034 <printf+0x5fc>
   85e04:	92800006 	mov	x6, #0xffffffffffffffff    	// #-1
   85e08:	9ac92403 	lsr	x3, x0, x9
   85e0c:	9ac920c6 	lsl	x6, x6, x9
   85e10:	aa2603e6 	mvn	x6, x6
   85e14:	8a0000c1 	and	x1, x6, x0
   85e18:	386168e1 	ldrb	w1, [x7, x1]
   85e1c:	3903a7e1 	strb	w1, [sp, #233]
   85e20:	b4001983 	cbz	x3, 86150 <printf+0x718>
   85e24:	d2800044 	mov	x4, #0x2                   	// #2
   85e28:	8a0300c0 	and	x0, x6, x3
   85e2c:	9ac92463 	lsr	x3, x3, x9
   85e30:	386068e1 	ldrb	w1, [x7, x0]
   85e34:	2a0403e0 	mov	w0, w4
   85e38:	38246b21 	strb	w1, [x25, x4]
   85e3c:	91000484 	add	x4, x4, #0x1
   85e40:	b5ffff43 	cbnz	x3, 85e28 <printf+0x3f0>
   85e44:	51000400 	sub	w0, w0, #0x1
   85e48:	93407c00 	sxtw	x0, w0
   85e4c:	14000003 	b	85e58 <printf+0x420>
   85e50:	38606b21 	ldrb	w1, [x25, x0]
   85e54:	d1000400 	sub	x0, x0, #0x1
   85e58:	38001441 	strb	w1, [x2], #1
   85e5c:	3100041f 	cmn	w0, #0x1
   85e60:	54ffff81 	b.ne	85e50 <printf+0x418>  // b.any
   85e64:	b9007be5 	str	w5, [sp, #120]
   85e68:	910283e0 	add	x0, sp, #0xa0
   85e6c:	94000525 	bl	87300 <strlen>
   85e70:	b9407be5 	ldr	w5, [sp, #120]
   85e74:	37f814f6 	tbnz	w22, #31, 86110 <printf+0x6d8>
   85e78:	6b0002df 	cmp	w22, w0
   85e7c:	4b0002d6 	sub	w22, w22, w0
   85e80:	1a9fc2da 	csel	w26, w22, wzr, gt
   85e84:	0b000341 	add	w1, w26, w0
   85e88:	0b050025 	add	w5, w1, w5
   85e8c:	6b0502bf 	cmp	w21, w5
   85e90:	540014cd 	b.le	86128 <printf+0x6f0>
   85e94:	2a0003f6 	mov	w22, w0
   85e98:	52800001 	mov	w1, #0x0                   	// #0
   85e9c:	910283e0 	add	x0, sp, #0xa0
   85ea0:	52800418 	mov	w24, #0x20                  	// #32
   85ea4:	f9003fe0 	str	x0, [sp, #120]
   85ea8:	4b0502b5 	sub	w21, w21, w5
   85eac:	350012c1 	cbnz	w1, 86104 <printf+0x6cc>
   85eb0:	34001a5b 	cbz	w27, 861f8 <printf+0x7c0>
   85eb4:	b94077e0 	ldr	w0, [sp, #116]
   85eb8:	35fff060 	cbnz	w0, 85cc4 <printf+0x28c>
   85ebc:	17ffff85 	b	85cd0 <printf+0x298>
   85ec0:	39400502 	ldrb	w2, [x8, #1]
   85ec4:	7100a85f 	cmp	w2, #0x2a
   85ec8:	540001c1 	b.ne	85f00 <printf+0x4c8>  // b.any
   85ecc:	b94073e2 	ldr	w2, [sp, #112]
   85ed0:	37f81aa2 	tbnz	w2, #31, 86224 <printf+0x7ec>
   85ed4:	f94037e2 	ldr	x2, [sp, #104]
   85ed8:	aa0203e3 	mov	x3, x2
   85edc:	91002042 	add	x2, x2, #0x8
   85ee0:	f90037e2 	str	x2, [sp, #104]
   85ee4:	140000d9 	b	86248 <printf+0x810>
   85ee8:	39400502 	ldrb	w2, [x8, #1]
   85eec:	7101a05f 	cmp	w2, #0x68
   85ef0:	54001280 	b.eq	86140 <printf+0x708>  // b.none
   85ef4:	91000508 	add	x8, x8, #0x1
   85ef8:	52800023 	mov	w3, #0x1                   	// #1
   85efc:	17ffff42 	b	85c04 <printf+0x1cc>
   85f00:	5100c043 	sub	w3, w2, #0x30
   85f04:	91000508 	add	x8, x8, #0x1
   85f08:	12001c64 	and	w4, w3, #0xff
   85f0c:	52800016 	mov	w22, #0x0                   	// #0
   85f10:	7100249f 	cmp	w4, #0x9
   85f14:	54ffe6e8 	b.hi	85bf0 <printf+0x1b8>  // b.pmore
   85f18:	38401d02 	ldrb	w2, [x8, #1]!
   85f1c:	0b160ad6 	add	w22, w22, w22, lsl #2
   85f20:	0b160476 	add	w22, w3, w22, lsl #1
   85f24:	5100c043 	sub	w3, w2, #0x30
   85f28:	12001c64 	and	w4, w3, #0xff
   85f2c:	7100249f 	cmp	w4, #0x9
   85f30:	54ffff49 	b.ls	85f18 <printf+0x4e0>  // b.plast
   85f34:	17ffff2f 	b	85bf0 <printf+0x1b8>
   85f38:	7101d45f 	cmp	w2, #0x75
   85f3c:	54000ac0 	b.eq	86094 <printf+0x65c>  // b.none
   85f40:	52800004 	mov	w4, #0x0                   	// #0
   85f44:	7101e05f 	cmp	w2, #0x78
   85f48:	54000d61 	b.ne	860f4 <printf+0x6bc>  // b.any
   85f4c:	52800001 	mov	w1, #0x0                   	// #0
   85f50:	d2800206 	mov	x6, #0x10                  	// #16
   85f54:	710004bf 	cmp	w5, #0x1
   85f58:	54000041 	b.ne	85f60 <printf+0x528>  // b.any
   85f5c:	52800065 	mov	w5, #0x3                   	// #3
   85f60:	71000c7f 	cmp	w3, #0x3
   85f64:	54fff1c0 	b.eq	85d9c <printf+0x364>  // b.none
   85f68:	b94073e0 	ldr	w0, [sp, #112]
   85f6c:	37f82120 	tbnz	w0, #31, 86390 <printf+0x958>
   85f70:	f94037e2 	ldr	x2, [sp, #104]
   85f74:	aa0203e0 	mov	x0, x2
   85f78:	91002042 	add	x2, x2, #0x8
   85f7c:	f90037e2 	str	x2, [sp, #104]
   85f80:	b9400000 	ldr	w0, [x0]
   85f84:	9100051c 	add	x28, x8, #0x1
   85f88:	f100001f 	cmp	x0, #0x0
   85f8c:	1a9f1021 	csel	w1, w1, wzr, ne  // ne = any
   85f90:	34fff1c1 	cbz	w1, 85dc8 <printf+0x390>
   85f94:	52800601 	mov	w1, #0x30                  	// #48
   85f98:	52800005 	mov	w5, #0x0                   	// #0
   85f9c:	390283e1 	strb	w1, [sp, #160]
   85fa0:	910287e2 	add	x2, sp, #0xa1
   85fa4:	b90077ff 	str	wzr, [sp, #116]
   85fa8:	17ffff8f 	b	85de4 <printf+0x3ac>
   85fac:	aa0403e8 	mov	x8, x4
   85fb0:	7101885f 	cmp	w2, #0x62
   85fb4:	54000f20 	b.eq	86198 <printf+0x760>  // b.none
   85fb8:	54000869 	b.ls	860c4 <printf+0x68c>  // b.plast
   85fbc:	71018c5f 	cmp	w2, #0x63
   85fc0:	54ffe4a0 	b.eq	85c54 <printf+0x21c>  // b.none
   85fc4:	7101905f 	cmp	w2, #0x64
   85fc8:	54000961 	b.ne	860f4 <printf+0x6bc>  // b.any
   85fcc:	b94073e0 	ldr	w0, [sp, #112]
   85fd0:	37f81a20 	tbnz	w0, #31, 86314 <printf+0x8dc>
   85fd4:	f94037e1 	ldr	x1, [sp, #104]
   85fd8:	aa0103e0 	mov	x0, x1
   85fdc:	91002021 	add	x1, x1, #0x8
   85fe0:	f90037e1 	str	x1, [sp, #104]
   85fe4:	f9400000 	ldr	x0, [x0]
   85fe8:	aa0403e8 	mov	x8, x4
   85fec:	b90077ff 	str	wzr, [sp, #116]
   85ff0:	9100051c 	add	x28, x8, #0x1
   85ff4:	52800005 	mov	w5, #0x0                   	// #0
   85ff8:	b6f800a0 	tbz	x0, #63, 8600c <printf+0x5d4>
   85ffc:	cb0003e0 	neg	x0, x0
   86000:	528005a1 	mov	w1, #0x2d                  	// #45
   86004:	52800025 	mov	w5, #0x1                   	// #1
   86008:	b90077e1 	str	w1, [sp, #116]
   8600c:	910283e2 	add	x2, sp, #0xa0
   86010:	d2800146 	mov	x6, #0xa                   	// #10
   86014:	d0000001 	adrp	x1, 88000 <BitFont+0x948>
   86018:	911fa027 	add	x7, x1, #0x7e8
   8601c:	911fa021 	add	x1, x1, #0x7e8
   86020:	3903a3ff 	strb	wzr, [sp, #232]
   86024:	91008021 	add	x1, x1, #0x20
   86028:	910040e7 	add	x7, x7, #0x10
   8602c:	38664829 	ldrb	w9, [x1, w6, uxtw]
   86030:	35ffeea9 	cbnz	w9, 85e04 <printf+0x3cc>
   86034:	9ac60803 	udiv	x3, x0, x6
   86038:	9b068060 	msub	x0, x3, x6, x0
   8603c:	386068e1 	ldrb	w1, [x7, x0]
   86040:	3903a7e1 	strb	w1, [sp, #233]
   86044:	b4000863 	cbz	x3, 86150 <printf+0x718>
   86048:	d2800044 	mov	x4, #0x2                   	// #2
   8604c:	d503201f 	nop
   86050:	9ac60860 	udiv	x0, x3, x6
   86054:	9b068c01 	msub	x1, x0, x6, x3
   86058:	aa0003e3 	mov	x3, x0
   8605c:	2a0403e0 	mov	w0, w4
   86060:	386168e1 	ldrb	w1, [x7, x1]
   86064:	38246b21 	strb	w1, [x25, x4]
   86068:	91000484 	add	x4, x4, #0x1
   8606c:	b5ffff23 	cbnz	x3, 86050 <printf+0x618>
   86070:	17ffff75 	b	85e44 <printf+0x40c>
   86074:	7101d45f 	cmp	w2, #0x75
   86078:	54000b60 	b.eq	861e4 <printf+0x7ac>  // b.none
   8607c:	7101e05f 	cmp	w2, #0x78
   86080:	540003a1 	b.ne	860f4 <printf+0x6bc>  // b.any
   86084:	aa0403e8 	mov	x8, x4
   86088:	52800063 	mov	w3, #0x3                   	// #3
   8608c:	52800004 	mov	w4, #0x0                   	// #0
   86090:	17ffffaf 	b	85f4c <printf+0x514>
   86094:	d2800146 	mov	x6, #0xa                   	// #10
   86098:	17fffee7 	b	85c34 <printf+0x1fc>
   8609c:	7101905f 	cmp	w2, #0x64
   860a0:	540002a1 	b.ne	860f4 <printf+0x6bc>  // b.any
   860a4:	b94073e0 	ldr	w0, [sp, #112]
   860a8:	37f80e20 	tbnz	w0, #31, 8626c <printf+0x834>
   860ac:	f94037e1 	ldr	x1, [sp, #104]
   860b0:	aa0103e0 	mov	x0, x1
   860b4:	91002021 	add	x1, x1, #0x8
   860b8:	f90037e1 	str	x1, [sp, #104]
   860bc:	b9800000 	ldrsw	x0, [x0]
   860c0:	17ffffcb 	b	85fec <printf+0x5b4>
   860c4:	52800063 	mov	w3, #0x3                   	// #3
   860c8:	7101605f 	cmp	w2, #0x58
   860cc:	54000141 	b.ne	860f4 <printf+0x6bc>  // b.any
   860d0:	52800024 	mov	w4, #0x1                   	// #1
   860d4:	17ffff9e 	b	85f4c <printf+0x514>
   860d8:	2a0503e1 	mov	w1, w5
   860dc:	d2800106 	mov	x6, #0x8                   	// #8
   860e0:	52800004 	mov	w4, #0x0                   	// #0
   860e4:	52800045 	mov	w5, #0x2                   	// #2
   860e8:	17ffff9e 	b	85f60 <printf+0x528>
   860ec:	7101605f 	cmp	w2, #0x58
   860f0:	54ffff00 	b.eq	860d0 <printf+0x698>  // b.none
   860f4:	a9415bf5 	ldp	x21, x22, [sp, #16]
   860f8:	f94017f8 	ldr	x24, [sp, #40]
   860fc:	a943effa 	ldp	x26, x27, [sp, #56]
   86100:	17fffe6e 	b	85ab8 <printf+0x80>
   86104:	2a1503fa 	mov	w26, w21
   86108:	52800015 	mov	w21, #0x0                   	// #0
   8610c:	17ffff6a 	b	85eb4 <printf+0x47c>
   86110:	7100c31f 	cmp	w24, #0x30
   86114:	2a0003f6 	mov	w22, w0
   86118:	1a9f0341 	csel	w1, w26, wzr, eq  // eq = none
   8611c:	910283e0 	add	x0, sp, #0xa0
   86120:	f9003fe0 	str	x0, [sp, #120]
   86124:	17fffee0 	b	85ca4 <printf+0x26c>
   86128:	2a0003f6 	mov	w22, w0
   8612c:	52800418 	mov	w24, #0x20                  	// #32
   86130:	910283e0 	add	x0, sp, #0xa0
   86134:	52800015 	mov	w21, #0x0                   	// #0
   86138:	f9003fe0 	str	x0, [sp, #120]
   8613c:	17ffff5e 	b	85eb4 <printf+0x47c>
   86140:	39400902 	ldrb	w2, [x8, #2]
   86144:	52800003 	mov	w3, #0x0                   	// #0
   86148:	91000908 	add	x8, x8, #0x2
   8614c:	17fffeae 	b	85c04 <printf+0x1cc>
   86150:	52800020 	mov	w0, #0x1                   	// #1
   86154:	17ffff3c 	b	85e44 <printf+0x40c>
   86158:	710002bf 	cmp	w21, #0x0
   8615c:	54ffde6d 	b.le	85d28 <printf+0x2f0>
   86160:	52800016 	mov	w22, #0x0                   	// #0
   86164:	d503201f 	nop
   86168:	2a1803e0 	mov	w0, w24
   8616c:	110006d6 	add	w22, w22, #0x1
   86170:	d63f0280 	blr	x20
   86174:	6b1502df 	cmp	w22, w21
   86178:	54ffff81 	b.ne	86168 <printf+0x730>  // b.any
   8617c:	0b160273 	add	w19, w19, w22
   86180:	f94017f8 	ldr	x24, [sp, #40]
   86184:	a9415bf5 	ldp	x21, x22, [sp, #16]
   86188:	a943effa 	ldp	x26, x27, [sp, #56]
   8618c:	17fffe4e 	b	85ac4 <printf+0x8c>
   86190:	d2800046 	mov	x6, #0x2                   	// #2
   86194:	17fffea8 	b	85c34 <printf+0x1fc>
   86198:	52800001 	mov	w1, #0x0                   	// #0
   8619c:	d2800046 	mov	x6, #0x2                   	// #2
   861a0:	52800004 	mov	w4, #0x0                   	// #0
   861a4:	17fffefe 	b	85d9c <printf+0x364>
   861a8:	aa0403e8 	mov	x8, x4
   861ac:	b94073e0 	ldr	w0, [sp, #112]
   861b0:	37f81220 	tbnz	w0, #31, 863f4 <printf+0x9bc>
   861b4:	f94037e1 	ldr	x1, [sp, #104]
   861b8:	aa0103e0 	mov	x0, x1
   861bc:	91002021 	add	x1, x1, #0x8
   861c0:	f90037e1 	str	x1, [sp, #104]
   861c4:	f9400001 	ldr	x1, [x0]
   861c8:	d0000000 	adrp	x0, 88000 <BitFont+0x948>
   861cc:	91208000 	add	x0, x0, #0x820
   861d0:	9100051c 	add	x28, x8, #0x1
   861d4:	f100003f 	cmp	x1, #0x0
   861d8:	9a810000 	csel	x0, x0, x1, eq  // eq = none
   861dc:	f9003fe0 	str	x0, [sp, #120]
   861e0:	17fffea9 	b	85c84 <printf+0x24c>
   861e4:	aa0403e8 	mov	x8, x4
   861e8:	52800001 	mov	w1, #0x0                   	// #0
   861ec:	d2800146 	mov	x6, #0xa                   	// #10
   861f0:	52800004 	mov	w4, #0x0                   	// #0
   861f4:	17fffeea 	b	85d9c <printf+0x364>
   861f8:	52800017 	mov	w23, #0x0                   	// #0
   861fc:	710002bf 	cmp	w21, #0x0
   86200:	54ffe5ad 	b.le	85eb4 <printf+0x47c>
   86204:	d503201f 	nop
   86208:	2a1803e0 	mov	w0, w24
   8620c:	110006f7 	add	w23, w23, #0x1
   86210:	d63f0280 	blr	x20
   86214:	6b1702bf 	cmp	w21, w23
   86218:	54ffff81 	b.ne	86208 <printf+0x7d0>  // b.any
   8621c:	0b1302b3 	add	w19, w21, w19
   86220:	17ffff25 	b	85eb4 <printf+0x47c>
   86224:	b94073e2 	ldr	w2, [sp, #112]
   86228:	11002042 	add	w2, w2, #0x8
   8622c:	7100005f 	cmp	w2, #0x0
   86230:	5400014d 	b.le	86258 <printf+0x820>
   86234:	f94037e4 	ldr	x4, [sp, #104]
   86238:	b90073e2 	str	w2, [sp, #112]
   8623c:	aa0403e3 	mov	x3, x4
   86240:	91002082 	add	x2, x4, #0x8
   86244:	f90037e2 	str	x2, [sp, #104]
   86248:	39400902 	ldrb	w2, [x8, #2]
   8624c:	91000908 	add	x8, x8, #0x2
   86250:	b9400076 	ldr	w22, [x3]
   86254:	17fffe67 	b	85bf0 <printf+0x1b8>
   86258:	b94073e3 	ldr	w3, [sp, #112]
   8625c:	9107c3e4 	add	x4, sp, #0x1f0
   86260:	b90073e2 	str	w2, [sp, #112]
   86264:	8b23c083 	add	x3, x4, w3, sxtw
   86268:	17fffff8 	b	86248 <printf+0x810>
   8626c:	b94073e0 	ldr	w0, [sp, #112]
   86270:	11002001 	add	w1, w0, #0x8
   86274:	7100003f 	cmp	w1, #0x0
   86278:	5400024d 	b.le	862c0 <printf+0x888>
   8627c:	f94037e2 	ldr	x2, [sp, #104]
   86280:	b90073e1 	str	w1, [sp, #112]
   86284:	aa0203e0 	mov	x0, x2
   86288:	91002041 	add	x1, x2, #0x8
   8628c:	f90037e1 	str	x1, [sp, #104]
   86290:	b9800000 	ldrsw	x0, [x0]
   86294:	17ffff56 	b	85fec <printf+0x5b4>
   86298:	b94073e2 	ldr	w2, [sp, #112]
   8629c:	11002043 	add	w3, w2, #0x8
   862a0:	7100007f 	cmp	w3, #0x0
   862a4:	540001ad 	b.le	862d8 <printf+0x8a0>
   862a8:	f94037e4 	ldr	x4, [sp, #104]
   862ac:	b90073e3 	str	w3, [sp, #112]
   862b0:	aa0403e2 	mov	x2, x4
   862b4:	91002083 	add	x3, x4, #0x8
   862b8:	f90037e3 	str	x3, [sp, #104]
   862bc:	17fffe27 	b	85b58 <printf+0x120>
   862c0:	b94073e0 	ldr	w0, [sp, #112]
   862c4:	9107c3e2 	add	x2, sp, #0x1f0
   862c8:	b90073e1 	str	w1, [sp, #112]
   862cc:	8b20c040 	add	x0, x2, w0, sxtw
   862d0:	b9800000 	ldrsw	x0, [x0]
   862d4:	17ffff46 	b	85fec <printf+0x5b4>
   862d8:	b94073e2 	ldr	w2, [sp, #112]
   862dc:	9107c3e4 	add	x4, sp, #0x1f0
   862e0:	b90073e3 	str	w3, [sp, #112]
   862e4:	8b22c082 	add	x2, x4, w2, sxtw
   862e8:	17fffe1c 	b	85b58 <printf+0x120>
   862ec:	b94073e0 	ldr	w0, [sp, #112]
   862f0:	11002001 	add	w1, w0, #0x8
   862f4:	7100003f 	cmp	w1, #0x0
   862f8:	5400022d 	b.le	8633c <printf+0x904>
   862fc:	f94037e2 	ldr	x2, [sp, #104]
   86300:	b90073e1 	str	w1, [sp, #112]
   86304:	aa0203e0 	mov	x0, x2
   86308:	91002041 	add	x1, x2, #0x8
   8630c:	f90037e1 	str	x1, [sp, #104]
   86310:	17fffe57 	b	85c6c <printf+0x234>
   86314:	b94073e0 	ldr	w0, [sp, #112]
   86318:	11002001 	add	w1, w0, #0x8
   8631c:	7100003f 	cmp	w1, #0x0
   86320:	5400018d 	b.le	86350 <printf+0x918>
   86324:	f94037e2 	ldr	x2, [sp, #104]
   86328:	b90073e1 	str	w1, [sp, #112]
   8632c:	aa0203e0 	mov	x0, x2
   86330:	91002041 	add	x1, x2, #0x8
   86334:	f90037e1 	str	x1, [sp, #104]
   86338:	17ffff2b 	b	85fe4 <printf+0x5ac>
   8633c:	b94073e0 	ldr	w0, [sp, #112]
   86340:	9107c3e2 	add	x2, sp, #0x1f0
   86344:	b90073e1 	str	w1, [sp, #112]
   86348:	8b20c040 	add	x0, x2, w0, sxtw
   8634c:	17fffe48 	b	85c6c <printf+0x234>
   86350:	b94073e0 	ldr	w0, [sp, #112]
   86354:	9107c3e2 	add	x2, sp, #0x1f0
   86358:	b90073e1 	str	w1, [sp, #112]
   8635c:	8b20c040 	add	x0, x2, w0, sxtw
   86360:	17ffff21 	b	85fe4 <printf+0x5ac>
   86364:	b94073e0 	ldr	w0, [sp, #112]
   86368:	11002002 	add	w2, w0, #0x8
   8636c:	7100005f 	cmp	w2, #0x0
   86370:	5400024d 	b.le	863b8 <printf+0x980>
   86374:	f94037e3 	ldr	x3, [sp, #104]
   86378:	b90073e2 	str	w2, [sp, #112]
   8637c:	aa0303e0 	mov	x0, x3
   86380:	91002062 	add	x2, x3, #0x8
   86384:	f90037e2 	str	x2, [sp, #104]
   86388:	f9400000 	ldr	x0, [x0]
   8638c:	17fffe8b 	b	85db8 <printf+0x380>
   86390:	b94073e0 	ldr	w0, [sp, #112]
   86394:	11002002 	add	w2, w0, #0x8
   86398:	7100005f 	cmp	w2, #0x0
   8639c:	540001ad 	b.le	863d0 <printf+0x998>
   863a0:	f94037e3 	ldr	x3, [sp, #104]
   863a4:	b90073e2 	str	w2, [sp, #112]
   863a8:	aa0303e0 	mov	x0, x3
   863ac:	91002062 	add	x2, x3, #0x8
   863b0:	f90037e2 	str	x2, [sp, #104]
   863b4:	17fffef3 	b	85f80 <printf+0x548>
   863b8:	b94073e0 	ldr	w0, [sp, #112]
   863bc:	9107c3e3 	add	x3, sp, #0x1f0
   863c0:	b90073e2 	str	w2, [sp, #112]
   863c4:	8b20c060 	add	x0, x3, w0, sxtw
   863c8:	f9400000 	ldr	x0, [x0]
   863cc:	17fffe7b 	b	85db8 <printf+0x380>
   863d0:	b94073e0 	ldr	w0, [sp, #112]
   863d4:	9107c3e3 	add	x3, sp, #0x1f0
   863d8:	b90073e2 	str	w2, [sp, #112]
   863dc:	8b20c060 	add	x0, x3, w0, sxtw
   863e0:	17fffee8 	b	85f80 <printf+0x548>
   863e4:	910283e2 	add	x2, sp, #0xa0
   863e8:	52800005 	mov	w5, #0x0                   	// #0
   863ec:	b90077ff 	str	wzr, [sp, #116]
   863f0:	17fffe7d 	b	85de4 <printf+0x3ac>
   863f4:	b94073e0 	ldr	w0, [sp, #112]
   863f8:	11002001 	add	w1, w0, #0x8
   863fc:	7100003f 	cmp	w1, #0x0
   86400:	540000ed 	b.le	8641c <printf+0x9e4>
   86404:	f94037e2 	ldr	x2, [sp, #104]
   86408:	b90073e1 	str	w1, [sp, #112]
   8640c:	aa0203e0 	mov	x0, x2
   86410:	91002041 	add	x1, x2, #0x8
   86414:	f90037e1 	str	x1, [sp, #104]
   86418:	17ffff6b 	b	861c4 <printf+0x78c>
   8641c:	b94073e0 	ldr	w0, [sp, #112]
   86420:	9107c3e2 	add	x2, sp, #0x1f0
   86424:	b90073e1 	str	w1, [sp, #112]
   86428:	8b20c040 	add	x0, x2, w0, sxtw
   8642c:	17ffff66 	b	861c4 <printf+0x78c>

0000000000086430 <sprintf>:
   86430:	a9a353f3 	stp	x19, x20, [sp, #-464]!
   86434:	aa0103f3 	mov	x19, x1
   86438:	a902e7f8 	stp	x24, x25, [sp, #40]
   8643c:	910743e1 	add	x1, sp, #0x1d0
   86440:	aa0003f8 	mov	x24, x0
   86444:	a90473fb 	stp	x27, x28, [sp, #64]
   86448:	128005f9 	mov	w25, #0xffffffd0            	// #-48
   8644c:	910683e8 	add	x8, sp, #0x1a0
   86450:	12800fe0 	mov	w0, #0xffffff80            	// #-128
   86454:	f9002bfe 	str	x30, [sp, #80]
   86458:	a90707e1 	stp	x1, x1, [sp, #112]
   8645c:	aa0103fc 	mov	x28, x1
   86460:	f90043e8 	str	x8, [sp, #128]
   86464:	aa1803f4 	mov	x20, x24
   86468:	291103f9 	stp	w25, w0, [sp, #136]
   8646c:	910363fb 	add	x27, sp, #0xd8
   86470:	3d804be0 	str	q0, [sp, #288]
   86474:	3d804fe1 	str	q1, [sp, #304]
   86478:	3d8053e2 	str	q2, [sp, #320]
   8647c:	3d8057e3 	str	q3, [sp, #336]
   86480:	3d805be4 	str	q4, [sp, #352]
   86484:	3d805fe5 	str	q5, [sp, #368]
   86488:	3d8063e6 	str	q6, [sp, #384]
   8648c:	3d8067e7 	str	q7, [sp, #400]
   86490:	a91a0fe2 	stp	x2, x3, [sp, #416]
   86494:	a91b17e4 	stp	x4, x5, [sp, #432]
   86498:	a91c1fe6 	stp	x6, x7, [sp, #448]
   8649c:	14000004 	b	864ac <sprintf+0x7c>
   864a0:	39000282 	strb	w2, [x20]
   864a4:	aa0103f3 	mov	x19, x1
   864a8:	91000694 	add	x20, x20, #0x1
   864ac:	39400262 	ldrb	w2, [x19]
   864b0:	34000122 	cbz	w2, 864d4 <sprintf+0xa4>
   864b4:	91000661 	add	x1, x19, #0x1
   864b8:	7100945f 	cmp	w2, #0x25
   864bc:	54ffff21 	b.ne	864a0 <sprintf+0x70>  // b.any
   864c0:	39400663 	ldrb	w3, [x19, #1]
   864c4:	7100947f 	cmp	w3, #0x25
   864c8:	54000141 	b.ne	864f0 <sprintf+0xc0>  // b.any
   864cc:	91000a61 	add	x1, x19, #0x2
   864d0:	17fffff4 	b	864a0 <sprintf+0x70>
   864d4:	3900031f 	strb	wzr, [x24]
   864d8:	cb140300 	sub	x0, x24, x20
   864dc:	a942e7f8 	ldp	x24, x25, [sp, #40]
   864e0:	a94473fb 	ldp	x27, x28, [sp, #64]
   864e4:	f9402bfe 	ldr	x30, [sp, #80]
   864e8:	a8dd53f3 	ldp	x19, x20, [sp], #464
   864ec:	d65f03c0 	ret
   864f0:	aa0103f3 	mov	x19, x1
   864f4:	a9015bf5 	stp	x21, x22, [sp, #16]
   864f8:	f9001ffa 	str	x26, [sp, #56]
   864fc:	52800006 	mov	w6, #0x0                   	// #0
   86500:	52800005 	mov	w5, #0x0                   	// #0
   86504:	f90013f7 	str	x23, [sp, #32]
   86508:	5280041a 	mov	w26, #0x20                  	// #32
   8650c:	7100b47f 	cmp	w3, #0x2d
   86510:	54000260 	b.eq	8655c <sprintf+0x12c>  // b.none
   86514:	7100c07f 	cmp	w3, #0x30
   86518:	540002e0 	b.eq	86574 <sprintf+0x144>  // b.none
   8651c:	71008c7f 	cmp	w3, #0x23
   86520:	54000240 	b.eq	86568 <sprintf+0x138>  // b.none
   86524:	7100a87f 	cmp	w3, #0x2a
   86528:	540002c1 	b.ne	86580 <sprintf+0x150>  // b.any
   8652c:	37f835b9 	tbnz	w25, #31, 86be0 <sprintf+0x7b0>
   86530:	aa1c03e0 	mov	x0, x28
   86534:	9100239c 	add	x28, x28, #0x8
   86538:	b9400015 	ldr	w21, [x0]
   8653c:	91000673 	add	x19, x19, #0x1
   86540:	39400263 	ldrb	w3, [x19]
   86544:	36f80395 	tbz	w21, #31, 865b4 <sprintf+0x184>
   86548:	4b1503f5 	neg	w21, w21
   8654c:	52800016 	mov	w22, #0x0                   	// #0
   86550:	52800025 	mov	w5, #0x1                   	// #1
   86554:	5280041a 	mov	w26, #0x20                  	// #32
   86558:	1400001b 	b	865c4 <sprintf+0x194>
   8655c:	52800025 	mov	w5, #0x1                   	// #1
   86560:	38401e63 	ldrb	w3, [x19, #1]!
   86564:	17ffffea 	b	8650c <sprintf+0xdc>
   86568:	52800026 	mov	w6, #0x1                   	// #1
   8656c:	38401e63 	ldrb	w3, [x19, #1]!
   86570:	17ffffe7 	b	8650c <sprintf+0xdc>
   86574:	2a0303fa 	mov	w26, w3
   86578:	38401e63 	ldrb	w3, [x19, #1]!
   8657c:	17ffffe4 	b	8650c <sprintf+0xdc>
   86580:	5100c064 	sub	w4, w3, #0x30
   86584:	52800015 	mov	w21, #0x0                   	// #0
   86588:	12001c80 	and	w0, w4, #0xff
   8658c:	7100241f 	cmp	w0, #0x9
   86590:	54000128 	b.hi	865b4 <sprintf+0x184>  // b.pmore
   86594:	d503201f 	nop
   86598:	38401e63 	ldrb	w3, [x19, #1]!
   8659c:	0b150ab5 	add	w21, w21, w21, lsl #2
   865a0:	0b150495 	add	w21, w4, w21, lsl #1
   865a4:	5100c064 	sub	w4, w3, #0x30
   865a8:	12001c80 	and	w0, w4, #0xff
   865ac:	7100241f 	cmp	w0, #0x9
   865b0:	54ffff49 	b.ls	86598 <sprintf+0x168>  // b.plast
   865b4:	710000bf 	cmp	w5, #0x0
   865b8:	52800400 	mov	w0, #0x20                  	// #32
   865bc:	520000b6 	eor	w22, w5, #0x1
   865c0:	1a80035a 	csel	w26, w26, w0, eq  // eq = none
   865c4:	12800017 	mov	w23, #0xffffffff            	// #-1
   865c8:	7100b87f 	cmp	w3, #0x2e
   865cc:	540016a0 	b.eq	868a0 <sprintf+0x470>  // b.none
   865d0:	7101b07f 	cmp	w3, #0x6c
   865d4:	54000a00 	b.eq	86714 <sprintf+0x2e4>  // b.none
   865d8:	52800040 	mov	w0, #0x2                   	// #2
   865dc:	7101a07f 	cmp	w3, #0x68
   865e0:	540016e0 	b.eq	868bc <sprintf+0x48c>  // b.none
   865e4:	7101a47f 	cmp	w3, #0x69
   865e8:	540023a0 	b.eq	86a5c <sprintf+0x62c>  // b.none
   865ec:	540001a9 	b.ls	86620 <sprintf+0x1f0>  // b.plast
   865f0:	7101cc7f 	cmp	w3, #0x73
   865f4:	54002b00 	b.eq	86b54 <sprintf+0x724>  // b.none
   865f8:	540018c8 	b.hi	86910 <sprintf+0x4e0>  // b.pmore
   865fc:	7101bc7f 	cmp	w3, #0x6f
   86600:	540007e0 	b.eq	866fc <sprintf+0x2cc>  // b.none
   86604:	d2800208 	mov	x8, #0x10                  	// #16
   86608:	52800066 	mov	w6, #0x3                   	// #3
   8660c:	7101c07f 	cmp	w3, #0x70
   86610:	54002481 	b.ne	86aa0 <sprintf+0x670>  // b.any
   86614:	52800001 	mov	w1, #0x0                   	// #0
   86618:	52800009 	mov	w9, #0x0                   	// #0
   8661c:	140000c9 	b	86940 <sprintf+0x510>
   86620:	7101887f 	cmp	w3, #0x62
   86624:	540028a0 	b.eq	86b38 <sprintf+0x708>  // b.none
   86628:	54002389 	b.ls	86a98 <sprintf+0x668>  // b.plast
   8662c:	71018c7f 	cmp	w3, #0x63
   86630:	54002121 	b.ne	86a54 <sprintf+0x624>  // b.any
   86634:	37f82b99 	tbnz	w25, #31, 86ba4 <sprintf+0x774>
   86638:	aa1c03e0 	mov	x0, x28
   8663c:	9100239c 	add	x28, x28, #0x8
   86640:	b9400000 	ldr	w0, [x0]
   86644:	91000673 	add	x19, x19, #0x1
   86648:	910243e3 	add	x3, sp, #0x90
   8664c:	390243e0 	strb	w0, [sp, #144]
   86650:	390247ff 	strb	wzr, [sp, #145]
   86654:	aa0303e0 	mov	x0, x3
   86658:	f90033e3 	str	x3, [sp, #96]
   8665c:	b9006be5 	str	w5, [sp, #104]
   86660:	94000328 	bl	87300 <strlen>
   86664:	7100c35f 	cmp	w26, #0x30
   86668:	b9406be5 	ldr	w5, [sp, #104]
   8666c:	1a9f02d6 	csel	w22, w22, wzr, eq  // eq = none
   86670:	710002ff 	cmp	w23, #0x0
   86674:	7a40a2e0 	ccmp	w23, w0, #0x0, ge  // ge = tcont
   86678:	f94033e3 	ldr	x3, [sp, #96]
   8667c:	1a80b2f7 	csel	w23, w23, w0, lt  // lt = tstop
   86680:	52800007 	mov	w7, #0x0                   	// #0
   86684:	52800004 	mov	w4, #0x0                   	// #0
   86688:	0b0702e7 	add	w7, w23, w7
   8668c:	6b1500ff 	cmp	w7, w21
   86690:	5400210b 	b.lt	86ab0 <sprintf+0x680>  // b.tstop
   86694:	52800002 	mov	w2, #0x0                   	// #0
   86698:	52800015 	mov	w21, #0x0                   	// #0
   8669c:	34000e76 	cbz	w22, 86868 <sprintf+0x438>
   866a0:	34002784 	cbz	w4, 86b90 <sprintf+0x760>
   866a4:	91000681 	add	x1, x20, #0x1
   866a8:	39000284 	strb	w4, [x20]
   866ac:	52800015 	mov	w21, #0x0                   	// #0
   866b0:	710002ff 	cmp	w23, #0x0
   866b4:	5400274d 	b.le	86b9c <sprintf+0x76c>
   866b8:	d2800000 	mov	x0, #0x0                   	// #0
   866bc:	d503201f 	nop
   866c0:	38606862 	ldrb	w2, [x3, x0]
   866c4:	38206822 	strb	w2, [x1, x0]
   866c8:	91000400 	add	x0, x0, #0x1
   866cc:	6b0002ff 	cmp	w23, w0
   866d0:	54ffff8c 	b.gt	866c0 <sprintf+0x290>
   866d4:	510006f4 	sub	w20, w23, #0x1
   866d8:	91000694 	add	x20, x20, #0x1
   866dc:	8b140034 	add	x20, x1, x20
   866e0:	35002185 	cbnz	w5, 86b10 <sprintf+0x6e0>
   866e4:	a9415bf5 	ldp	x21, x22, [sp, #16]
   866e8:	f94013f7 	ldr	x23, [sp, #32]
   866ec:	f9401ffa 	ldr	x26, [sp, #56]
   866f0:	17ffff6f 	b	864ac <sprintf+0x7c>
   866f4:	aa0403f3 	mov	x19, x4
   866f8:	52800060 	mov	w0, #0x3                   	// #3
   866fc:	710004df 	cmp	w6, #0x1
   86700:	54001c20 	b.eq	86a84 <sprintf+0x654>  // b.none
   86704:	52800001 	mov	w1, #0x0                   	// #0
   86708:	d2800108 	mov	x8, #0x8                   	// #8
   8670c:	52800009 	mov	w9, #0x0                   	// #0
   86710:	1400008a 	b	86938 <sprintf+0x508>
   86714:	39400663 	ldrb	w3, [x19, #1]
   86718:	91000664 	add	x4, x19, #0x1
   8671c:	7101a47f 	cmp	w3, #0x69
   86720:	540013c0 	b.eq	86998 <sprintf+0x568>  // b.none
   86724:	540012a9 	b.ls	86978 <sprintf+0x548>  // b.plast
   86728:	7101cc7f 	cmp	w3, #0x73
   8672c:	54002120 	b.eq	86b50 <sprintf+0x720>  // b.none
   86730:	540017e8 	b.hi	86a2c <sprintf+0x5fc>  // b.pmore
   86734:	7101bc7f 	cmp	w3, #0x6f
   86738:	54fffde0 	b.eq	866f4 <sprintf+0x2c4>  // b.none
   8673c:	7101c07f 	cmp	w3, #0x70
   86740:	54001b01 	b.ne	86aa0 <sprintf+0x670>  // b.any
   86744:	aa0403f3 	mov	x19, x4
   86748:	52800001 	mov	w1, #0x0                   	// #0
   8674c:	d2800208 	mov	x8, #0x10                  	// #16
   86750:	52800009 	mov	w9, #0x0                   	// #0
   86754:	52800066 	mov	w6, #0x3                   	// #3
   86758:	37f82b39 	tbnz	w25, #31, 86cbc <sprintf+0x88c>
   8675c:	aa1c03e0 	mov	x0, x28
   86760:	9100239c 	add	x28, x28, #0x8
   86764:	f9400000 	ldr	x0, [x0]
   86768:	f100001f 	cmp	x0, #0x0
   8676c:	91000673 	add	x19, x19, #0x1
   86770:	1a9f1021 	csel	w1, w1, wzr, ne  // ne = any
   86774:	35000f61 	cbnz	w1, 86960 <sprintf+0x530>
   86778:	71000cdf 	cmp	w6, #0x3
   8677c:	54002d01 	b.ne	86d1c <sprintf+0x8ec>  // b.any
   86780:	91024be2 	add	x2, sp, #0x92
   86784:	528f0601 	mov	w1, #0x7830                	// #30768
   86788:	52800007 	mov	w7, #0x0                   	// #0
   8678c:	790123e1 	strh	w1, [sp, #144]
   86790:	52800004 	mov	w4, #0x0                   	// #0
   86794:	340011e9 	cbz	w9, 869d0 <sprintf+0x5a0>
   86798:	d0000001 	adrp	x1, 88000 <BitFont+0x948>
   8679c:	911fa029 	add	x9, x1, #0x7e8
   867a0:	911fa021 	add	x1, x1, #0x7e8
   867a4:	390363ff 	strb	wzr, [sp, #216]
   867a8:	91008021 	add	x1, x1, #0x20
   867ac:	3868482a 	ldrb	w10, [x1, w8, uxtw]
   867b0:	3400120a 	cbz	w10, 869f0 <sprintf+0x5c0>
   867b4:	92800008 	mov	x8, #0xffffffffffffffff    	// #-1
   867b8:	9aca2403 	lsr	x3, x0, x10
   867bc:	9aca2108 	lsl	x8, x8, x10
   867c0:	aa2803e8 	mvn	x8, x8
   867c4:	8a000101 	and	x1, x8, x0
   867c8:	38616920 	ldrb	w0, [x9, x1]
   867cc:	390367e0 	strb	w0, [sp, #217]
   867d0:	b40019c3 	cbz	x3, 86b08 <sprintf+0x6d8>
   867d4:	d2800046 	mov	x6, #0x2                   	// #2
   867d8:	8a030100 	and	x0, x8, x3
   867dc:	2a0603e1 	mov	w1, w6
   867e0:	9aca2463 	lsr	x3, x3, x10
   867e4:	38606920 	ldrb	w0, [x9, x0]
   867e8:	38266b60 	strb	w0, [x27, x6]
   867ec:	910004c6 	add	x6, x6, #0x1
   867f0:	b5ffff43 	cbnz	x3, 867d8 <sprintf+0x3a8>
   867f4:	51000421 	sub	w1, w1, #0x1
   867f8:	93407c21 	sxtw	x1, w1
   867fc:	14000003 	b	86808 <sprintf+0x3d8>
   86800:	38616b60 	ldrb	w0, [x27, x1]
   86804:	d1000421 	sub	x1, x1, #0x1
   86808:	38001440 	strb	w0, [x2], #1
   8680c:	3100043f 	cmn	w1, #0x1
   86810:	54ffff81 	b.ne	86800 <sprintf+0x3d0>  // b.any
   86814:	b90063e5 	str	w5, [sp, #96]
   86818:	910243e0 	add	x0, sp, #0x90
   8681c:	290d1fe4 	stp	w4, w7, [sp, #104]
   86820:	940002b8 	bl	87300 <strlen>
   86824:	b94063e5 	ldr	w5, [sp, #96]
   86828:	294d1fe4 	ldp	w4, w7, [sp, #104]
   8682c:	37f814f7 	tbnz	w23, #31, 86ac8 <sprintf+0x698>
   86830:	6b0002ff 	cmp	w23, w0
   86834:	4b0002e2 	sub	w2, w23, w0
   86838:	1a9fc042 	csel	w2, w2, wzr, gt
   8683c:	0b000041 	add	w1, w2, w0
   86840:	0b070027 	add	w7, w1, w7
   86844:	6b0702bf 	cmp	w21, w7
   86848:	540014ad 	b.le	86adc <sprintf+0x6ac>
   8684c:	2a0003f7 	mov	w23, w0
   86850:	910243e3 	add	x3, sp, #0x90
   86854:	52800016 	mov	w22, #0x0                   	// #0
   86858:	5280041a 	mov	w26, #0x20                  	// #32
   8685c:	4b0702b5 	sub	w21, w21, w7
   86860:	350012f6 	cbnz	w22, 86abc <sprintf+0x68c>
   86864:	34001e65 	cbz	w5, 86c30 <sprintf+0x800>
   86868:	340014c4 	cbz	w4, 86b00 <sprintf+0x6d0>
   8686c:	91000681 	add	x1, x20, #0x1
   86870:	39000284 	strb	w4, [x20]
   86874:	7100005f 	cmp	w2, #0x0
   86878:	54fff1cd 	b.le	866b0 <sprintf+0x280>
   8687c:	51000440 	sub	w0, w2, #0x1
   86880:	52800602 	mov	w2, #0x30                  	// #48
   86884:	91000400 	add	x0, x0, #0x1
   86888:	8b000020 	add	x0, x1, x0
   8688c:	d503201f 	nop
   86890:	38001422 	strb	w2, [x1], #1
   86894:	eb00003f 	cmp	x1, x0
   86898:	54ffffc1 	b.ne	86890 <sprintf+0x460>  // b.any
   8689c:	17ffff85 	b	866b0 <sprintf+0x280>
   868a0:	39400663 	ldrb	w3, [x19, #1]
   868a4:	7100a87f 	cmp	w3, #0x2a
   868a8:	54000161 	b.ne	868d4 <sprintf+0x4a4>  // b.any
   868ac:	37f81e59 	tbnz	w25, #31, 86c74 <sprintf+0x844>
   868b0:	aa1c03e0 	mov	x0, x28
   868b4:	9100239c 	add	x28, x28, #0x8
   868b8:	140000f5 	b	86c8c <sprintf+0x85c>
   868bc:	39400663 	ldrb	w3, [x19, #1]
   868c0:	7101a07f 	cmp	w3, #0x68
   868c4:	54001160 	b.eq	86af0 <sprintf+0x6c0>  // b.none
   868c8:	91000673 	add	x19, x19, #0x1
   868cc:	52800020 	mov	w0, #0x1                   	// #1
   868d0:	17ffff45 	b	865e4 <sprintf+0x1b4>
   868d4:	5100c064 	sub	w4, w3, #0x30
   868d8:	91000673 	add	x19, x19, #0x1
   868dc:	12001c80 	and	w0, w4, #0xff
   868e0:	52800017 	mov	w23, #0x0                   	// #0
   868e4:	7100241f 	cmp	w0, #0x9
   868e8:	54ffe748 	b.hi	865d0 <sprintf+0x1a0>  // b.pmore
   868ec:	d503201f 	nop
   868f0:	38401e63 	ldrb	w3, [x19, #1]!
   868f4:	0b170af7 	add	w23, w23, w23, lsl #2
   868f8:	0b170497 	add	w23, w4, w23, lsl #1
   868fc:	5100c064 	sub	w4, w3, #0x30
   86900:	12001c80 	and	w0, w4, #0xff
   86904:	7100241f 	cmp	w0, #0x9
   86908:	54ffff49 	b.ls	868f0 <sprintf+0x4c0>  // b.plast
   8690c:	17ffff31 	b	865d0 <sprintf+0x1a0>
   86910:	7101d47f 	cmp	w3, #0x75
   86914:	540009c0 	b.eq	86a4c <sprintf+0x61c>  // b.none
   86918:	52800009 	mov	w9, #0x0                   	// #0
   8691c:	7101e07f 	cmp	w3, #0x78
   86920:	54000c01 	b.ne	86aa0 <sprintf+0x670>  // b.any
   86924:	52800001 	mov	w1, #0x0                   	// #0
   86928:	d2800208 	mov	x8, #0x10                  	// #16
   8692c:	710004df 	cmp	w6, #0x1
   86930:	54000041 	b.ne	86938 <sprintf+0x508>  // b.any
   86934:	52800066 	mov	w6, #0x3                   	// #3
   86938:	71000c1f 	cmp	w0, #0x3
   8693c:	54fff0e0 	b.eq	86758 <sprintf+0x328>  // b.none
   86940:	37f81cf9 	tbnz	w25, #31, 86cdc <sprintf+0x8ac>
   86944:	aa1c03e0 	mov	x0, x28
   86948:	9100239c 	add	x28, x28, #0x8
   8694c:	b9400000 	ldr	w0, [x0]
   86950:	91000673 	add	x19, x19, #0x1
   86954:	f100001f 	cmp	x0, #0x0
   86958:	1a9f1021 	csel	w1, w1, wzr, ne  // ne = any
   8695c:	34fff0e1 	cbz	w1, 86778 <sprintf+0x348>
   86960:	52800601 	mov	w1, #0x30                  	// #48
   86964:	52800007 	mov	w7, #0x0                   	// #0
   86968:	390243e1 	strb	w1, [sp, #144]
   8696c:	910247e2 	add	x2, sp, #0x91
   86970:	52800004 	mov	w4, #0x0                   	// #0
   86974:	17ffff88 	b	86794 <sprintf+0x364>
   86978:	aa0403f3 	mov	x19, x4
   8697c:	7101887f 	cmp	w3, #0x62
   86980:	54000e00 	b.eq	86b40 <sprintf+0x710>  // b.none
   86984:	54000769 	b.ls	86a70 <sprintf+0x640>  // b.plast
   86988:	71018c7f 	cmp	w3, #0x63
   8698c:	54ffe540 	b.eq	86634 <sprintf+0x204>  // b.none
   86990:	7101907f 	cmp	w3, #0x64
   86994:	54000861 	b.ne	86aa0 <sprintf+0x670>  // b.any
   86998:	37f81619 	tbnz	w25, #31, 86c58 <sprintf+0x828>
   8699c:	aa1c03e0 	mov	x0, x28
   869a0:	9100239c 	add	x28, x28, #0x8
   869a4:	f9400000 	ldr	x0, [x0]
   869a8:	aa0403f3 	mov	x19, x4
   869ac:	91000673 	add	x19, x19, #0x1
   869b0:	52800007 	mov	w7, #0x0                   	// #0
   869b4:	52800004 	mov	w4, #0x0                   	// #0
   869b8:	b6f80080 	tbz	x0, #63, 869c8 <sprintf+0x598>
   869bc:	cb0003e0 	neg	x0, x0
   869c0:	52800027 	mov	w7, #0x1                   	// #1
   869c4:	528005a4 	mov	w4, #0x2d                  	// #45
   869c8:	910243e2 	add	x2, sp, #0x90
   869cc:	d2800148 	mov	x8, #0xa                   	// #10
   869d0:	d0000001 	adrp	x1, 88000 <BitFont+0x948>
   869d4:	911fa029 	add	x9, x1, #0x7e8
   869d8:	911fa021 	add	x1, x1, #0x7e8
   869dc:	390363ff 	strb	wzr, [sp, #216]
   869e0:	91008021 	add	x1, x1, #0x20
   869e4:	91004129 	add	x9, x9, #0x10
   869e8:	3868482a 	ldrb	w10, [x1, w8, uxtw]
   869ec:	35ffee4a 	cbnz	w10, 867b4 <sprintf+0x384>
   869f0:	9ac80803 	udiv	x3, x0, x8
   869f4:	9b088060 	msub	x0, x3, x8, x0
   869f8:	38606920 	ldrb	w0, [x9, x0]
   869fc:	390367e0 	strb	w0, [sp, #217]
   86a00:	b4000843 	cbz	x3, 86b08 <sprintf+0x6d8>
   86a04:	d2800046 	mov	x6, #0x2                   	// #2
   86a08:	9ac80860 	udiv	x0, x3, x8
   86a0c:	9b088c01 	msub	x1, x0, x8, x3
   86a10:	aa0003e3 	mov	x3, x0
   86a14:	38616920 	ldrb	w0, [x9, x1]
   86a18:	2a0603e1 	mov	w1, w6
   86a1c:	38266b60 	strb	w0, [x27, x6]
   86a20:	910004c6 	add	x6, x6, #0x1
   86a24:	b5ffff23 	cbnz	x3, 86a08 <sprintf+0x5d8>
   86a28:	17ffff73 	b	867f4 <sprintf+0x3c4>
   86a2c:	7101d47f 	cmp	w3, #0x75
   86a30:	54000a60 	b.eq	86b7c <sprintf+0x74c>  // b.none
   86a34:	7101e07f 	cmp	w3, #0x78
   86a38:	54000341 	b.ne	86aa0 <sprintf+0x670>  // b.any
   86a3c:	aa0403f3 	mov	x19, x4
   86a40:	52800060 	mov	w0, #0x3                   	// #3
   86a44:	52800009 	mov	w9, #0x0                   	// #0
   86a48:	17ffffb7 	b	86924 <sprintf+0x4f4>
   86a4c:	d2800148 	mov	x8, #0xa                   	// #10
   86a50:	17fffef1 	b	86614 <sprintf+0x1e4>
   86a54:	7101907f 	cmp	w3, #0x64
   86a58:	54000241 	b.ne	86aa0 <sprintf+0x670>  // b.any
   86a5c:	37f80b39 	tbnz	w25, #31, 86bc0 <sprintf+0x790>
   86a60:	aa1c03e0 	mov	x0, x28
   86a64:	9100239c 	add	x28, x28, #0x8
   86a68:	b9800000 	ldrsw	x0, [x0]
   86a6c:	17ffffd0 	b	869ac <sprintf+0x57c>
   86a70:	52800060 	mov	w0, #0x3                   	// #3
   86a74:	7101607f 	cmp	w3, #0x58
   86a78:	54000141 	b.ne	86aa0 <sprintf+0x670>  // b.any
   86a7c:	52800029 	mov	w9, #0x1                   	// #1
   86a80:	17ffffa9 	b	86924 <sprintf+0x4f4>
   86a84:	2a0603e1 	mov	w1, w6
   86a88:	d2800108 	mov	x8, #0x8                   	// #8
   86a8c:	52800009 	mov	w9, #0x0                   	// #0
   86a90:	52800046 	mov	w6, #0x2                   	// #2
   86a94:	17ffffa9 	b	86938 <sprintf+0x508>
   86a98:	7101607f 	cmp	w3, #0x58
   86a9c:	54ffff00 	b.eq	86a7c <sprintf+0x64c>  // b.none
   86aa0:	a9415bf5 	ldp	x21, x22, [sp, #16]
   86aa4:	f94013f7 	ldr	x23, [sp, #32]
   86aa8:	f9401ffa 	ldr	x26, [sp, #56]
   86aac:	17fffe7d 	b	864a0 <sprintf+0x70>
   86ab0:	52800002 	mov	w2, #0x0                   	// #0
   86ab4:	4b0702b5 	sub	w21, w21, w7
   86ab8:	34ffed76 	cbz	w22, 86864 <sprintf+0x434>
   86abc:	2a1503e2 	mov	w2, w21
   86ac0:	52800015 	mov	w21, #0x0                   	// #0
   86ac4:	17ffff69 	b	86868 <sprintf+0x438>
   86ac8:	7100c35f 	cmp	w26, #0x30
   86acc:	2a0003f7 	mov	w23, w0
   86ad0:	1a9f02d6 	csel	w22, w22, wzr, eq  // eq = none
   86ad4:	910243e3 	add	x3, sp, #0x90
   86ad8:	17fffeec 	b	86688 <sprintf+0x258>
   86adc:	2a0003f7 	mov	w23, w0
   86ae0:	910243e3 	add	x3, sp, #0x90
   86ae4:	5280041a 	mov	w26, #0x20                  	// #32
   86ae8:	52800015 	mov	w21, #0x0                   	// #0
   86aec:	17ffff5f 	b	86868 <sprintf+0x438>
   86af0:	39400a63 	ldrb	w3, [x19, #2]
   86af4:	52800000 	mov	w0, #0x0                   	// #0
   86af8:	91000a73 	add	x19, x19, #0x2
   86afc:	17fffeba 	b	865e4 <sprintf+0x1b4>
   86b00:	aa1403e1 	mov	x1, x20
   86b04:	17ffff5c 	b	86874 <sprintf+0x444>
   86b08:	52800021 	mov	w1, #0x1                   	// #1
   86b0c:	17ffff3a 	b	867f4 <sprintf+0x3c4>
   86b10:	710002bf 	cmp	w21, #0x0
   86b14:	54ffde8d 	b.le	866e4 <sprintf+0x2b4>
   86b18:	510006a1 	sub	w1, w21, #0x1
   86b1c:	91000421 	add	x1, x1, #0x1
   86b20:	8b010281 	add	x1, x20, x1
   86b24:	d503201f 	nop
   86b28:	3800169a 	strb	w26, [x20], #1
   86b2c:	eb01029f 	cmp	x20, x1
   86b30:	54ffffc1 	b.ne	86b28 <sprintf+0x6f8>  // b.any
   86b34:	17fffeec 	b	866e4 <sprintf+0x2b4>
   86b38:	d2800048 	mov	x8, #0x2                   	// #2
   86b3c:	17fffeb6 	b	86614 <sprintf+0x1e4>
   86b40:	52800001 	mov	w1, #0x0                   	// #0
   86b44:	d2800048 	mov	x8, #0x2                   	// #2
   86b48:	52800009 	mov	w9, #0x0                   	// #0
   86b4c:	17ffff03 	b	86758 <sprintf+0x328>
   86b50:	aa0403f3 	mov	x19, x4
   86b54:	37f80ed9 	tbnz	w25, #31, 86d2c <sprintf+0x8fc>
   86b58:	aa1c03e0 	mov	x0, x28
   86b5c:	9100239c 	add	x28, x28, #0x8
   86b60:	f9400003 	ldr	x3, [x0]
   86b64:	d0000000 	adrp	x0, 88000 <BitFont+0x948>
   86b68:	91208000 	add	x0, x0, #0x820
   86b6c:	91000673 	add	x19, x19, #0x1
   86b70:	f100007f 	cmp	x3, #0x0
   86b74:	9a830003 	csel	x3, x0, x3, eq  // eq = none
   86b78:	17fffeb7 	b	86654 <sprintf+0x224>
   86b7c:	aa0403f3 	mov	x19, x4
   86b80:	52800001 	mov	w1, #0x0                   	// #0
   86b84:	d2800148 	mov	x8, #0xa                   	// #10
   86b88:	52800009 	mov	w9, #0x0                   	// #0
   86b8c:	17fffef3 	b	86758 <sprintf+0x328>
   86b90:	aa1403e1 	mov	x1, x20
   86b94:	52800015 	mov	w21, #0x0                   	// #0
   86b98:	17fffec6 	b	866b0 <sprintf+0x280>
   86b9c:	aa0103f4 	mov	x20, x1
   86ba0:	17fffed0 	b	866e0 <sprintf+0x2b0>
   86ba4:	11002321 	add	w1, w25, #0x8
   86ba8:	7100003f 	cmp	w1, #0x0
   86bac:	5400028d 	b.le	86bfc <sprintf+0x7cc>
   86bb0:	aa1c03e0 	mov	x0, x28
   86bb4:	2a0103f9 	mov	w25, w1
   86bb8:	9100239c 	add	x28, x28, #0x8
   86bbc:	17fffea1 	b	86640 <sprintf+0x210>
   86bc0:	11002321 	add	w1, w25, #0x8
   86bc4:	7100003f 	cmp	w1, #0x0
   86bc8:	5400022d 	b.le	86c0c <sprintf+0x7dc>
   86bcc:	aa1c03e0 	mov	x0, x28
   86bd0:	2a0103f9 	mov	w25, w1
   86bd4:	9100239c 	add	x28, x28, #0x8
   86bd8:	b9800000 	ldrsw	x0, [x0]
   86bdc:	17ffff74 	b	869ac <sprintf+0x57c>
   86be0:	11002323 	add	w3, w25, #0x8
   86be4:	7100007f 	cmp	w3, #0x0
   86be8:	540001cd 	b.le	86c20 <sprintf+0x7f0>
   86bec:	aa1c03e0 	mov	x0, x28
   86bf0:	2a0303f9 	mov	w25, w3
   86bf4:	9100239c 	add	x28, x28, #0x8
   86bf8:	17fffe50 	b	86538 <sprintf+0x108>
   86bfc:	910743e0 	add	x0, sp, #0x1d0
   86c00:	8b39c000 	add	x0, x0, w25, sxtw
   86c04:	2a0103f9 	mov	w25, w1
   86c08:	17fffe8e 	b	86640 <sprintf+0x210>
   86c0c:	910743e0 	add	x0, sp, #0x1d0
   86c10:	8b39c000 	add	x0, x0, w25, sxtw
   86c14:	2a0103f9 	mov	w25, w1
   86c18:	b9800000 	ldrsw	x0, [x0]
   86c1c:	17ffff64 	b	869ac <sprintf+0x57c>
   86c20:	910743e0 	add	x0, sp, #0x1d0
   86c24:	8b39c000 	add	x0, x0, w25, sxtw
   86c28:	2a0303f9 	mov	w25, w3
   86c2c:	17fffe43 	b	86538 <sprintf+0x108>
   86c30:	710002bf 	cmp	w21, #0x0
   86c34:	54ffe1ad 	b.le	86868 <sprintf+0x438>
   86c38:	510006a0 	sub	w0, w21, #0x1
   86c3c:	91000400 	add	x0, x0, #0x1
   86c40:	8b000280 	add	x0, x20, x0
   86c44:	d503201f 	nop
   86c48:	3800169a 	strb	w26, [x20], #1
   86c4c:	eb00029f 	cmp	x20, x0
   86c50:	54ffffc1 	b.ne	86c48 <sprintf+0x818>  // b.any
   86c54:	17ffff05 	b	86868 <sprintf+0x438>
   86c58:	11002321 	add	w1, w25, #0x8
   86c5c:	7100003f 	cmp	w1, #0x0
   86c60:	540001ed 	b.le	86c9c <sprintf+0x86c>
   86c64:	aa1c03e0 	mov	x0, x28
   86c68:	2a0103f9 	mov	w25, w1
   86c6c:	9100239c 	add	x28, x28, #0x8
   86c70:	17ffff4d 	b	869a4 <sprintf+0x574>
   86c74:	11002323 	add	w3, w25, #0x8
   86c78:	7100007f 	cmp	w3, #0x0
   86c7c:	5400018d 	b.le	86cac <sprintf+0x87c>
   86c80:	aa1c03e0 	mov	x0, x28
   86c84:	2a0303f9 	mov	w25, w3
   86c88:	9100239c 	add	x28, x28, #0x8
   86c8c:	39400a63 	ldrb	w3, [x19, #2]
   86c90:	91000a73 	add	x19, x19, #0x2
   86c94:	b9400017 	ldr	w23, [x0]
   86c98:	17fffe4e 	b	865d0 <sprintf+0x1a0>
   86c9c:	910743e0 	add	x0, sp, #0x1d0
   86ca0:	8b39c000 	add	x0, x0, w25, sxtw
   86ca4:	2a0103f9 	mov	w25, w1
   86ca8:	17ffff3f 	b	869a4 <sprintf+0x574>
   86cac:	910743e0 	add	x0, sp, #0x1d0
   86cb0:	8b39c000 	add	x0, x0, w25, sxtw
   86cb4:	2a0303f9 	mov	w25, w3
   86cb8:	17fffff5 	b	86c8c <sprintf+0x85c>
   86cbc:	11002322 	add	w2, w25, #0x8
   86cc0:	7100005f 	cmp	w2, #0x0
   86cc4:	540001ad 	b.le	86cf8 <sprintf+0x8c8>
   86cc8:	aa1c03e0 	mov	x0, x28
   86ccc:	2a0203f9 	mov	w25, w2
   86cd0:	9100239c 	add	x28, x28, #0x8
   86cd4:	f9400000 	ldr	x0, [x0]
   86cd8:	17fffea4 	b	86768 <sprintf+0x338>
   86cdc:	11002322 	add	w2, w25, #0x8
   86ce0:	7100005f 	cmp	w2, #0x0
   86ce4:	5400014d 	b.le	86d0c <sprintf+0x8dc>
   86ce8:	aa1c03e0 	mov	x0, x28
   86cec:	2a0203f9 	mov	w25, w2
   86cf0:	9100239c 	add	x28, x28, #0x8
   86cf4:	17ffff16 	b	8694c <sprintf+0x51c>
   86cf8:	910743e0 	add	x0, sp, #0x1d0
   86cfc:	8b39c000 	add	x0, x0, w25, sxtw
   86d00:	2a0203f9 	mov	w25, w2
   86d04:	f9400000 	ldr	x0, [x0]
   86d08:	17fffe98 	b	86768 <sprintf+0x338>
   86d0c:	910743e0 	add	x0, sp, #0x1d0
   86d10:	8b39c000 	add	x0, x0, w25, sxtw
   86d14:	2a0203f9 	mov	w25, w2
   86d18:	17ffff0d 	b	8694c <sprintf+0x51c>
   86d1c:	910243e2 	add	x2, sp, #0x90
   86d20:	52800007 	mov	w7, #0x0                   	// #0
   86d24:	52800004 	mov	w4, #0x0                   	// #0
   86d28:	17fffe9b 	b	86794 <sprintf+0x364>
   86d2c:	11002321 	add	w1, w25, #0x8
   86d30:	7100003f 	cmp	w1, #0x0
   86d34:	540000ad 	b.le	86d48 <sprintf+0x918>
   86d38:	aa1c03e0 	mov	x0, x28
   86d3c:	2a0103f9 	mov	w25, w1
   86d40:	9100239c 	add	x28, x28, #0x8
   86d44:	17ffff87 	b	86b60 <sprintf+0x730>
   86d48:	910743e0 	add	x0, sp, #0x1d0
   86d4c:	8b39c000 	add	x0, x0, w25, sxtw
   86d50:	2a0103f9 	mov	w25, w1
   86d54:	17ffff83 	b	86b60 <sprintf+0x730>

0000000000086d58 <init_page_table>:
   86d58:	d28000c0 	mov	x0, #0x6                   	// #6
   86d5c:	a9ba53f3 	stp	x19, x20, [sp, #-96]!
   86d60:	f2a00020 	movk	x0, #0x1, lsl #16
   86d64:	d2800401 	mov	x1, #0x20                  	// #32
   86d68:	f2c00100 	movk	x0, #0x8, lsl #32
   86d6c:	d2800113 	mov	x19, #0x8                   	// #8
   86d70:	f9000ff6 	str	x22, [sp, #24]
   86d74:	f9001bfe 	str	x30, [sp, #48]
   86d78:	a90403e1 	stp	x1, x0, [sp, #64]
   86d7c:	110103e1 	add	w1, wsp, #0x40
   86d80:	a9057ff3 	stp	x19, xzr, [sp, #80]
   86d84:	2a1303e0 	mov	w0, w19
   86d88:	97fff35a 	bl	83af0 <mailbox_write>
   86d8c:	72001c1f 	tst	w0, #0xff
   86d90:	540022a1 	b.ne	871e4 <init_page_table+0x48c>  // b.any
   86d94:	b94057e5 	ldr	w5, [sp, #84]
   86d98:	52800000 	mov	w0, #0x0                   	// #0
   86d9c:	90000056 	adrp	x22, 8e000 <Stage2map1to1>
   86da0:	53157ca5 	lsr	w5, w5, #21
   86da4:	b90057e5 	str	w5, [sp, #84]
   86da8:	34000465 	cbz	w5, 86e34 <init_page_table+0xdc>
   86dac:	90000056 	adrp	x22, 8e000 <Stage2map1to1>
   86db0:	f9000bf5 	str	x21, [sp, #16]
   86db4:	910002d3 	add	x19, x22, #0x0
   86db8:	d0000015 	adrp	x21, 88000 <BitFont+0x948>
   86dbc:	9120a2b5 	add	x21, x21, #0x828
   86dc0:	a90263f7 	stp	x23, x24, [sp, #32]
   86dc4:	d2800014 	mov	x20, #0x0                   	// #0
   86dc8:	52800000 	mov	w0, #0x0                   	// #0
   86dcc:	52800038 	mov	w24, #0x1                   	// #1
   86dd0:	52800097 	mov	w23, #0x4                   	// #4
   86dd4:	d503201f 	nop
   86dd8:	2a0003e1 	mov	w1, w0
   86ddc:	2a1803e4 	mov	w4, w24
   86de0:	d37df022 	lsl	x2, x1, #3
   86de4:	8b020263 	add	x3, x19, x2
   86de8:	331e0ee4 	bfi	w4, w23, #2, #4
   86dec:	f8217a7f 	str	xzr, [x19, x1, lsl #3]
   86df0:	38226a64 	strb	w4, [x19, x2]
   86df4:	39400462 	ldrb	w2, [x3, #1]
   86df8:	32000842 	orr	w2, w2, #0x7
   86dfc:	39000462 	strb	w2, [x3, #1]
   86e00:	f8617a62 	ldr	x2, [x19, x1, lsl #3]
   86e04:	b3748e82 	bfi	x2, x20, #12, #36
   86e08:	f8217a62 	str	x2, [x19, x1, lsl #3]
   86e0c:	34001d80 	cbz	w0, 871bc <init_page_table+0x464>
   86e10:	11000400 	add	w0, w0, #0x1
   86e14:	91080294 	add	x20, x20, #0x200
   86e18:	92408e94 	and	x20, x20, #0xfffffffff
   86e1c:	6b0000bf 	cmp	w5, w0
   86e20:	54fffdc8 	b.hi	86dd8 <init_page_table+0x80>  // b.pmore
   86e24:	7107dc1f 	cmp	w0, #0x1f7
   86e28:	54001e48 	b.hi	871f0 <init_page_table+0x498>  // b.pmore
   86e2c:	f9400bf5 	ldr	x21, [sp, #16]
   86e30:	a94263f7 	ldp	x23, x24, [sp, #32]
   86e34:	910002c2 	add	x2, x22, #0x0
   86e38:	52800028 	mov	w8, #0x1                   	// #1
   86e3c:	52800067 	mov	w7, #0x3                   	// #3
   86e40:	2a0003e1 	mov	w1, w0
   86e44:	2a0803e5 	mov	w5, w8
   86e48:	d37df023 	lsl	x3, x1, #3
   86e4c:	d377d826 	lsl	x6, x1, #9
   86e50:	8b030044 	add	x4, x2, x3
   86e54:	331e0ce5 	bfi	w5, w7, #2, #4
   86e58:	f821785f 	str	xzr, [x2, x1, lsl #3]
   86e5c:	11000400 	add	w0, w0, #0x1
   86e60:	38236845 	strb	w5, [x2, x3]
   86e64:	7107e01f 	cmp	w0, #0x1f8
   86e68:	39400483 	ldrb	w3, [x4, #1]
   86e6c:	321e0063 	orr	w3, w3, #0x4
   86e70:	39000483 	strb	w3, [x4, #1]
   86e74:	f8617843 	ldr	x3, [x2, x1, lsl #3]
   86e78:	b3748cc3 	bfi	x3, x6, #12, #36
   86e7c:	f8217843 	str	x3, [x2, x1, lsl #3]
   86e80:	54fffe01 	b.ne	86e40 <init_page_table+0xe8>  // b.any
   86e84:	910002c1 	add	x1, x22, #0x0
   86e88:	2a0003e3 	mov	w3, w0
   86e8c:	d37df065 	lsl	x5, x3, #3
   86e90:	52800024 	mov	w4, #0x1                   	// #1
   86e94:	8b050026 	add	x6, x1, x5
   86e98:	d377d867 	lsl	x7, x3, #9
   86e9c:	f823783f 	str	xzr, [x1, x3, lsl #3]
   86ea0:	0b040002 	add	w2, w0, w4
   86ea4:	38256824 	strb	w4, [x1, x5]
   86ea8:	7108005f 	cmp	w2, #0x200
   86eac:	394004c5 	ldrb	w5, [x6, #1]
   86eb0:	321e00a5 	orr	w5, w5, #0x4
   86eb4:	390004c5 	strb	w5, [x6, #1]
   86eb8:	f8637825 	ldr	x5, [x1, x3, lsl #3]
   86ebc:	b3748ce5 	bfi	x5, x7, #12, #36
   86ec0:	f8237825 	str	x5, [x1, x3, lsl #3]
   86ec4:	54000c20 	b.eq	87048 <init_page_table+0x2f0>  // b.none
   86ec8:	d37df045 	lsl	x5, x2, #3
   86ecc:	f822783f 	str	xzr, [x1, x2, lsl #3]
   86ed0:	8b050026 	add	x6, x1, x5
   86ed4:	d377d847 	lsl	x7, x2, #9
   86ed8:	11000803 	add	w3, w0, #0x2
   86edc:	38256824 	strb	w4, [x1, x5]
   86ee0:	7108007f 	cmp	w3, #0x200
   86ee4:	394004c5 	ldrb	w5, [x6, #1]
   86ee8:	321e00a5 	orr	w5, w5, #0x4
   86eec:	390004c5 	strb	w5, [x6, #1]
   86ef0:	f8627825 	ldr	x5, [x1, x2, lsl #3]
   86ef4:	b3748ce5 	bfi	x5, x7, #12, #36
   86ef8:	f8227825 	str	x5, [x1, x2, lsl #3]
   86efc:	54000a60 	b.eq	87048 <init_page_table+0x2f0>  // b.none
   86f00:	2a0303e2 	mov	w2, w3
   86f04:	11000c03 	add	w3, w0, #0x3
   86f08:	d37df045 	lsl	x5, x2, #3
   86f0c:	d377d847 	lsl	x7, x2, #9
   86f10:	8b050026 	add	x6, x1, x5
   86f14:	7108007f 	cmp	w3, #0x200
   86f18:	f822783f 	str	xzr, [x1, x2, lsl #3]
   86f1c:	38256824 	strb	w4, [x1, x5]
   86f20:	394004c5 	ldrb	w5, [x6, #1]
   86f24:	321e00a5 	orr	w5, w5, #0x4
   86f28:	390004c5 	strb	w5, [x6, #1]
   86f2c:	f8627825 	ldr	x5, [x1, x2, lsl #3]
   86f30:	b3748ce5 	bfi	x5, x7, #12, #36
   86f34:	f8227825 	str	x5, [x1, x2, lsl #3]
   86f38:	54000880 	b.eq	87048 <init_page_table+0x2f0>  // b.none
   86f3c:	2a0303e2 	mov	w2, w3
   86f40:	11001003 	add	w3, w0, #0x4
   86f44:	d37df045 	lsl	x5, x2, #3
   86f48:	d377d847 	lsl	x7, x2, #9
   86f4c:	8b050026 	add	x6, x1, x5
   86f50:	7108007f 	cmp	w3, #0x200
   86f54:	f822783f 	str	xzr, [x1, x2, lsl #3]
   86f58:	38256824 	strb	w4, [x1, x5]
   86f5c:	394004c5 	ldrb	w5, [x6, #1]
   86f60:	321e00a5 	orr	w5, w5, #0x4
   86f64:	390004c5 	strb	w5, [x6, #1]
   86f68:	f8627825 	ldr	x5, [x1, x2, lsl #3]
   86f6c:	b3748ce5 	bfi	x5, x7, #12, #36
   86f70:	f8227825 	str	x5, [x1, x2, lsl #3]
   86f74:	540006a0 	b.eq	87048 <init_page_table+0x2f0>  // b.none
   86f78:	2a0303e2 	mov	w2, w3
   86f7c:	11001403 	add	w3, w0, #0x5
   86f80:	d37df045 	lsl	x5, x2, #3
   86f84:	d377d847 	lsl	x7, x2, #9
   86f88:	8b050026 	add	x6, x1, x5
   86f8c:	7108007f 	cmp	w3, #0x200
   86f90:	f822783f 	str	xzr, [x1, x2, lsl #3]
   86f94:	38256824 	strb	w4, [x1, x5]
   86f98:	394004c5 	ldrb	w5, [x6, #1]
   86f9c:	321e00a5 	orr	w5, w5, #0x4
   86fa0:	390004c5 	strb	w5, [x6, #1]
   86fa4:	f8627825 	ldr	x5, [x1, x2, lsl #3]
   86fa8:	b3748ce5 	bfi	x5, x7, #12, #36
   86fac:	f8227825 	str	x5, [x1, x2, lsl #3]
   86fb0:	540004c0 	b.eq	87048 <init_page_table+0x2f0>  // b.none
   86fb4:	2a0303e2 	mov	w2, w3
   86fb8:	11001803 	add	w3, w0, #0x6
   86fbc:	d37df045 	lsl	x5, x2, #3
   86fc0:	d377d847 	lsl	x7, x2, #9
   86fc4:	8b050026 	add	x6, x1, x5
   86fc8:	7108007f 	cmp	w3, #0x200
   86fcc:	f822783f 	str	xzr, [x1, x2, lsl #3]
   86fd0:	38256824 	strb	w4, [x1, x5]
   86fd4:	394004c5 	ldrb	w5, [x6, #1]
   86fd8:	321e00a5 	orr	w5, w5, #0x4
   86fdc:	390004c5 	strb	w5, [x6, #1]
   86fe0:	f8627825 	ldr	x5, [x1, x2, lsl #3]
   86fe4:	b3748ce5 	bfi	x5, x7, #12, #36
   86fe8:	f8227825 	str	x5, [x1, x2, lsl #3]
   86fec:	540002e0 	b.eq	87048 <init_page_table+0x2f0>  // b.none
   86ff0:	2a0303e2 	mov	w2, w3
   86ff4:	7107e01f 	cmp	w0, #0x1f8
   86ff8:	d37df040 	lsl	x0, x2, #3
   86ffc:	d377d845 	lsl	x5, x2, #9
   87000:	8b000023 	add	x3, x1, x0
   87004:	f822783f 	str	xzr, [x1, x2, lsl #3]
   87008:	38206824 	strb	w4, [x1, x0]
   8700c:	39400460 	ldrb	w0, [x3, #1]
   87010:	321e0000 	orr	w0, w0, #0x4
   87014:	39000460 	strb	w0, [x3, #1]
   87018:	f8627820 	ldr	x0, [x1, x2, lsl #3]
   8701c:	b3748ca0 	bfi	x0, x5, #12, #36
   87020:	f8227820 	str	x0, [x1, x2, lsl #3]
   87024:	54000121 	b.ne	87048 <init_page_table+0x2f0>  // b.any
   87028:	f907fc3f 	str	xzr, [x1, #4088]
   8702c:	52800080 	mov	w0, #0x4                   	// #4
   87030:	393fe024 	strb	w4, [x1, #4088]
   87034:	b27723e2 	mov	x2, #0x3fe00               	// #261632
   87038:	393fe420 	strb	w0, [x1, #4089]
   8703c:	f947fc20 	ldr	x0, [x1, #4088]
   87040:	b3748c40 	bfi	x0, x2, #12, #36
   87044:	f907fc20 	str	x0, [x1, #4088]
   87048:	910002c2 	add	x2, x22, #0x0
   8704c:	52800083 	mov	w3, #0x4                   	// #4
   87050:	91400441 	add	x1, x2, #0x1, lsl #12
   87054:	52800025 	mov	w5, #0x1                   	// #1
   87058:	d2a00084 	mov	x4, #0x40000               	// #262144
   8705c:	90000040 	adrp	x0, 8f000 <Stage2map1to1+0x1000>
   87060:	f908005f 	str	xzr, [x2, #4096]
   87064:	91002000 	add	x0, x0, #0x8
   87068:	39000025 	strb	w5, [x1]
   8706c:	39000423 	strb	w3, [x1, #1]
   87070:	91400841 	add	x1, x2, #0x2, lsl #12
   87074:	f9480043 	ldr	x3, [x2, #4096]
   87078:	b3748c83 	bfi	x3, x4, #12, #36
   8707c:	f9080043 	str	x3, [x2, #4096]
   87080:	f800841f 	str	xzr, [x0], #8
   87084:	eb01001f 	cmp	x0, x1
   87088:	54ffffc1 	b.ne	87080 <init_page_table+0x328>  // b.any
   8708c:	b0000045 	adrp	x5, 90000 <Stage1map1to1>
   87090:	910000a2 	add	x2, x5, #0x0
   87094:	52800063 	mov	w3, #0x3                   	// #3
   87098:	910002c1 	add	x1, x22, #0x0
   8709c:	f90000bf 	str	xzr, [x5]
   870a0:	90000046 	adrp	x6, 8f000 <Stage2map1to1+0x1000>
   870a4:	f900045f 	str	xzr, [x2, #8]
   870a8:	910000c6 	add	x6, x6, #0x0
   870ac:	390000a3 	strb	w3, [x5]
   870b0:	d34cfc21 	lsr	x1, x1, #12
   870b4:	39002043 	strb	w3, [x2, #8]
   870b8:	d34cfcc6 	lsr	x6, x6, #12
   870bc:	b0000040 	adrp	x0, 90000 <Stage1map1to1>
   870c0:	91004000 	add	x0, x0, #0x10
   870c4:	f94000a4 	ldr	x4, [x5]
   870c8:	f9400443 	ldr	x3, [x2, #8]
   870cc:	b3748c24 	bfi	x4, x1, #12, #36
   870d0:	f90000a4 	str	x4, [x5]
   870d4:	b3748cc3 	bfi	x3, x6, #12, #36
   870d8:	d378fc84 	lsr	x4, x4, #56
   870dc:	f9000443 	str	x3, [x2, #8]
   870e0:	91400441 	add	x1, x2, #0x1, lsl #12
   870e4:	d378fc63 	lsr	x3, x3, #56
   870e8:	32196084 	orr	w4, w4, #0xffffff80
   870ec:	32196063 	orr	w3, w3, #0xffffff80
   870f0:	39001c44 	strb	w4, [x2, #7]
   870f4:	39003c43 	strb	w3, [x2, #15]
   870f8:	f800841f 	str	xzr, [x0], #8
   870fc:	eb01001f 	cmp	x0, x1
   87100:	54ffffc1 	b.ne	870f8 <init_page_table+0x3a0>  // b.any
   87104:	90000022 	adrp	x2, 8b000 <Stage3virtual>
   87108:	91000040 	add	x0, x2, #0x0
   8710c:	91400401 	add	x1, x0, #0x1, lsl #12
   87110:	f800841f 	str	xzr, [x0], #8
   87114:	eb01001f 	cmp	x0, x1
   87118:	54ffffc1 	b.ne	87110 <init_page_table+0x3b8>  // b.any
   8711c:	b0000023 	adrp	x3, 8c000 <Stage2virtual>
   87120:	91000064 	add	x4, x3, #0x0
   87124:	52800066 	mov	w6, #0x3                   	// #3
   87128:	91000042 	add	x2, x2, #0x0
   8712c:	d34cfc45 	lsr	x5, x2, #12
   87130:	aa0403e0 	mov	x0, x4
   87134:	f907fc9f 	str	xzr, [x4, #4088]
   87138:	913fe081 	add	x1, x4, #0xff8
   8713c:	393fe086 	strb	w6, [x4, #4088]
   87140:	f947fc82 	ldr	x2, [x4, #4088]
   87144:	b3748ca2 	bfi	x2, x5, #12, #36
   87148:	f907fc82 	str	x2, [x4, #4088]
   8714c:	d378fc42 	lsr	x2, x2, #56
   87150:	32196042 	orr	w2, w2, #0xffffff80
   87154:	393ffc82 	strb	w2, [x4, #4095]
   87158:	f800841f 	str	xzr, [x0], #8
   8715c:	eb01001f 	cmp	x0, x1
   87160:	54ffffc1 	b.ne	87158 <init_page_table+0x400>  // b.any
   87164:	d0000022 	adrp	x2, 8d000 <Stage1virtual>
   87168:	91000042 	add	x2, x2, #0x0
   8716c:	52800065 	mov	w5, #0x3                   	// #3
   87170:	91000063 	add	x3, x3, #0x0
   87174:	d34cfc64 	lsr	x4, x3, #12
   87178:	aa0203e0 	mov	x0, x2
   8717c:	f907fc5f 	str	xzr, [x2, #4088]
   87180:	913fe041 	add	x1, x2, #0xff8
   87184:	393fe045 	strb	w5, [x2, #4088]
   87188:	f947fc43 	ldr	x3, [x2, #4088]
   8718c:	b3748c83 	bfi	x3, x4, #12, #36
   87190:	f907fc43 	str	x3, [x2, #4088]
   87194:	d378fc63 	lsr	x3, x3, #56
   87198:	32196063 	orr	w3, w3, #0xffffff80
   8719c:	393ffc43 	strb	w3, [x2, #4095]
   871a0:	f800841f 	str	xzr, [x0], #8
   871a4:	eb01001f 	cmp	x0, x1
   871a8:	54ffffc1 	b.ne	871a0 <init_page_table+0x448>  // b.any
   871ac:	f9400ff6 	ldr	x22, [sp, #24]
   871b0:	f9401bfe 	ldr	x30, [sp, #48]
   871b4:	a8c653f3 	ldp	x19, x20, [sp], #96
   871b8:	d65f03c0 	ret
   871bc:	f9400261 	ldr	x1, [x19]
   871c0:	aa1503e0 	mov	x0, x21
   871c4:	91080294 	add	x20, x20, #0x200
   871c8:	92408e94 	and	x20, x20, #0xfffffffff
   871cc:	97fffa1b 	bl	85a38 <printf>
   871d0:	b94057e5 	ldr	w5, [sp, #84]
   871d4:	52800020 	mov	w0, #0x1                   	// #1
   871d8:	6b0000bf 	cmp	w5, w0
   871dc:	54ffdfe8 	b.hi	86dd8 <init_page_table+0x80>  // b.pmore
   871e0:	17ffff13 	b	86e2c <init_page_table+0xd4>
   871e4:	2a1303e0 	mov	w0, w19
   871e8:	97fff252 	bl	83b30 <mailbox_read>
   871ec:	17fffeea 	b	86d94 <init_page_table+0x3c>
   871f0:	a94263f7 	ldp	x23, x24, [sp, #32]
   871f4:	7107fc1f 	cmp	w0, #0x1ff
   871f8:	f9400bf5 	ldr	x21, [sp, #16]
   871fc:	54fff268 	b.hi	87048 <init_page_table+0x2f0>  // b.pmore
   87200:	17ffff21 	b	86e84 <init_page_table+0x12c>
   87204:	d503201f 	nop

0000000000087208 <mmu_init>:
   87208:	d5033f9f 	dsb	sy
   8720c:	d2808000 	mov	x0, #0x400                 	// #1024
   87210:	f2a88180 	movk	x0, #0x440c, lsl #16
   87214:	f2c01fe0 	movk	x0, #0xff, lsl #32
   87218:	d518a200 	msr	mair_el1, x0
   8721c:	b0000040 	adrp	x0, 90000 <Stage1map1to1>
   87220:	91000000 	add	x0, x0, #0x0
   87224:	d5182000 	msr	ttbr0_el1, x0
   87228:	d0000020 	adrp	x0, 8d000 <Stage1virtual>
   8722c:	91000000 	add	x0, x0, #0x0
   87230:	d5182020 	msr	ttbr1_el1, x0
   87234:	d5033fdf 	isb
   87238:	d286a320 	mov	x0, #0x3519                	// #13593
   8723c:	f2b6a320 	movk	x0, #0xb519, lsl #16
   87240:	d5182040 	msr	tcr_el1, x0
   87244:	d5033fdf 	isb
   87248:	d5033fdf 	isb
   8724c:	d5381000 	mrs	x0, sctlr_el1
   87250:	d28303e1 	mov	x1, #0x181f                	// #6175
   87254:	f2a01801 	movk	x1, #0xc0, lsl #16
   87258:	aa010000 	orr	x0, x0, x1
   8725c:	d5181000 	msr	sctlr_el1, x0
   87260:	d5033fdf 	isb
   87264:	f0000000 	adrp	x0, 8a000 <table_loaded>
   87268:	91000000 	add	x0, x0, #0x0
   8726c:	17ffe765 	b	81000 <semaphore_dec>

0000000000087270 <virtualmap>:
   87270:	90000024 	adrp	x4, 8b000 <Stage3virtual>
   87274:	12001c21 	and	w1, w1, #0xff
   87278:	91000084 	add	x4, x4, #0x0
   8727c:	d2800002 	mov	x2, #0x0                   	// #0
   87280:	14000002 	b	87288 <virtualmap+0x18>
   87284:	54000320 	b.eq	872e8 <virtualmap+0x78>  // b.none
   87288:	f8627883 	ldr	x3, [x4, x2, lsl #3]
   8728c:	2a0203e5 	mov	w5, w2
   87290:	91000442 	add	x2, x2, #0x1
   87294:	f108005f 	cmp	x2, #0x200
   87298:	b5ffff63 	cbnz	x3, 87284 <virtualmap+0x14>
   8729c:	93407ca2 	sxtw	x2, w5
   872a0:	52800067 	mov	w7, #0x3                   	// #3
   872a4:	d3777c00 	ubfiz	x0, x0, #9, #32
   872a8:	9ac72046 	lsl	x6, x2, x7
   872ac:	8b060083 	add	x3, x4, x6
   872b0:	f822789f 	str	xzr, [x4, x2, lsl #3]
   872b4:	331e0c27 	bfi	w7, w1, #2, #4
   872b8:	38266887 	strb	w7, [x4, x6]
   872bc:	39400461 	ldrb	w1, [x3, #1]
   872c0:	321e0021 	orr	w1, w1, #0x4
   872c4:	39000461 	strb	w1, [x3, #1]
   872c8:	f8627881 	ldr	x1, [x4, x2, lsl #3]
   872cc:	b3748c01 	bfi	x1, x0, #12, #36
   872d0:	f8227881 	str	x1, [x4, x2, lsl #3]
   872d4:	d5033fbf 	dmb	sy
   872d8:	53144ca0 	lsl	w0, w5, #12
   872dc:	51480000 	sub	w0, w0, #0x200, lsl #12
   872e0:	93407c00 	sxtw	x0, w0
   872e4:	d65f03c0 	ret
   872e8:	d2800000 	mov	x0, #0x0                   	// #0
   872ec:	d65f03c0 	ret
	...

0000000000087300 <strlen>:
   87300:	92402c04 	and	x4, x0, #0xfff
   87304:	b200c3e8 	mov	x8, #0x101010101010101     	// #72340172838076673
   87308:	f13fc09f 	cmp	x4, #0xff0
   8730c:	5400082c 	b.gt	87410 <strlen+0x110>
   87310:	a9400c02 	ldp	x2, x3, [x0]
   87314:	cb080044 	sub	x4, x2, x8
   87318:	b200d845 	orr	x5, x2, #0x7f7f7f7f7f7f7f7f
   8731c:	cb080066 	sub	x6, x3, x8
   87320:	b200d867 	orr	x7, x3, #0x7f7f7f7f7f7f7f7f
   87324:	ea250084 	bics	x4, x4, x5
   87328:	8a2700c5 	bic	x5, x6, x7
   8732c:	fa4008a0 	ccmp	x5, #0x0, #0x0, eq  // eq = none
   87330:	54000100 	b.eq	87350 <strlen+0x50>  // b.none
   87334:	9a853084 	csel	x4, x4, x5, cc  // cc = lo, ul, last
   87338:	d2800100 	mov	x0, #0x8                   	// #8
   8733c:	dac00c84 	rev	x4, x4
   87340:	dac01084 	clz	x4, x4
   87344:	9a8033e0 	csel	x0, xzr, x0, cc  // cc = lo, ul, last
   87348:	8b440c00 	add	x0, x0, x4, lsr #3
   8734c:	d65f03c0 	ret
   87350:	927cec01 	and	x1, x0, #0xfffffffffffffff0
   87354:	d1004021 	sub	x1, x1, #0x10
   87358:	a9c20c22 	ldp	x2, x3, [x1, #32]!
   8735c:	cb080044 	sub	x4, x2, x8
   87360:	cb080066 	sub	x6, x3, x8
   87364:	aa060085 	orr	x5, x4, x6
   87368:	ea081cbf 	tst	x5, x8, lsl #7
   8736c:	54000101 	b.ne	8738c <strlen+0x8c>  // b.any
   87370:	a9410c22 	ldp	x2, x3, [x1, #16]
   87374:	cb080044 	sub	x4, x2, x8
   87378:	cb080066 	sub	x6, x3, x8
   8737c:	aa060085 	orr	x5, x4, x6
   87380:	ea081cbf 	tst	x5, x8, lsl #7
   87384:	54fffea0 	b.eq	87358 <strlen+0x58>  // b.none
   87388:	91004021 	add	x1, x1, #0x10
   8738c:	b200d845 	orr	x5, x2, #0x7f7f7f7f7f7f7f7f
   87390:	b200d867 	orr	x7, x3, #0x7f7f7f7f7f7f7f7f
   87394:	ea250084 	bics	x4, x4, x5
   87398:	8a2700c5 	bic	x5, x6, x7
   8739c:	fa4008a0 	ccmp	x5, #0x0, #0x0, eq  // eq = none
   873a0:	54000120 	b.eq	873c4 <strlen+0xc4>  // b.none
   873a4:	9a853084 	csel	x4, x4, x5, cc  // cc = lo, ul, last
   873a8:	cb000020 	sub	x0, x1, x0
   873ac:	dac00c84 	rev	x4, x4
   873b0:	91002005 	add	x5, x0, #0x8
   873b4:	dac01084 	clz	x4, x4
   873b8:	9a853000 	csel	x0, x0, x5, cc  // cc = lo, ul, last
   873bc:	8b440c00 	add	x0, x0, x4, lsr #3
   873c0:	d65f03c0 	ret
   873c4:	a9c10c22 	ldp	x2, x3, [x1, #16]!
   873c8:	cb080044 	sub	x4, x2, x8
   873cc:	b200d845 	orr	x5, x2, #0x7f7f7f7f7f7f7f7f
   873d0:	cb080066 	sub	x6, x3, x8
   873d4:	b200d867 	orr	x7, x3, #0x7f7f7f7f7f7f7f7f
   873d8:	ea250084 	bics	x4, x4, x5
   873dc:	8a2700c5 	bic	x5, x6, x7
   873e0:	fa4008a0 	ccmp	x5, #0x0, #0x0, eq  // eq = none
   873e4:	54fffe01 	b.ne	873a4 <strlen+0xa4>  // b.any
   873e8:	a9c10c22 	ldp	x2, x3, [x1, #16]!
   873ec:	cb080044 	sub	x4, x2, x8
   873f0:	b200d845 	orr	x5, x2, #0x7f7f7f7f7f7f7f7f
   873f4:	cb080066 	sub	x6, x3, x8
   873f8:	b200d867 	orr	x7, x3, #0x7f7f7f7f7f7f7f7f
   873fc:	ea250084 	bics	x4, x4, x5
   87400:	8a2700c5 	bic	x5, x6, x7
   87404:	fa4008a0 	ccmp	x5, #0x0, #0x0, eq  // eq = none
   87408:	54fffde0 	b.eq	873c4 <strlen+0xc4>  // b.none
   8740c:	17ffffe6 	b	873a4 <strlen+0xa4>
   87410:	927cec01 	and	x1, x0, #0xfffffffffffffff0
   87414:	a9400c22 	ldp	x2, x3, [x1]
   87418:	d37df004 	lsl	x4, x0, #3
   8741c:	92800007 	mov	x7, #0xffffffffffffffff    	// #-1
   87420:	9ac420e4 	lsl	x4, x7, x4
   87424:	b201c084 	orr	x4, x4, #0x8080808080808080
   87428:	aa240042 	orn	x2, x2, x4
   8742c:	aa240065 	orn	x5, x3, x4
   87430:	f27d001f 	tst	x0, #0x8
   87434:	9a870042 	csel	x2, x2, x7, eq  // eq = none
   87438:	9a850063 	csel	x3, x3, x5, eq  // eq = none
   8743c:	17ffffc8 	b	8735c <strlen+0x5c>
