
build/output.elf:     file format elf32-littlearm


Disassembly of section .init:

00008000 <_start>:
    8000:	ea00005c 	b	8178 <main>

Disassembly of section .text:

00008004 <InitialiseFrameBuffer>:
    8004:	e3500a01 	cmp	r0, #4096	; 0x1000
    8008:	93510a01 	cmpls	r1, #4096	; 0x1000
    800c:	93520020 	cmpls	r2, #32
    8010:	83a00000 	movhi	r0, #0
    8014:	81a0f00e 	movhi	pc, lr
    8018:	e92d4010 	push	{r4, lr}
    801c:	e59f4040 	ldr	r4, [pc, #64]	; 8064 <InitialiseFrameBuffer+0x60>
    8020:	e5840014 	str	r0, [r4, #20]
    8024:	e5841018 	str	r1, [r4, #24]
    8028:	e5840028 	str	r0, [r4, #40]	; 0x28
    802c:	e584102c 	str	r1, [r4, #44]	; 0x2c
    8030:	e5842040 	str	r2, [r4, #64]	; 0x40
    8034:	e1a00004 	mov	r0, r4
    8038:	e3800103 	orr	r0, r0, #-1073741824	; 0xc0000000
    803c:	e3a01001 	mov	r1, #1
    8040:	eb000030 	bl	8108 <MailboxWrite>
    8044:	e3a00001 	mov	r0, #1
    8048:	eb00003b 	bl	813c <MailboxRead>
    804c:	e594404c 	ldr	r4, [r4, #76]	; 0x4c
    8050:	e3300000 	teq	r0, #0
    8054:	13a00000 	movne	r0, #0
    8058:	18bd8010 	popne	{r4, pc}
    805c:	e1a00004 	mov	r0, r4
    8060:	e8bd8010 	pop	{r4, pc}
    8064:	00008230 	.word	0x00008230

00008068 <GetGpioAddress>:
    8068:	e59f008c 	ldr	r0, [pc, #140]	; 80fc <SetGpio+0x3c>
    806c:	e1a0f00e 	mov	pc, lr

00008070 <SetGpioFunction>:
    8070:	e3500035 	cmp	r0, #53	; 0x35
    8074:	93510007 	cmpls	r1, #7
    8078:	81a0f00e 	movhi	pc, lr
    807c:	e52de004 	push	{lr}		; (str lr, [sp, #-4]!)
    8080:	e1a02000 	mov	r2, r0
    8084:	ebfffff7 	bl	8068 <GetGpioAddress>

00008088 <functionLoop$>:
    8088:	e3520009 	cmp	r2, #9
    808c:	8242200a 	subhi	r2, r2, #10
    8090:	82800004 	addhi	r0, r0, #4
    8094:	8afffffb 	bhi	8088 <functionLoop$>
    8098:	e0822082 	add	r2, r2, r2, lsl #1
    809c:	e1a01211 	lsl	r1, r1, r2
    80a0:	e3a03007 	mov	r3, #7
    80a4:	e1a03213 	lsl	r3, r3, r2
    80a8:	e1e03003 	mvn	r3, r3
    80ac:	e5902000 	ldr	r2, [r0]
    80b0:	e0022003 	and	r2, r2, r3
    80b4:	e1811002 	orr	r1, r1, r2
    80b8:	e5801000 	str	r1, [r0]
    80bc:	e49df004 	pop	{pc}		; (ldr pc, [sp], #4)

000080c0 <SetGpio>:
    80c0:	e3500035 	cmp	r0, #53	; 0x35
    80c4:	81a0f00e 	movhi	pc, lr
    80c8:	e52de004 	push	{lr}		; (str lr, [sp, #-4]!)
    80cc:	e1a02000 	mov	r2, r0
    80d0:	ebffffe4 	bl	8068 <GetGpioAddress>
    80d4:	e1a032a2 	lsr	r3, r2, #5
    80d8:	e1a03103 	lsl	r3, r3, #2
    80dc:	e0800003 	add	r0, r0, r3
    80e0:	e202201f 	and	r2, r2, #31
    80e4:	e3a03001 	mov	r3, #1
    80e8:	e1a03213 	lsl	r3, r3, r2
    80ec:	e3310000 	teq	r1, #0
    80f0:	05803028 	streq	r3, [r0, #40]	; 0x28
    80f4:	1580301c 	strne	r3, [r0, #28]
    80f8:	e49df004 	pop	{pc}		; (ldr pc, [sp], #4)
    80fc:	3f200000 	.word	0x3f200000

00008100 <GetMailboxBase>:
    8100:	e59f006c 	ldr	r0, [pc, #108]	; 8174 <rightmail$+0x24>
    8104:	e1a0f00e 	mov	pc, lr

00008108 <MailboxWrite>:
    8108:	e310000f 	tst	r0, #15
    810c:	11a0f00e 	movne	pc, lr
    8110:	e351000f 	cmp	r1, #15
    8114:	81a0f00e 	movhi	pc, lr
    8118:	e1a02000 	mov	r2, r0
    811c:	e52de004 	push	{lr}		; (str lr, [sp, #-4]!)
    8120:	ebfffff6 	bl	8100 <GetMailboxBase>

00008124 <wait1$>:
    8124:	e5903018 	ldr	r3, [r0, #24]
    8128:	e3130102 	tst	r3, #-2147483648	; 0x80000000
    812c:	1afffffc 	bne	8124 <wait1$>
    8130:	e0822001 	add	r2, r2, r1
    8134:	e5802020 	str	r2, [r0, #32]
    8138:	e49df004 	pop	{pc}		; (ldr pc, [sp], #4)

0000813c <MailboxRead>:
    813c:	e350000f 	cmp	r0, #15
    8140:	81a0f00e 	movhi	pc, lr
    8144:	e1a01000 	mov	r1, r0
    8148:	e52de004 	push	{lr}		; (str lr, [sp, #-4]!)
    814c:	ebffffeb 	bl	8100 <GetMailboxBase>

00008150 <rightmail$>:
    8150:	e5902018 	ldr	r2, [r0, #24]
    8154:	e3120101 	tst	r2, #1073741824	; 0x40000000
    8158:	1afffffc 	bne	8150 <rightmail$>
    815c:	e5902000 	ldr	r2, [r0]
    8160:	e202300f 	and	r3, r2, #15
    8164:	e1330001 	teq	r3, r1
    8168:	1afffff8 	bne	8150 <rightmail$>
    816c:	e3c2000f 	bic	r0, r2, #15
    8170:	e49df004 	pop	{pc}		; (ldr pc, [sp], #4)
    8174:	3f00b880 	.word	0x3f00b880

00008178 <main>:
    8178:	e3a0d902 	mov	sp, #32768	; 0x8000
    817c:	e3a00b01 	mov	r0, #1024	; 0x400
    8180:	e3a01c03 	mov	r1, #768	; 0x300
    8184:	e3a02010 	mov	r2, #16
    8188:	ebffff9d 	bl	8004 <InitialiseFrameBuffer>
    818c:	e3300000 	teq	r0, #0
    8190:	1a000006 	bne	81b0 <noError$>
    8194:	e3a00010 	mov	r0, #16
    8198:	e3a01001 	mov	r1, #1
    819c:	ebffffb3 	bl	8070 <SetGpioFunction>
    81a0:	e3a00010 	mov	r0, #16
    81a4:	e3a01000 	mov	r1, #0
    81a8:	ebffffc4 	bl	80c0 <SetGpio>

000081ac <error$>:
    81ac:	eafffffe 	b	81ac <error$>

000081b0 <noError$>:
    81b0:	e1a04000 	mov	r4, r0

000081b4 <render$>:
    81b4:	e5943000 	ldr	r3, [r4]
    81b8:	e3a01c03 	mov	r1, #768	; 0x300

000081bc <drawRow$>:
    81bc:	e3a02b01 	mov	r2, #1024	; 0x400

000081c0 <drawPixel$>:
    81c0:	e1c300b0 	strh	r0, [r3]
    81c4:	e2833002 	add	r3, r3, #2
    81c8:	e2422001 	sub	r2, r2, #1
    81cc:	e3320000 	teq	r2, #0
    81d0:	1afffffa 	bne	81c0 <drawPixel$>
    81d4:	e2411001 	sub	r1, r1, #1
    81d8:	e2800001 	add	r0, r0, #1
    81dc:	e3310000 	teq	r1, #0
    81e0:	1afffff5 	bne	81bc <drawRow$>
    81e4:	eafffff2 	b	81b4 <render$>

000081e8 <GetSystemTimerBase>:
    81e8:	e59f0034 	ldr	r0, [pc, #52]	; 8224 <loop$+0x14>
    81ec:	e1a0f00e 	mov	pc, lr

000081f0 <GetTimeStamp>:
    81f0:	e52de004 	push	{lr}		; (str lr, [sp, #-4]!)
    81f4:	ebfffffb 	bl	81e8 <GetSystemTimerBase>
    81f8:	e1c000d4 	ldrd	r0, [r0, #4]
    81fc:	e49df004 	pop	{pc}		; (ldr pc, [sp], #4)

00008200 <Wait>:
    8200:	e1a02000 	mov	r2, r0
    8204:	e52de004 	push	{lr}		; (str lr, [sp, #-4]!)
    8208:	ebfffff8 	bl	81f0 <GetTimeStamp>
    820c:	e1a03000 	mov	r3, r0

00008210 <loop$>:
    8210:	ebfffff6 	bl	81f0 <GetTimeStamp>
    8214:	e0401003 	sub	r1, r0, r3
    8218:	e1510002 	cmp	r1, r2
    821c:	9afffffb 	bls	8210 <loop$>
    8220:	e49df004 	pop	{pc}		; (ldr pc, [sp], #4)
    8224:	3f003000 	.word	0x3f003000
